(lp1
ccopy_reg
_reconstructor
p2
(cpandas.tseries.holiday
Holiday
p3
c__builtin__
object
p4
NtRp5
(dp6
S'days_of_week'
p7
NsS'observance'
p8
NsS'name'
p9
V\u5143\u65e5
p10
sS'end_date'
p11
NsS'year'
p12
I1970
sS'month'
p13
I1
sS'offset'
p14
NsS'start_date'
p15
NsS'day'
p16
I1
sbag2
(g3
g4
NtRp17
(dp18
g7
Nsg8
Nsg9
V\u6210\u4eba\u306e\u65e5
p19
sg11
Nsg12
I1970
sg13
I1
sg14
Nsg15
Nsg16
I15
sbag2
(g3
g4
NtRp20
(dp21
g7
Nsg8
Nsg9
V\u5efa\u56fd\u8a18\u5ff5\u306e\u65e5
p22
sg11
Nsg12
I1970
sg13
I2
sg14
Nsg15
Nsg16
I11
sbag2
(g3
g4
NtRp23
(dp24
g7
Nsg8
Nsg9
V\u6625\u5206\u306e\u65e5
p25
sg11
Nsg12
I1970
sg13
I3
sg14
Nsg15
Nsg16
I21
sbag2
(g3
g4
NtRp26
(dp27
g7
Nsg8
Nsg9
V\u5929\u7687\u8a95\u751f\u65e5
p28
sg11
Nsg12
I1970
sg13
I4
sg14
Nsg15
Nsg16
I29
sbag2
(g3
g4
NtRp29
(dp30
g7
Nsg8
Nsg9
V\u61b2\u6cd5\u8a18\u5ff5\u65e5
p31
sg11
Nsg12
I1970
sg13
I5
sg14
Nsg15
Nsg16
I3
sbag2
(g3
g4
NtRp32
(dp33
g7
Nsg8
Nsg9
V\u3053\u3069\u3082\u306e\u65e5
p34
sg11
Nsg12
I1970
sg13
I5
sg14
Nsg15
Nsg16
I5
sbag2
(g3
g4
NtRp35
(dp36
g7
Nsg8
Nsg9
V\u656c\u8001\u306e\u65e5
p37
sg11
Nsg12
I1970
sg13
I9
sg14
Nsg15
Nsg16
I15
sbag2
(g3
g4
NtRp38
(dp39
g7
Nsg8
Nsg9
V\u79cb\u5206\u306e\u65e5
p40
sg11
Nsg12
I1970
sg13
I9
sg14
Nsg15
Nsg16
I23
sbag2
(g3
g4
NtRp41
(dp42
g7
Nsg8
Nsg9
V\u4f53\u80b2\u306e\u65e5
p43
sg11
Nsg12
I1970
sg13
I10
sg14
Nsg15
Nsg16
I10
sbag2
(g3
g4
NtRp44
(dp45
g7
Nsg8
Nsg9
V\u6587\u5316\u306e\u65e5
p46
sg11
Nsg12
I1970
sg13
I11
sg14
Nsg15
Nsg16
I3
sbag2
(g3
g4
NtRp47
(dp48
g7
Nsg8
Nsg9
V\u52e4\u52b4\u611f\u8b1d\u306e\u65e5
p49
sg11
Nsg12
I1970
sg13
I11
sg14
Nsg15
Nsg16
I23
sbag2
(g3
g4
NtRp50
(dp51
g7
Nsg8
Nsg9
V\u5143\u65e5
p52
sg11
Nsg12
I1971
sg13
I1
sg14
Nsg15
Nsg16
I1
sbag2
(g3
g4
NtRp53
(dp54
g7
Nsg8
Nsg9
V\u6210\u4eba\u306e\u65e5
p55
sg11
Nsg12
I1971
sg13
I1
sg14
Nsg15
Nsg16
I15
sbag2
(g3
g4
NtRp56
(dp57
g7
Nsg8
Nsg9
V\u5efa\u56fd\u8a18\u5ff5\u306e\u65e5
p58
sg11
Nsg12
I1971
sg13
I2
sg14
Nsg15
Nsg16
I11
sbag2
(g3
g4
NtRp59
(dp60
g7
Nsg8
Nsg9
V\u6625\u5206\u306e\u65e5
p61
sg11
Nsg12
I1971
sg13
I3
sg14
Nsg15
Nsg16
I21
sbag2
(g3
g4
NtRp62
(dp63
g7
Nsg8
Nsg9
V\u5929\u7687\u8a95\u751f\u65e5
p64
sg11
Nsg12
I1971
sg13
I4
sg14
Nsg15
Nsg16
I29
sbag2
(g3
g4
NtRp65
(dp66
g7
Nsg8
Nsg9
V\u61b2\u6cd5\u8a18\u5ff5\u65e5
p67
sg11
Nsg12
I1971
sg13
I5
sg14
Nsg15
Nsg16
I3
sbag2
(g3
g4
NtRp68
(dp69
g7
Nsg8
Nsg9
V\u3053\u3069\u3082\u306e\u65e5
p70
sg11
Nsg12
I1971
sg13
I5
sg14
Nsg15
Nsg16
I5
sbag2
(g3
g4
NtRp71
(dp72
g7
Nsg8
Nsg9
V\u656c\u8001\u306e\u65e5
p73
sg11
Nsg12
I1971
sg13
I9
sg14
Nsg15
Nsg16
I15
sbag2
(g3
g4
NtRp74
(dp75
g7
Nsg8
Nsg9
V\u79cb\u5206\u306e\u65e5
p76
sg11
Nsg12
I1971
sg13
I9
sg14
Nsg15
Nsg16
I24
sbag2
(g3
g4
NtRp77
(dp78
g7
Nsg8
Nsg9
V\u4f53\u80b2\u306e\u65e5
p79
sg11
Nsg12
I1971
sg13
I10
sg14
Nsg15
Nsg16
I10
sbag2
(g3
g4
NtRp80
(dp81
g7
Nsg8
Nsg9
V\u6587\u5316\u306e\u65e5
p82
sg11
Nsg12
I1971
sg13
I11
sg14
Nsg15
Nsg16
I3
sbag2
(g3
g4
NtRp83
(dp84
g7
Nsg8
Nsg9
V\u52e4\u52b4\u611f\u8b1d\u306e\u65e5
p85
sg11
Nsg12
I1971
sg13
I11
sg14
Nsg15
Nsg16
I23
sbag2
(g3
g4
NtRp86
(dp87
g7
Nsg8
Nsg9
V\u5143\u65e5
p88
sg11
Nsg12
I1972
sg13
I1
sg14
Nsg15
Nsg16
I1
sbag2
(g3
g4
NtRp89
(dp90
g7
Nsg8
Nsg9
V\u6210\u4eba\u306e\u65e5
p91
sg11
Nsg12
I1972
sg13
I1
sg14
Nsg15
Nsg16
I15
sbag2
(g3
g4
NtRp92
(dp93
g7
Nsg8
Nsg9
V\u5efa\u56fd\u8a18\u5ff5\u306e\u65e5
p94
sg11
Nsg12
I1972
sg13
I2
sg14
Nsg15
Nsg16
I11
sbag2
(g3
g4
NtRp95
(dp96
g7
Nsg8
Nsg9
V\u6625\u5206\u306e\u65e5
p97
sg11
Nsg12
I1972
sg13
I3
sg14
Nsg15
Nsg16
I20
sbag2
(g3
g4
NtRp98
(dp99
g7
Nsg8
Nsg9
V\u5929\u7687\u8a95\u751f\u65e5
p100
sg11
Nsg12
I1972
sg13
I4
sg14
Nsg15
Nsg16
I29
sbag2
(g3
g4
NtRp101
(dp102
g7
Nsg8
Nsg9
V\u61b2\u6cd5\u8a18\u5ff5\u65e5
p103
sg11
Nsg12
I1972
sg13
I5
sg14
Nsg15
Nsg16
I3
sbag2
(g3
g4
NtRp104
(dp105
g7
Nsg8
Nsg9
V\u3053\u3069\u3082\u306e\u65e5
p106
sg11
Nsg12
I1972
sg13
I5
sg14
Nsg15
Nsg16
I5
sbag2
(g3
g4
NtRp107
(dp108
g7
Nsg8
Nsg9
V\u656c\u8001\u306e\u65e5
p109
sg11
Nsg12
I1972
sg13
I9
sg14
Nsg15
Nsg16
I15
sbag2
(g3
g4
NtRp110
(dp111
g7
Nsg8
Nsg9
V\u79cb\u5206\u306e\u65e5
p112
sg11
Nsg12
I1972
sg13
I9
sg14
Nsg15
Nsg16
I23
sbag2
(g3
g4
NtRp113
(dp114
g7
Nsg8
Nsg9
V\u4f53\u80b2\u306e\u65e5
p115
sg11
Nsg12
I1972
sg13
I10
sg14
Nsg15
Nsg16
I10
sbag2
(g3
g4
NtRp116
(dp117
g7
Nsg8
Nsg9
V\u6587\u5316\u306e\u65e5
p118
sg11
Nsg12
I1972
sg13
I11
sg14
Nsg15
Nsg16
I3
sbag2
(g3
g4
NtRp119
(dp120
g7
Nsg8
Nsg9
V\u52e4\u52b4\u611f\u8b1d\u306e\u65e5
p121
sg11
Nsg12
I1972
sg13
I11
sg14
Nsg15
Nsg16
I23
sbag2
(g3
g4
NtRp122
(dp123
g7
Nsg8
Nsg9
V\u5143\u65e5
p124
sg11
Nsg12
I1973
sg13
I1
sg14
Nsg15
Nsg16
I1
sbag2
(g3
g4
NtRp125
(dp126
g7
Nsg8
Nsg9
V\u6210\u4eba\u306e\u65e5
p127
sg11
Nsg12
I1973
sg13
I1
sg14
Nsg15
Nsg16
I15
sbag2
(g3
g4
NtRp128
(dp129
g7
Nsg8
Nsg9
V\u5efa\u56fd\u8a18\u5ff5\u306e\u65e5
p130
sg11
Nsg12
I1973
sg13
I2
sg14
Nsg15
Nsg16
I11
sbag2
(g3
g4
NtRp131
(dp132
g7
Nsg8
Nsg9
V\u6625\u5206\u306e\u65e5
p133
sg11
Nsg12
I1973
sg13
I3
sg14
Nsg15
Nsg16
I21
sbag2
(g3
g4
NtRp134
(dp135
g7
Nsg8
Nsg9
V\u5929\u7687\u8a95\u751f\u65e5
p136
sg11
Nsg12
I1973
sg13
I4
sg14
Nsg15
Nsg16
I29
sbag2
(g3
g4
NtRp137
(dp138
g7
Nsg8
Nsg9
V\u632f\u66ff\u4f11\u65e5
p139
sg11
Nsg12
I1973
sg13
I4
sg14
Nsg15
Nsg16
I30
sbag2
(g3
g4
NtRp140
(dp141
g7
Nsg8
Nsg9
V\u61b2\u6cd5\u8a18\u5ff5\u65e5
p142
sg11
Nsg12
I1973
sg13
I5
sg14
Nsg15
Nsg16
I3
sbag2
(g3
g4
NtRp143
(dp144
g7
Nsg8
Nsg9
V\u3053\u3069\u3082\u306e\u65e5
p145
sg11
Nsg12
I1973
sg13
I5
sg14
Nsg15
Nsg16
I5
sbag2
(g3
g4
NtRp146
(dp147
g7
Nsg8
Nsg9
V\u656c\u8001\u306e\u65e5
p148
sg11
Nsg12
I1973
sg13
I9
sg14
Nsg15
Nsg16
I15
sbag2
(g3
g4
NtRp149
(dp150
g7
Nsg8
Nsg9
V\u79cb\u5206\u306e\u65e5
p151
sg11
Nsg12
I1973
sg13
I9
sg14
Nsg15
Nsg16
I23
sbag2
(g3
g4
NtRp152
(dp153
g7
Nsg8
Nsg9
V\u632f\u66ff\u4f11\u65e5
p154
sg11
Nsg12
I1973
sg13
I9
sg14
Nsg15
Nsg16
I24
sbag2
(g3
g4
NtRp155
(dp156
g7
Nsg8
Nsg9
V\u4f53\u80b2\u306e\u65e5
p157
sg11
Nsg12
I1973
sg13
I10
sg14
Nsg15
Nsg16
I10
sbag2
(g3
g4
NtRp158
(dp159
g7
Nsg8
Nsg9
V\u6587\u5316\u306e\u65e5
p160
sg11
Nsg12
I1973
sg13
I11
sg14
Nsg15
Nsg16
I3
sbag2
(g3
g4
NtRp161
(dp162
g7
Nsg8
Nsg9
V\u52e4\u52b4\u611f\u8b1d\u306e\u65e5
p163
sg11
Nsg12
I1973
sg13
I11
sg14
Nsg15
Nsg16
I23
sbag2
(g3
g4
NtRp164
(dp165
g7
Nsg8
Nsg9
V\u5143\u65e5
p166
sg11
Nsg12
I1974
sg13
I1
sg14
Nsg15
Nsg16
I1
sbag2
(g3
g4
NtRp167
(dp168
g7
Nsg8
Nsg9
V\u6210\u4eba\u306e\u65e5
p169
sg11
Nsg12
I1974
sg13
I1
sg14
Nsg15
Nsg16
I15
sbag2
(g3
g4
NtRp170
(dp171
g7
Nsg8
Nsg9
V\u5efa\u56fd\u8a18\u5ff5\u306e\u65e5
p172
sg11
Nsg12
I1974
sg13
I2
sg14
Nsg15
Nsg16
I11
sbag2
(g3
g4
NtRp173
(dp174
g7
Nsg8
Nsg9
V\u6625\u5206\u306e\u65e5
p175
sg11
Nsg12
I1974
sg13
I3
sg14
Nsg15
Nsg16
I21
sbag2
(g3
g4
NtRp176
(dp177
g7
Nsg8
Nsg9
V\u5929\u7687\u8a95\u751f\u65e5
p178
sg11
Nsg12
I1974
sg13
I4
sg14
Nsg15
Nsg16
I29
sbag2
(g3
g4
NtRp179
(dp180
g7
Nsg8
Nsg9
V\u61b2\u6cd5\u8a18\u5ff5\u65e5
p181
sg11
Nsg12
I1974
sg13
I5
sg14
Nsg15
Nsg16
I3
sbag2
(g3
g4
NtRp182
(dp183
g7
Nsg8
Nsg9
V\u3053\u3069\u3082\u306e\u65e5
p184
sg11
Nsg12
I1974
sg13
I5
sg14
Nsg15
Nsg16
I5
sbag2
(g3
g4
NtRp185
(dp186
g7
Nsg8
Nsg9
V\u632f\u66ff\u4f11\u65e5
p187
sg11
Nsg12
I1974
sg13
I5
sg14
Nsg15
Nsg16
I6
sbag2
(g3
g4
NtRp188
(dp189
g7
Nsg8
Nsg9
V\u656c\u8001\u306e\u65e5
p190
sg11
Nsg12
I1974
sg13
I9
sg14
Nsg15
Nsg16
I15
sbag2
(g3
g4
NtRp191
(dp192
g7
Nsg8
Nsg9
V\u632f\u66ff\u4f11\u65e5
p193
sg11
Nsg12
I1974
sg13
I9
sg14
Nsg15
Nsg16
I16
sbag2
(g3
g4
NtRp194
(dp195
g7
Nsg8
Nsg9
V\u79cb\u5206\u306e\u65e5
p196
sg11
Nsg12
I1974
sg13
I9
sg14
Nsg15
Nsg16
I23
sbag2
(g3
g4
NtRp197
(dp198
g7
Nsg8
Nsg9
V\u4f53\u80b2\u306e\u65e5
p199
sg11
Nsg12
I1974
sg13
I10
sg14
Nsg15
Nsg16
I10
sbag2
(g3
g4
NtRp200
(dp201
g7
Nsg8
Nsg9
V\u6587\u5316\u306e\u65e5
p202
sg11
Nsg12
I1974
sg13
I11
sg14
Nsg15
Nsg16
I3
sbag2
(g3
g4
NtRp203
(dp204
g7
Nsg8
Nsg9
V\u632f\u66ff\u4f11\u65e5
p205
sg11
Nsg12
I1974
sg13
I11
sg14
Nsg15
Nsg16
I4
sbag2
(g3
g4
NtRp206
(dp207
g7
Nsg8
Nsg9
V\u52e4\u52b4\u611f\u8b1d\u306e\u65e5
p208
sg11
Nsg12
I1974
sg13
I11
sg14
Nsg15
Nsg16
I23
sbag2
(g3
g4
NtRp209
(dp210
g7
Nsg8
Nsg9
V\u5143\u65e5
p211
sg11
Nsg12
I1975
sg13
I1
sg14
Nsg15
Nsg16
I1
sbag2
(g3
g4
NtRp212
(dp213
g7
Nsg8
Nsg9
V\u6210\u4eba\u306e\u65e5
p214
sg11
Nsg12
I1975
sg13
I1
sg14
Nsg15
Nsg16
I15
sbag2
(g3
g4
NtRp215
(dp216
g7
Nsg8
Nsg9
V\u5efa\u56fd\u8a18\u5ff5\u306e\u65e5
p217
sg11
Nsg12
I1975
sg13
I2
sg14
Nsg15
Nsg16
I11
sbag2
(g3
g4
NtRp218
(dp219
g7
Nsg8
Nsg9
V\u6625\u5206\u306e\u65e5
p220
sg11
Nsg12
I1975
sg13
I3
sg14
Nsg15
Nsg16
I21
sbag2
(g3
g4
NtRp221
(dp222
g7
Nsg8
Nsg9
V\u5929\u7687\u8a95\u751f\u65e5
p223
sg11
Nsg12
I1975
sg13
I4
sg14
Nsg15
Nsg16
I29
sbag2
(g3
g4
NtRp224
(dp225
g7
Nsg8
Nsg9
V\u61b2\u6cd5\u8a18\u5ff5\u65e5
p226
sg11
Nsg12
I1975
sg13
I5
sg14
Nsg15
Nsg16
I3
sbag2
(g3
g4
NtRp227
(dp228
g7
Nsg8
Nsg9
V\u3053\u3069\u3082\u306e\u65e5
p229
sg11
Nsg12
I1975
sg13
I5
sg14
Nsg15
Nsg16
I5
sbag2
(g3
g4
NtRp230
(dp231
g7
Nsg8
Nsg9
V\u656c\u8001\u306e\u65e5
p232
sg11
Nsg12
I1975
sg13
I9
sg14
Nsg15
Nsg16
I15
sbag2
(g3
g4
NtRp233
(dp234
g7
Nsg8
Nsg9
V\u79cb\u5206\u306e\u65e5
p235
sg11
Nsg12
I1975
sg13
I9
sg14
Nsg15
Nsg16
I24
sbag2
(g3
g4
NtRp236
(dp237
g7
Nsg8
Nsg9
V\u4f53\u80b2\u306e\u65e5
p238
sg11
Nsg12
I1975
sg13
I10
sg14
Nsg15
Nsg16
I10
sbag2
(g3
g4
NtRp239
(dp240
g7
Nsg8
Nsg9
V\u6587\u5316\u306e\u65e5
p241
sg11
Nsg12
I1975
sg13
I11
sg14
Nsg15
Nsg16
I3
sbag2
(g3
g4
NtRp242
(dp243
g7
Nsg8
Nsg9
V\u52e4\u52b4\u611f\u8b1d\u306e\u65e5
p244
sg11
Nsg12
I1975
sg13
I11
sg14
Nsg15
Nsg16
I23
sbag2
(g3
g4
NtRp245
(dp246
g7
Nsg8
Nsg9
V\u632f\u66ff\u4f11\u65e5
p247
sg11
Nsg12
I1975
sg13
I11
sg14
Nsg15
Nsg16
I24
sbag2
(g3
g4
NtRp248
(dp249
g7
Nsg8
Nsg9
V\u5143\u65e5
p250
sg11
Nsg12
I1976
sg13
I1
sg14
Nsg15
Nsg16
I1
sbag2
(g3
g4
NtRp251
(dp252
g7
Nsg8
Nsg9
V\u6210\u4eba\u306e\u65e5
p253
sg11
Nsg12
I1976
sg13
I1
sg14
Nsg15
Nsg16
I15
sbag2
(g3
g4
NtRp254
(dp255
g7
Nsg8
Nsg9
V\u5efa\u56fd\u8a18\u5ff5\u306e\u65e5
p256
sg11
Nsg12
I1976
sg13
I2
sg14
Nsg15
Nsg16
I11
sbag2
(g3
g4
NtRp257
(dp258
g7
Nsg8
Nsg9
V\u6625\u5206\u306e\u65e5
p259
sg11
Nsg12
I1976
sg13
I3
sg14
Nsg15
Nsg16
I20
sbag2
(g3
g4
NtRp260
(dp261
g7
Nsg8
Nsg9
V\u5929\u7687\u8a95\u751f\u65e5
p262
sg11
Nsg12
I1976
sg13
I4
sg14
Nsg15
Nsg16
I29
sbag2
(g3
g4
NtRp263
(dp264
g7
Nsg8
Nsg9
V\u61b2\u6cd5\u8a18\u5ff5\u65e5
p265
sg11
Nsg12
I1976
sg13
I5
sg14
Nsg15
Nsg16
I3
sbag2
(g3
g4
NtRp266
(dp267
g7
Nsg8
Nsg9
V\u3053\u3069\u3082\u306e\u65e5
p268
sg11
Nsg12
I1976
sg13
I5
sg14
Nsg15
Nsg16
I5
sbag2
(g3
g4
NtRp269
(dp270
g7
Nsg8
Nsg9
V\u656c\u8001\u306e\u65e5
p271
sg11
Nsg12
I1976
sg13
I9
sg14
Nsg15
Nsg16
I15
sbag2
(g3
g4
NtRp272
(dp273
g7
Nsg8
Nsg9
V\u79cb\u5206\u306e\u65e5
p274
sg11
Nsg12
I1976
sg13
I9
sg14
Nsg15
Nsg16
I23
sbag2
(g3
g4
NtRp275
(dp276
g7
Nsg8
Nsg9
V\u4f53\u80b2\u306e\u65e5
p277
sg11
Nsg12
I1976
sg13
I10
sg14
Nsg15
Nsg16
I10
sbag2
(g3
g4
NtRp278
(dp279
g7
Nsg8
Nsg9
V\u632f\u66ff\u4f11\u65e5
p280
sg11
Nsg12
I1976
sg13
I10
sg14
Nsg15
Nsg16
I11
sbag2
(g3
g4
NtRp281
(dp282
g7
Nsg8
Nsg9
V\u6587\u5316\u306e\u65e5
p283
sg11
Nsg12
I1976
sg13
I11
sg14
Nsg15
Nsg16
I3
sbag2
(g3
g4
NtRp284
(dp285
g7
Nsg8
Nsg9
V\u52e4\u52b4\u611f\u8b1d\u306e\u65e5
p286
sg11
Nsg12
I1976
sg13
I11
sg14
Nsg15
Nsg16
I23
sbag2
(g3
g4
NtRp287
(dp288
g7
Nsg8
Nsg9
V\u5143\u65e5
p289
sg11
Nsg12
I1977
sg13
I1
sg14
Nsg15
Nsg16
I1
sbag2
(g3
g4
NtRp290
(dp291
g7
Nsg8
Nsg9
V\u6210\u4eba\u306e\u65e5
p292
sg11
Nsg12
I1977
sg13
I1
sg14
Nsg15
Nsg16
I15
sbag2
(g3
g4
NtRp293
(dp294
g7
Nsg8
Nsg9
V\u5efa\u56fd\u8a18\u5ff5\u306e\u65e5
p295
sg11
Nsg12
I1977
sg13
I2
sg14
Nsg15
Nsg16
I11
sbag2
(g3
g4
NtRp296
(dp297
g7
Nsg8
Nsg9
V\u6625\u5206\u306e\u65e5
p298
sg11
Nsg12
I1977
sg13
I3
sg14
Nsg15
Nsg16
I21
sbag2
(g3
g4
NtRp299
(dp300
g7
Nsg8
Nsg9
V\u5929\u7687\u8a95\u751f\u65e5
p301
sg11
Nsg12
I1977
sg13
I4
sg14
Nsg15
Nsg16
I29
sbag2
(g3
g4
NtRp302
(dp303
g7
Nsg8
Nsg9
V\u61b2\u6cd5\u8a18\u5ff5\u65e5
p304
sg11
Nsg12
I1977
sg13
I5
sg14
Nsg15
Nsg16
I3
sbag2
(g3
g4
NtRp305
(dp306
g7
Nsg8
Nsg9
V\u3053\u3069\u3082\u306e\u65e5
p307
sg11
Nsg12
I1977
sg13
I5
sg14
Nsg15
Nsg16
I5
sbag2
(g3
g4
NtRp308
(dp309
g7
Nsg8
Nsg9
V\u656c\u8001\u306e\u65e5
p310
sg11
Nsg12
I1977
sg13
I9
sg14
Nsg15
Nsg16
I15
sbag2
(g3
g4
NtRp311
(dp312
g7
Nsg8
Nsg9
V\u79cb\u5206\u306e\u65e5
p313
sg11
Nsg12
I1977
sg13
I9
sg14
Nsg15
Nsg16
I23
sbag2
(g3
g4
NtRp314
(dp315
g7
Nsg8
Nsg9
V\u4f53\u80b2\u306e\u65e5
p316
sg11
Nsg12
I1977
sg13
I10
sg14
Nsg15
Nsg16
I10
sbag2
(g3
g4
NtRp317
(dp318
g7
Nsg8
Nsg9
V\u6587\u5316\u306e\u65e5
p319
sg11
Nsg12
I1977
sg13
I11
sg14
Nsg15
Nsg16
I3
sbag2
(g3
g4
NtRp320
(dp321
g7
Nsg8
Nsg9
V\u52e4\u52b4\u611f\u8b1d\u306e\u65e5
p322
sg11
Nsg12
I1977
sg13
I11
sg14
Nsg15
Nsg16
I23
sbag2
(g3
g4
NtRp323
(dp324
g7
Nsg8
Nsg9
V\u5143\u65e5
p325
sg11
Nsg12
I1978
sg13
I1
sg14
Nsg15
Nsg16
I1
sbag2
(g3
g4
NtRp326
(dp327
g7
Nsg8
Nsg9
V\u632f\u66ff\u4f11\u65e5
p328
sg11
Nsg12
I1978
sg13
I1
sg14
Nsg15
Nsg16
I2
sbag2
(g3
g4
NtRp329
(dp330
g7
Nsg8
Nsg9
V\u6210\u4eba\u306e\u65e5
p331
sg11
Nsg12
I1978
sg13
I1
sg14
Nsg15
Nsg16
I15
sbag2
(g3
g4
NtRp332
(dp333
g7
Nsg8
Nsg9
V\u632f\u66ff\u4f11\u65e5
p334
sg11
Nsg12
I1978
sg13
I1
sg14
Nsg15
Nsg16
I16
sbag2
(g3
g4
NtRp335
(dp336
g7
Nsg8
Nsg9
V\u5efa\u56fd\u8a18\u5ff5\u306e\u65e5
p337
sg11
Nsg12
I1978
sg13
I2
sg14
Nsg15
Nsg16
I11
sbag2
(g3
g4
NtRp338
(dp339
g7
Nsg8
Nsg9
V\u6625\u5206\u306e\u65e5
p340
sg11
Nsg12
I1978
sg13
I3
sg14
Nsg15
Nsg16
I21
sbag2
(g3
g4
NtRp341
(dp342
g7
Nsg8
Nsg9
V\u5929\u7687\u8a95\u751f\u65e5
p343
sg11
Nsg12
I1978
sg13
I4
sg14
Nsg15
Nsg16
I29
sbag2
(g3
g4
NtRp344
(dp345
g7
Nsg8
Nsg9
V\u61b2\u6cd5\u8a18\u5ff5\u65e5
p346
sg11
Nsg12
I1978
sg13
I5
sg14
Nsg15
Nsg16
I3
sbag2
(g3
g4
NtRp347
(dp348
g7
Nsg8
Nsg9
V\u3053\u3069\u3082\u306e\u65e5
p349
sg11
Nsg12
I1978
sg13
I5
sg14
Nsg15
Nsg16
I5
sbag2
(g3
g4
NtRp350
(dp351
g7
Nsg8
Nsg9
V\u656c\u8001\u306e\u65e5
p352
sg11
Nsg12
I1978
sg13
I9
sg14
Nsg15
Nsg16
I15
sbag2
(g3
g4
NtRp353
(dp354
g7
Nsg8
Nsg9
V\u79cb\u5206\u306e\u65e5
p355
sg11
Nsg12
I1978
sg13
I9
sg14
Nsg15
Nsg16
I23
sbag2
(g3
g4
NtRp356
(dp357
g7
Nsg8
Nsg9
V\u4f53\u80b2\u306e\u65e5
p358
sg11
Nsg12
I1978
sg13
I10
sg14
Nsg15
Nsg16
I10
sbag2
(g3
g4
NtRp359
(dp360
g7
Nsg8
Nsg9
V\u6587\u5316\u306e\u65e5
p361
sg11
Nsg12
I1978
sg13
I11
sg14
Nsg15
Nsg16
I3
sbag2
(g3
g4
NtRp362
(dp363
g7
Nsg8
Nsg9
V\u52e4\u52b4\u611f\u8b1d\u306e\u65e5
p364
sg11
Nsg12
I1978
sg13
I11
sg14
Nsg15
Nsg16
I23
sbag2
(g3
g4
NtRp365
(dp366
g7
Nsg8
Nsg9
V\u5143\u65e5
p367
sg11
Nsg12
I1979
sg13
I1
sg14
Nsg15
Nsg16
I1
sbag2
(g3
g4
NtRp368
(dp369
g7
Nsg8
Nsg9
V\u6210\u4eba\u306e\u65e5
p370
sg11
Nsg12
I1979
sg13
I1
sg14
Nsg15
Nsg16
I15
sbag2
(g3
g4
NtRp371
(dp372
g7
Nsg8
Nsg9
V\u5efa\u56fd\u8a18\u5ff5\u306e\u65e5
p373
sg11
Nsg12
I1979
sg13
I2
sg14
Nsg15
Nsg16
I11
sbag2
(g3
g4
NtRp374
(dp375
g7
Nsg8
Nsg9
V\u632f\u66ff\u4f11\u65e5
p376
sg11
Nsg12
I1979
sg13
I2
sg14
Nsg15
Nsg16
I12
sbag2
(g3
g4
NtRp377
(dp378
g7
Nsg8
Nsg9
V\u6625\u5206\u306e\u65e5
p379
sg11
Nsg12
I1979
sg13
I3
sg14
Nsg15
Nsg16
I21
sbag2
(g3
g4
NtRp380
(dp381
g7
Nsg8
Nsg9
V\u5929\u7687\u8a95\u751f\u65e5
p382
sg11
Nsg12
I1979
sg13
I4
sg14
Nsg15
Nsg16
I29
sbag2
(g3
g4
NtRp383
(dp384
g7
Nsg8
Nsg9
V\u632f\u66ff\u4f11\u65e5
p385
sg11
Nsg12
I1979
sg13
I4
sg14
Nsg15
Nsg16
I30
sbag2
(g3
g4
NtRp386
(dp387
g7
Nsg8
Nsg9
V\u61b2\u6cd5\u8a18\u5ff5\u65e5
p388
sg11
Nsg12
I1979
sg13
I5
sg14
Nsg15
Nsg16
I3
sbag2
(g3
g4
NtRp389
(dp390
g7
Nsg8
Nsg9
V\u3053\u3069\u3082\u306e\u65e5
p391
sg11
Nsg12
I1979
sg13
I5
sg14
Nsg15
Nsg16
I5
sbag2
(g3
g4
NtRp392
(dp393
g7
Nsg8
Nsg9
V\u656c\u8001\u306e\u65e5
p394
sg11
Nsg12
I1979
sg13
I9
sg14
Nsg15
Nsg16
I15
sbag2
(g3
g4
NtRp395
(dp396
g7
Nsg8
Nsg9
V\u79cb\u5206\u306e\u65e5
p397
sg11
Nsg12
I1979
sg13
I9
sg14
Nsg15
Nsg16
I24
sbag2
(g3
g4
NtRp398
(dp399
g7
Nsg8
Nsg9
V\u4f53\u80b2\u306e\u65e5
p400
sg11
Nsg12
I1979
sg13
I10
sg14
Nsg15
Nsg16
I10
sbag2
(g3
g4
NtRp401
(dp402
g7
Nsg8
Nsg9
V\u6587\u5316\u306e\u65e5
p403
sg11
Nsg12
I1979
sg13
I11
sg14
Nsg15
Nsg16
I3
sbag2
(g3
g4
NtRp404
(dp405
g7
Nsg8
Nsg9
V\u52e4\u52b4\u611f\u8b1d\u306e\u65e5
p406
sg11
Nsg12
I1979
sg13
I11
sg14
Nsg15
Nsg16
I23
sbag2
(g3
g4
NtRp407
(dp408
g7
Nsg8
Nsg9
V\u5143\u65e5
p409
sg11
Nsg12
I1980
sg13
I1
sg14
Nsg15
Nsg16
I1
sbag2
(g3
g4
NtRp410
(dp411
g7
Nsg8
Nsg9
V\u6210\u4eba\u306e\u65e5
p412
sg11
Nsg12
I1980
sg13
I1
sg14
Nsg15
Nsg16
I15
sbag2
(g3
g4
NtRp413
(dp414
g7
Nsg8
Nsg9
V\u5efa\u56fd\u8a18\u5ff5\u306e\u65e5
p415
sg11
Nsg12
I1980
sg13
I2
sg14
Nsg15
Nsg16
I11
sbag2
(g3
g4
NtRp416
(dp417
g7
Nsg8
Nsg9
V\u6625\u5206\u306e\u65e5
p418
sg11
Nsg12
I1980
sg13
I3
sg14
Nsg15
Nsg16
I20
sbag2
(g3
g4
NtRp419
(dp420
g7
Nsg8
Nsg9
V\u5929\u7687\u8a95\u751f\u65e5
p421
sg11
Nsg12
I1980
sg13
I4
sg14
Nsg15
Nsg16
I29
sbag2
(g3
g4
NtRp422
(dp423
g7
Nsg8
Nsg9
V\u61b2\u6cd5\u8a18\u5ff5\u65e5
p424
sg11
Nsg12
I1980
sg13
I5
sg14
Nsg15
Nsg16
I3
sbag2
(g3
g4
NtRp425
(dp426
g7
Nsg8
Nsg9
V\u3053\u3069\u3082\u306e\u65e5
p427
sg11
Nsg12
I1980
sg13
I5
sg14
Nsg15
Nsg16
I5
sbag2
(g3
g4
NtRp428
(dp429
g7
Nsg8
Nsg9
V\u656c\u8001\u306e\u65e5
p430
sg11
Nsg12
I1980
sg13
I9
sg14
Nsg15
Nsg16
I15
sbag2
(g3
g4
NtRp431
(dp432
g7
Nsg8
Nsg9
V\u79cb\u5206\u306e\u65e5
p433
sg11
Nsg12
I1980
sg13
I9
sg14
Nsg15
Nsg16
I23
sbag2
(g3
g4
NtRp434
(dp435
g7
Nsg8
Nsg9
V\u4f53\u80b2\u306e\u65e5
p436
sg11
Nsg12
I1980
sg13
I10
sg14
Nsg15
Nsg16
I10
sbag2
(g3
g4
NtRp437
(dp438
g7
Nsg8
Nsg9
V\u6587\u5316\u306e\u65e5
p439
sg11
Nsg12
I1980
sg13
I11
sg14
Nsg15
Nsg16
I3
sbag2
(g3
g4
NtRp440
(dp441
g7
Nsg8
Nsg9
V\u52e4\u52b4\u611f\u8b1d\u306e\u65e5
p442
sg11
Nsg12
I1980
sg13
I11
sg14
Nsg15
Nsg16
I23
sbag2
(g3
g4
NtRp443
(dp444
g7
Nsg8
Nsg9
V\u632f\u66ff\u4f11\u65e5
p445
sg11
Nsg12
I1980
sg13
I11
sg14
Nsg15
Nsg16
I24
sbag2
(g3
g4
NtRp446
(dp447
g7
Nsg8
Nsg9
V\u5143\u65e5
p448
sg11
Nsg12
I1981
sg13
I1
sg14
Nsg15
Nsg16
I1
sbag2
(g3
g4
NtRp449
(dp450
g7
Nsg8
Nsg9
V\u6210\u4eba\u306e\u65e5
p451
sg11
Nsg12
I1981
sg13
I1
sg14
Nsg15
Nsg16
I15
sbag2
(g3
g4
NtRp452
(dp453
g7
Nsg8
Nsg9
V\u5efa\u56fd\u8a18\u5ff5\u306e\u65e5
p454
sg11
Nsg12
I1981
sg13
I2
sg14
Nsg15
Nsg16
I11
sbag2
(g3
g4
NtRp455
(dp456
g7
Nsg8
Nsg9
V\u6625\u5206\u306e\u65e5
p457
sg11
Nsg12
I1981
sg13
I3
sg14
Nsg15
Nsg16
I21
sbag2
(g3
g4
NtRp458
(dp459
g7
Nsg8
Nsg9
V\u5929\u7687\u8a95\u751f\u65e5
p460
sg11
Nsg12
I1981
sg13
I4
sg14
Nsg15
Nsg16
I29
sbag2
(g3
g4
NtRp461
(dp462
g7
Nsg8
Nsg9
V\u61b2\u6cd5\u8a18\u5ff5\u65e5
p463
sg11
Nsg12
I1981
sg13
I5
sg14
Nsg15
Nsg16
I3
sbag2
(g3
g4
NtRp464
(dp465
g7
Nsg8
Nsg9
V\u632f\u66ff\u4f11\u65e5
p466
sg11
Nsg12
I1981
sg13
I5
sg14
Nsg15
Nsg16
I4
sbag2
(g3
g4
NtRp467
(dp468
g7
Nsg8
Nsg9
V\u3053\u3069\u3082\u306e\u65e5
p469
sg11
Nsg12
I1981
sg13
I5
sg14
Nsg15
Nsg16
I5
sbag2
(g3
g4
NtRp470
(dp471
g7
Nsg8
Nsg9
V\u656c\u8001\u306e\u65e5
p472
sg11
Nsg12
I1981
sg13
I9
sg14
Nsg15
Nsg16
I15
sbag2
(g3
g4
NtRp473
(dp474
g7
Nsg8
Nsg9
V\u79cb\u5206\u306e\u65e5
p475
sg11
Nsg12
I1981
sg13
I9
sg14
Nsg15
Nsg16
I23
sbag2
(g3
g4
NtRp476
(dp477
g7
Nsg8
Nsg9
V\u4f53\u80b2\u306e\u65e5
p478
sg11
Nsg12
I1981
sg13
I10
sg14
Nsg15
Nsg16
I10
sbag2
(g3
g4
NtRp479
(dp480
g7
Nsg8
Nsg9
V\u6587\u5316\u306e\u65e5
p481
sg11
Nsg12
I1981
sg13
I11
sg14
Nsg15
Nsg16
I3
sbag2
(g3
g4
NtRp482
(dp483
g7
Nsg8
Nsg9
V\u52e4\u52b4\u611f\u8b1d\u306e\u65e5
p484
sg11
Nsg12
I1981
sg13
I11
sg14
Nsg15
Nsg16
I23
sbag2
(g3
g4
NtRp485
(dp486
g7
Nsg8
Nsg9
V\u5143\u65e5
p487
sg11
Nsg12
I1982
sg13
I1
sg14
Nsg15
Nsg16
I1
sbag2
(g3
g4
NtRp488
(dp489
g7
Nsg8
Nsg9
V\u6210\u4eba\u306e\u65e5
p490
sg11
Nsg12
I1982
sg13
I1
sg14
Nsg15
Nsg16
I15
sbag2
(g3
g4
NtRp491
(dp492
g7
Nsg8
Nsg9
V\u5efa\u56fd\u8a18\u5ff5\u306e\u65e5
p493
sg11
Nsg12
I1982
sg13
I2
sg14
Nsg15
Nsg16
I11
sbag2
(g3
g4
NtRp494
(dp495
g7
Nsg8
Nsg9
V\u6625\u5206\u306e\u65e5
p496
sg11
Nsg12
I1982
sg13
I3
sg14
Nsg15
Nsg16
I21
sbag2
(g3
g4
NtRp497
(dp498
g7
Nsg8
Nsg9
V\u632f\u66ff\u4f11\u65e5
p499
sg11
Nsg12
I1982
sg13
I3
sg14
Nsg15
Nsg16
I22
sbag2
(g3
g4
NtRp500
(dp501
g7
Nsg8
Nsg9
V\u5929\u7687\u8a95\u751f\u65e5
p502
sg11
Nsg12
I1982
sg13
I4
sg14
Nsg15
Nsg16
I29
sbag2
(g3
g4
NtRp503
(dp504
g7
Nsg8
Nsg9
V\u61b2\u6cd5\u8a18\u5ff5\u65e5
p505
sg11
Nsg12
I1982
sg13
I5
sg14
Nsg15
Nsg16
I3
sbag2
(g3
g4
NtRp506
(dp507
g7
Nsg8
Nsg9
V\u3053\u3069\u3082\u306e\u65e5
p508
sg11
Nsg12
I1982
sg13
I5
sg14
Nsg15
Nsg16
I5
sbag2
(g3
g4
NtRp509
(dp510
g7
Nsg8
Nsg9
V\u656c\u8001\u306e\u65e5
p511
sg11
Nsg12
I1982
sg13
I9
sg14
Nsg15
Nsg16
I15
sbag2
(g3
g4
NtRp512
(dp513
g7
Nsg8
Nsg9
V\u79cb\u5206\u306e\u65e5
p514
sg11
Nsg12
I1982
sg13
I9
sg14
Nsg15
Nsg16
I23
sbag2
(g3
g4
NtRp515
(dp516
g7
Nsg8
Nsg9
V\u4f53\u80b2\u306e\u65e5
p517
sg11
Nsg12
I1982
sg13
I10
sg14
Nsg15
Nsg16
I10
sbag2
(g3
g4
NtRp518
(dp519
g7
Nsg8
Nsg9
V\u632f\u66ff\u4f11\u65e5
p520
sg11
Nsg12
I1982
sg13
I10
sg14
Nsg15
Nsg16
I11
sbag2
(g3
g4
NtRp521
(dp522
g7
Nsg8
Nsg9
V\u6587\u5316\u306e\u65e5
p523
sg11
Nsg12
I1982
sg13
I11
sg14
Nsg15
Nsg16
I3
sbag2
(g3
g4
NtRp524
(dp525
g7
Nsg8
Nsg9
V\u52e4\u52b4\u611f\u8b1d\u306e\u65e5
p526
sg11
Nsg12
I1982
sg13
I11
sg14
Nsg15
Nsg16
I23
sbag2
(g3
g4
NtRp527
(dp528
g7
Nsg8
Nsg9
V\u5143\u65e5
p529
sg11
Nsg12
I1983
sg13
I1
sg14
Nsg15
Nsg16
I1
sbag2
(g3
g4
NtRp530
(dp531
g7
Nsg8
Nsg9
V\u6210\u4eba\u306e\u65e5
p532
sg11
Nsg12
I1983
sg13
I1
sg14
Nsg15
Nsg16
I15
sbag2
(g3
g4
NtRp533
(dp534
g7
Nsg8
Nsg9
V\u5efa\u56fd\u8a18\u5ff5\u306e\u65e5
p535
sg11
Nsg12
I1983
sg13
I2
sg14
Nsg15
Nsg16
I11
sbag2
(g3
g4
NtRp536
(dp537
g7
Nsg8
Nsg9
V\u6625\u5206\u306e\u65e5
p538
sg11
Nsg12
I1983
sg13
I3
sg14
Nsg15
Nsg16
I21
sbag2
(g3
g4
NtRp539
(dp540
g7
Nsg8
Nsg9
V\u5929\u7687\u8a95\u751f\u65e5
p541
sg11
Nsg12
I1983
sg13
I4
sg14
Nsg15
Nsg16
I29
sbag2
(g3
g4
NtRp542
(dp543
g7
Nsg8
Nsg9
V\u61b2\u6cd5\u8a18\u5ff5\u65e5
p544
sg11
Nsg12
I1983
sg13
I5
sg14
Nsg15
Nsg16
I3
sbag2
(g3
g4
NtRp545
(dp546
g7
Nsg8
Nsg9
V\u3053\u3069\u3082\u306e\u65e5
p547
sg11
Nsg12
I1983
sg13
I5
sg14
Nsg15
Nsg16
I5
sbag2
(g3
g4
NtRp548
(dp549
g7
Nsg8
Nsg9
V\u656c\u8001\u306e\u65e5
p550
sg11
Nsg12
I1983
sg13
I9
sg14
Nsg15
Nsg16
I15
sbag2
(g3
g4
NtRp551
(dp552
g7
Nsg8
Nsg9
V\u79cb\u5206\u306e\u65e5
p553
sg11
Nsg12
I1983
sg13
I9
sg14
Nsg15
Nsg16
I23
sbag2
(g3
g4
NtRp554
(dp555
g7
Nsg8
Nsg9
V\u4f53\u80b2\u306e\u65e5
p556
sg11
Nsg12
I1983
sg13
I10
sg14
Nsg15
Nsg16
I10
sbag2
(g3
g4
NtRp557
(dp558
g7
Nsg8
Nsg9
V\u6587\u5316\u306e\u65e5
p559
sg11
Nsg12
I1983
sg13
I11
sg14
Nsg15
Nsg16
I3
sbag2
(g3
g4
NtRp560
(dp561
g7
Nsg8
Nsg9
V\u52e4\u52b4\u611f\u8b1d\u306e\u65e5
p562
sg11
Nsg12
I1983
sg13
I11
sg14
Nsg15
Nsg16
I23
sbag2
(g3
g4
NtRp563
(dp564
g7
Nsg8
Nsg9
V\u5143\u65e5
p565
sg11
Nsg12
I1984
sg13
I1
sg14
Nsg15
Nsg16
I1
sbag2
(g3
g4
NtRp566
(dp567
g7
Nsg8
Nsg9
V\u632f\u66ff\u4f11\u65e5
p568
sg11
Nsg12
I1984
sg13
I1
sg14
Nsg15
Nsg16
I2
sbag2
(g3
g4
NtRp569
(dp570
g7
Nsg8
Nsg9
V\u6210\u4eba\u306e\u65e5
p571
sg11
Nsg12
I1984
sg13
I1
sg14
Nsg15
Nsg16
I15
sbag2
(g3
g4
NtRp572
(dp573
g7
Nsg8
Nsg9
V\u632f\u66ff\u4f11\u65e5
p574
sg11
Nsg12
I1984
sg13
I1
sg14
Nsg15
Nsg16
I16
sbag2
(g3
g4
NtRp575
(dp576
g7
Nsg8
Nsg9
V\u5efa\u56fd\u8a18\u5ff5\u306e\u65e5
p577
sg11
Nsg12
I1984
sg13
I2
sg14
Nsg15
Nsg16
I11
sbag2
(g3
g4
NtRp578
(dp579
g7
Nsg8
Nsg9
V\u6625\u5206\u306e\u65e5
p580
sg11
Nsg12
I1984
sg13
I3
sg14
Nsg15
Nsg16
I20
sbag2
(g3
g4
NtRp581
(dp582
g7
Nsg8
Nsg9
V\u5929\u7687\u8a95\u751f\u65e5
p583
sg11
Nsg12
I1984
sg13
I4
sg14
Nsg15
Nsg16
I29
sbag2
(g3
g4
NtRp584
(dp585
g7
Nsg8
Nsg9
V\u632f\u66ff\u4f11\u65e5
p586
sg11
Nsg12
I1984
sg13
I4
sg14
Nsg15
Nsg16
I30
sbag2
(g3
g4
NtRp587
(dp588
g7
Nsg8
Nsg9
V\u61b2\u6cd5\u8a18\u5ff5\u65e5
p589
sg11
Nsg12
I1984
sg13
I5
sg14
Nsg15
Nsg16
I3
sbag2
(g3
g4
NtRp590
(dp591
g7
Nsg8
Nsg9
V\u3053\u3069\u3082\u306e\u65e5
p592
sg11
Nsg12
I1984
sg13
I5
sg14
Nsg15
Nsg16
I5
sbag2
(g3
g4
NtRp593
(dp594
g7
Nsg8
Nsg9
V\u656c\u8001\u306e\u65e5
p595
sg11
Nsg12
I1984
sg13
I9
sg14
Nsg15
Nsg16
I15
sbag2
(g3
g4
NtRp596
(dp597
g7
Nsg8
Nsg9
V\u79cb\u5206\u306e\u65e5
p598
sg11
Nsg12
I1984
sg13
I9
sg14
Nsg15
Nsg16
I23
sbag2
(g3
g4
NtRp599
(dp600
g7
Nsg8
Nsg9
V\u632f\u66ff\u4f11\u65e5
p601
sg11
Nsg12
I1984
sg13
I9
sg14
Nsg15
Nsg16
I24
sbag2
(g3
g4
NtRp602
(dp603
g7
Nsg8
Nsg9
V\u4f53\u80b2\u306e\u65e5
p604
sg11
Nsg12
I1984
sg13
I10
sg14
Nsg15
Nsg16
I10
sbag2
(g3
g4
NtRp605
(dp606
g7
Nsg8
Nsg9
V\u6587\u5316\u306e\u65e5
p607
sg11
Nsg12
I1984
sg13
I11
sg14
Nsg15
Nsg16
I3
sbag2
(g3
g4
NtRp608
(dp609
g7
Nsg8
Nsg9
V\u52e4\u52b4\u611f\u8b1d\u306e\u65e5
p610
sg11
Nsg12
I1984
sg13
I11
sg14
Nsg15
Nsg16
I23
sbag2
(g3
g4
NtRp611
(dp612
g7
Nsg8
Nsg9
V\u5143\u65e5
p613
sg11
Nsg12
I1985
sg13
I1
sg14
Nsg15
Nsg16
I1
sbag2
(g3
g4
NtRp614
(dp615
g7
Nsg8
Nsg9
V\u6210\u4eba\u306e\u65e5
p616
sg11
Nsg12
I1985
sg13
I1
sg14
Nsg15
Nsg16
I15
sbag2
(g3
g4
NtRp617
(dp618
g7
Nsg8
Nsg9
V\u5efa\u56fd\u8a18\u5ff5\u306e\u65e5
p619
sg11
Nsg12
I1985
sg13
I2
sg14
Nsg15
Nsg16
I11
sbag2
(g3
g4
NtRp620
(dp621
g7
Nsg8
Nsg9
V\u6625\u5206\u306e\u65e5
p622
sg11
Nsg12
I1985
sg13
I3
sg14
Nsg15
Nsg16
I21
sbag2
(g3
g4
NtRp623
(dp624
g7
Nsg8
Nsg9
V\u5929\u7687\u8a95\u751f\u65e5
p625
sg11
Nsg12
I1985
sg13
I4
sg14
Nsg15
Nsg16
I29
sbag2
(g3
g4
NtRp626
(dp627
g7
Nsg8
Nsg9
V\u61b2\u6cd5\u8a18\u5ff5\u65e5
p628
sg11
Nsg12
I1985
sg13
I5
sg14
Nsg15
Nsg16
I3
sbag2
(g3
g4
NtRp629
(dp630
g7
Nsg8
Nsg9
V\u3053\u3069\u3082\u306e\u65e5
p631
sg11
Nsg12
I1985
sg13
I5
sg14
Nsg15
Nsg16
I5
sbag2
(g3
g4
NtRp632
(dp633
g7
Nsg8
Nsg9
V\u632f\u66ff\u4f11\u65e5
p634
sg11
Nsg12
I1985
sg13
I5
sg14
Nsg15
Nsg16
I6
sbag2
(g3
g4
NtRp635
(dp636
g7
Nsg8
Nsg9
V\u656c\u8001\u306e\u65e5
p637
sg11
Nsg12
I1985
sg13
I9
sg14
Nsg15
Nsg16
I15
sbag2
(g3
g4
NtRp638
(dp639
g7
Nsg8
Nsg9
V\u632f\u66ff\u4f11\u65e5
p640
sg11
Nsg12
I1985
sg13
I9
sg14
Nsg15
Nsg16
I16
sbag2
(g3
g4
NtRp641
(dp642
g7
Nsg8
Nsg9
V\u79cb\u5206\u306e\u65e5
p643
sg11
Nsg12
I1985
sg13
I9
sg14
Nsg15
Nsg16
I23
sbag2
(g3
g4
NtRp644
(dp645
g7
Nsg8
Nsg9
V\u4f53\u80b2\u306e\u65e5
p646
sg11
Nsg12
I1985
sg13
I10
sg14
Nsg15
Nsg16
I10
sbag2
(g3
g4
NtRp647
(dp648
g7
Nsg8
Nsg9
V\u6587\u5316\u306e\u65e5
p649
sg11
Nsg12
I1985
sg13
I11
sg14
Nsg15
Nsg16
I3
sbag2
(g3
g4
NtRp650
(dp651
g7
Nsg8
Nsg9
V\u632f\u66ff\u4f11\u65e5
p652
sg11
Nsg12
I1985
sg13
I11
sg14
Nsg15
Nsg16
I4
sbag2
(g3
g4
NtRp653
(dp654
g7
Nsg8
Nsg9
V\u52e4\u52b4\u611f\u8b1d\u306e\u65e5
p655
sg11
Nsg12
I1985
sg13
I11
sg14
Nsg15
Nsg16
I23
sbag2
(g3
g4
NtRp656
(dp657
g7
Nsg8
Nsg9
V\u5143\u65e5
p658
sg11
Nsg12
I1986
sg13
I1
sg14
Nsg15
Nsg16
I1
sbag2
(g3
g4
NtRp659
(dp660
g7
Nsg8
Nsg9
V\u6210\u4eba\u306e\u65e5
p661
sg11
Nsg12
I1986
sg13
I1
sg14
Nsg15
Nsg16
I15
sbag2
(g3
g4
NtRp662
(dp663
g7
Nsg8
Nsg9
V\u5efa\u56fd\u8a18\u5ff5\u306e\u65e5
p664
sg11
Nsg12
I1986
sg13
I2
sg14
Nsg15
Nsg16
I11
sbag2
(g3
g4
NtRp665
(dp666
g7
Nsg8
Nsg9
V\u6625\u5206\u306e\u65e5
p667
sg11
Nsg12
I1986
sg13
I3
sg14
Nsg15
Nsg16
I21
sbag2
(g3
g4
NtRp668
(dp669
g7
Nsg8
Nsg9
V\u5929\u7687\u8a95\u751f\u65e5
p670
sg11
Nsg12
I1986
sg13
I4
sg14
Nsg15
Nsg16
I29
sbag2
(g3
g4
NtRp671
(dp672
g7
Nsg8
Nsg9
V\u61b2\u6cd5\u8a18\u5ff5\u65e5
p673
sg11
Nsg12
I1986
sg13
I5
sg14
Nsg15
Nsg16
I3
sbag2
(g3
g4
NtRp674
(dp675
g7
Nsg8
Nsg9
V\u3053\u3069\u3082\u306e\u65e5
p676
sg11
Nsg12
I1986
sg13
I5
sg14
Nsg15
Nsg16
I5
sbag2
(g3
g4
NtRp677
(dp678
g7
Nsg8
Nsg9
V\u656c\u8001\u306e\u65e5
p679
sg11
Nsg12
I1986
sg13
I9
sg14
Nsg15
Nsg16
I15
sbag2
(g3
g4
NtRp680
(dp681
g7
Nsg8
Nsg9
V\u79cb\u5206\u306e\u65e5
p682
sg11
Nsg12
I1986
sg13
I9
sg14
Nsg15
Nsg16
I23
sbag2
(g3
g4
NtRp683
(dp684
g7
Nsg8
Nsg9
V\u4f53\u80b2\u306e\u65e5
p685
sg11
Nsg12
I1986
sg13
I10
sg14
Nsg15
Nsg16
I10
sbag2
(g3
g4
NtRp686
(dp687
g7
Nsg8
Nsg9
V\u6587\u5316\u306e\u65e5
p688
sg11
Nsg12
I1986
sg13
I11
sg14
Nsg15
Nsg16
I3
sbag2
(g3
g4
NtRp689
(dp690
g7
Nsg8
Nsg9
V\u52e4\u52b4\u611f\u8b1d\u306e\u65e5
p691
sg11
Nsg12
I1986
sg13
I11
sg14
Nsg15
Nsg16
I23
sbag2
(g3
g4
NtRp692
(dp693
g7
Nsg8
Nsg9
V\u632f\u66ff\u4f11\u65e5
p694
sg11
Nsg12
I1986
sg13
I11
sg14
Nsg15
Nsg16
I24
sbag2
(g3
g4
NtRp695
(dp696
g7
Nsg8
Nsg9
V\u5143\u65e5
p697
sg11
Nsg12
I1987
sg13
I1
sg14
Nsg15
Nsg16
I1
sbag2
(g3
g4
NtRp698
(dp699
g7
Nsg8
Nsg9
V\u6210\u4eba\u306e\u65e5
p700
sg11
Nsg12
I1987
sg13
I1
sg14
Nsg15
Nsg16
I15
sbag2
(g3
g4
NtRp701
(dp702
g7
Nsg8
Nsg9
V\u5efa\u56fd\u8a18\u5ff5\u306e\u65e5
p703
sg11
Nsg12
I1987
sg13
I2
sg14
Nsg15
Nsg16
I11
sbag2
(g3
g4
NtRp704
(dp705
g7
Nsg8
Nsg9
V\u6625\u5206\u306e\u65e5
p706
sg11
Nsg12
I1987
sg13
I3
sg14
Nsg15
Nsg16
I21
sbag2
(g3
g4
NtRp707
(dp708
g7
Nsg8
Nsg9
V\u5929\u7687\u8a95\u751f\u65e5
p709
sg11
Nsg12
I1987
sg13
I4
sg14
Nsg15
Nsg16
I29
sbag2
(g3
g4
NtRp710
(dp711
g7
Nsg8
Nsg9
V\u61b2\u6cd5\u8a18\u5ff5\u65e5
p712
sg11
Nsg12
I1987
sg13
I5
sg14
Nsg15
Nsg16
I3
sbag2
(g3
g4
NtRp713
(dp714
g7
Nsg8
Nsg9
V\u632f\u66ff\u4f11\u65e5
p715
sg11
Nsg12
I1987
sg13
I5
sg14
Nsg15
Nsg16
I4
sbag2
(g3
g4
NtRp716
(dp717
g7
Nsg8
Nsg9
V\u3053\u3069\u3082\u306e\u65e5
p718
sg11
Nsg12
I1987
sg13
I5
sg14
Nsg15
Nsg16
I5
sbag2
(g3
g4
NtRp719
(dp720
g7
Nsg8
Nsg9
V\u656c\u8001\u306e\u65e5
p721
sg11
Nsg12
I1987
sg13
I9
sg14
Nsg15
Nsg16
I15
sbag2
(g3
g4
NtRp722
(dp723
g7
Nsg8
Nsg9
V\u79cb\u5206\u306e\u65e5
p724
sg11
Nsg12
I1987
sg13
I9
sg14
Nsg15
Nsg16
I23
sbag2
(g3
g4
NtRp725
(dp726
g7
Nsg8
Nsg9
V\u4f53\u80b2\u306e\u65e5
p727
sg11
Nsg12
I1987
sg13
I10
sg14
Nsg15
Nsg16
I10
sbag2
(g3
g4
NtRp728
(dp729
g7
Nsg8
Nsg9
V\u6587\u5316\u306e\u65e5
p730
sg11
Nsg12
I1987
sg13
I11
sg14
Nsg15
Nsg16
I3
sbag2
(g3
g4
NtRp731
(dp732
g7
Nsg8
Nsg9
V\u52e4\u52b4\u611f\u8b1d\u306e\u65e5
p733
sg11
Nsg12
I1987
sg13
I11
sg14
Nsg15
Nsg16
I23
sbag2
(g3
g4
NtRp734
(dp735
g7
Nsg8
Nsg9
V\u5143\u65e5
p736
sg11
Nsg12
I1988
sg13
I1
sg14
Nsg15
Nsg16
I1
sbag2
(g3
g4
NtRp737
(dp738
g7
Nsg8
Nsg9
V\u6210\u4eba\u306e\u65e5
p739
sg11
Nsg12
I1988
sg13
I1
sg14
Nsg15
Nsg16
I15
sbag2
(g3
g4
NtRp740
(dp741
g7
Nsg8
Nsg9
V\u5efa\u56fd\u8a18\u5ff5\u306e\u65e5
p742
sg11
Nsg12
I1988
sg13
I2
sg14
Nsg15
Nsg16
I11
sbag2
(g3
g4
NtRp743
(dp744
g7
Nsg8
Nsg9
V\u6625\u5206\u306e\u65e5
p745
sg11
Nsg12
I1988
sg13
I3
sg14
Nsg15
Nsg16
I20
sbag2
(g3
g4
NtRp746
(dp747
g7
Nsg8
Nsg9
V\u632f\u66ff\u4f11\u65e5
p748
sg11
Nsg12
I1988
sg13
I3
sg14
Nsg15
Nsg16
I21
sbag2
(g3
g4
NtRp749
(dp750
g7
Nsg8
Nsg9
V\u5929\u7687\u8a95\u751f\u65e5
p751
sg11
Nsg12
I1988
sg13
I4
sg14
Nsg15
Nsg16
I29
sbag2
(g3
g4
NtRp752
(dp753
g7
Nsg8
Nsg9
V\u61b2\u6cd5\u8a18\u5ff5\u65e5
p754
sg11
Nsg12
I1988
sg13
I5
sg14
Nsg15
Nsg16
I3
sbag2
(g3
g4
NtRp755
(dp756
g7
Nsg8
Nsg9
V\u56fd\u6c11\u306e\u4f11\u65e5
p757
sg11
Nsg12
I1988
sg13
I5
sg14
Nsg15
Nsg16
I4
sbag2
(g3
g4
NtRp758
(dp759
g7
Nsg8
Nsg9
V\u3053\u3069\u3082\u306e\u65e5
p760
sg11
Nsg12
I1988
sg13
I5
sg14
Nsg15
Nsg16
I5
sbag2
(g3
g4
NtRp761
(dp762
g7
Nsg8
Nsg9
V\u656c\u8001\u306e\u65e5
p763
sg11
Nsg12
I1988
sg13
I9
sg14
Nsg15
Nsg16
I15
sbag2
(g3
g4
NtRp764
(dp765
g7
Nsg8
Nsg9
V\u79cb\u5206\u306e\u65e5
p766
sg11
Nsg12
I1988
sg13
I9
sg14
Nsg15
Nsg16
I23
sbag2
(g3
g4
NtRp767
(dp768
g7
Nsg8
Nsg9
V\u4f53\u80b2\u306e\u65e5
p769
sg11
Nsg12
I1988
sg13
I10
sg14
Nsg15
Nsg16
I10
sbag2
(g3
g4
NtRp770
(dp771
g7
Nsg8
Nsg9
V\u6587\u5316\u306e\u65e5
p772
sg11
Nsg12
I1988
sg13
I11
sg14
Nsg15
Nsg16
I3
sbag2
(g3
g4
NtRp773
(dp774
g7
Nsg8
Nsg9
V\u52e4\u52b4\u611f\u8b1d\u306e\u65e5
p775
sg11
Nsg12
I1988
sg13
I11
sg14
Nsg15
Nsg16
I23
sbag2
(g3
g4
NtRp776
(dp777
g7
Nsg8
Nsg9
V\u5143\u65e5
p778
sg11
Nsg12
I1989
sg13
I1
sg14
Nsg15
Nsg16
I1
sbag2
(g3
g4
NtRp779
(dp780
g7
Nsg8
Nsg9
V\u632f\u66ff\u4f11\u65e5
p781
sg11
Nsg12
I1989
sg13
I1
sg14
Nsg15
Nsg16
I2
sbag2
(g3
g4
NtRp782
(dp783
g7
Nsg8
Nsg9
V\u6210\u4eba\u306e\u65e5
p784
sg11
Nsg12
I1989
sg13
I1
sg14
Nsg15
Nsg16
I15
sbag2
(g3
g4
NtRp785
(dp786
g7
Nsg8
Nsg9
V\u632f\u66ff\u4f11\u65e5
p787
sg11
Nsg12
I1989
sg13
I1
sg14
Nsg15
Nsg16
I16
sbag2
(g3
g4
NtRp788
(dp789
g7
Nsg8
Nsg9
V\u5efa\u56fd\u8a18\u5ff5\u306e\u65e5
p790
sg11
Nsg12
I1989
sg13
I2
sg14
Nsg15
Nsg16
I11
sbag2
(g3
g4
NtRp791
(dp792
g7
Nsg8
Nsg9
V\u662d\u548c\u5929\u7687\u306e\u5927\u55aa\u306e\u793c
p793
sg11
Nsg12
I1989
sg13
I2
sg14
Nsg15
Nsg16
I24
sbag2
(g3
g4
NtRp794
(dp795
g7
Nsg8
Nsg9
V\u6625\u5206\u306e\u65e5
p796
sg11
Nsg12
I1989
sg13
I3
sg14
Nsg15
Nsg16
I21
sbag2
(g3
g4
NtRp797
(dp798
g7
Nsg8
Nsg9
V\u307f\u3069\u308a\u306e\u65e5
p799
sg11
Nsg12
I1989
sg13
I4
sg14
Nsg15
Nsg16
I29
sbag2
(g3
g4
NtRp800
(dp801
g7
Nsg8
Nsg9
V\u61b2\u6cd5\u8a18\u5ff5\u65e5
p802
sg11
Nsg12
I1989
sg13
I5
sg14
Nsg15
Nsg16
I3
sbag2
(g3
g4
NtRp803
(dp804
g7
Nsg8
Nsg9
V\u56fd\u6c11\u306e\u4f11\u65e5
p805
sg11
Nsg12
I1989
sg13
I5
sg14
Nsg15
Nsg16
I4
sbag2
(g3
g4
NtRp806
(dp807
g7
Nsg8
Nsg9
V\u3053\u3069\u3082\u306e\u65e5
p808
sg11
Nsg12
I1989
sg13
I5
sg14
Nsg15
Nsg16
I5
sbag2
(g3
g4
NtRp809
(dp810
g7
Nsg8
Nsg9
V\u656c\u8001\u306e\u65e5
p811
sg11
Nsg12
I1989
sg13
I9
sg14
Nsg15
Nsg16
I15
sbag2
(g3
g4
NtRp812
(dp813
g7
Nsg8
Nsg9
V\u79cb\u5206\u306e\u65e5
p814
sg11
Nsg12
I1989
sg13
I9
sg14
Nsg15
Nsg16
I23
sbag2
(g3
g4
NtRp815
(dp816
g7
Nsg8
Nsg9
V\u4f53\u80b2\u306e\u65e5
p817
sg11
Nsg12
I1989
sg13
I10
sg14
Nsg15
Nsg16
I10
sbag2
(g3
g4
NtRp818
(dp819
g7
Nsg8
Nsg9
V\u6587\u5316\u306e\u65e5
p820
sg11
Nsg12
I1989
sg13
I11
sg14
Nsg15
Nsg16
I3
sbag2
(g3
g4
NtRp821
(dp822
g7
Nsg8
Nsg9
V\u52e4\u52b4\u611f\u8b1d\u306e\u65e5
p823
sg11
Nsg12
I1989
sg13
I11
sg14
Nsg15
Nsg16
I23
sbag2
(g3
g4
NtRp824
(dp825
g7
Nsg8
Nsg9
V\u5929\u7687\u8a95\u751f\u65e5
p826
sg11
Nsg12
I1989
sg13
I12
sg14
Nsg15
Nsg16
I23
sbag2
(g3
g4
NtRp827
(dp828
g7
Nsg8
Nsg9
V\u5143\u65e5
p829
sg11
Nsg12
I1990
sg13
I1
sg14
Nsg15
Nsg16
I1
sbag2
(g3
g4
NtRp830
(dp831
g7
Nsg8
Nsg9
V\u6210\u4eba\u306e\u65e5
p832
sg11
Nsg12
I1990
sg13
I1
sg14
Nsg15
Nsg16
I15
sbag2
(g3
g4
NtRp833
(dp834
g7
Nsg8
Nsg9
V\u5efa\u56fd\u8a18\u5ff5\u306e\u65e5
p835
sg11
Nsg12
I1990
sg13
I2
sg14
Nsg15
Nsg16
I11
sbag2
(g3
g4
NtRp836
(dp837
g7
Nsg8
Nsg9
V\u632f\u66ff\u4f11\u65e5
p838
sg11
Nsg12
I1990
sg13
I2
sg14
Nsg15
Nsg16
I12
sbag2
(g3
g4
NtRp839
(dp840
g7
Nsg8
Nsg9
V\u6625\u5206\u306e\u65e5
p841
sg11
Nsg12
I1990
sg13
I3
sg14
Nsg15
Nsg16
I21
sbag2
(g3
g4
NtRp842
(dp843
g7
Nsg8
Nsg9
V\u307f\u3069\u308a\u306e\u65e5
p844
sg11
Nsg12
I1990
sg13
I4
sg14
Nsg15
Nsg16
I29
sbag2
(g3
g4
NtRp845
(dp846
g7
Nsg8
Nsg9
V\u632f\u66ff\u4f11\u65e5
p847
sg11
Nsg12
I1990
sg13
I4
sg14
Nsg15
Nsg16
I30
sbag2
(g3
g4
NtRp848
(dp849
g7
Nsg8
Nsg9
V\u61b2\u6cd5\u8a18\u5ff5\u65e5
p850
sg11
Nsg12
I1990
sg13
I5
sg14
Nsg15
Nsg16
I3
sbag2
(g3
g4
NtRp851
(dp852
g7
Nsg8
Nsg9
V\u56fd\u6c11\u306e\u4f11\u65e5
p853
sg11
Nsg12
I1990
sg13
I5
sg14
Nsg15
Nsg16
I4
sbag2
(g3
g4
NtRp854
(dp855
g7
Nsg8
Nsg9
V\u3053\u3069\u3082\u306e\u65e5
p856
sg11
Nsg12
I1990
sg13
I5
sg14
Nsg15
Nsg16
I5
sbag2
(g3
g4
NtRp857
(dp858
g7
Nsg8
Nsg9
V\u656c\u8001\u306e\u65e5
p859
sg11
Nsg12
I1990
sg13
I9
sg14
Nsg15
Nsg16
I15
sbag2
(g3
g4
NtRp860
(dp861
g7
Nsg8
Nsg9
V\u79cb\u5206\u306e\u65e5
p862
sg11
Nsg12
I1990
sg13
I9
sg14
Nsg15
Nsg16
I23
sbag2
(g3
g4
NtRp863
(dp864
g7
Nsg8
Nsg9
V\u632f\u66ff\u4f11\u65e5
p865
sg11
Nsg12
I1990
sg13
I9
sg14
Nsg15
Nsg16
I24
sbag2
(g3
g4
NtRp866
(dp867
g7
Nsg8
Nsg9
V\u4f53\u80b2\u306e\u65e5
p868
sg11
Nsg12
I1990
sg13
I10
sg14
Nsg15
Nsg16
I10
sbag2
(g3
g4
NtRp869
(dp870
g7
Nsg8
Nsg9
V\u6587\u5316\u306e\u65e5
p871
sg11
Nsg12
I1990
sg13
I11
sg14
Nsg15
Nsg16
I3
sbag2
(g3
g4
NtRp872
(dp873
g7
Nsg8
Nsg9
V\u5373\u4f4d\u793c\u6b63\u6bbf\u306e\u5100
p874
sg11
Nsg12
I1990
sg13
I11
sg14
Nsg15
Nsg16
I12
sbag2
(g3
g4
NtRp875
(dp876
g7
Nsg8
Nsg9
V\u52e4\u52b4\u611f\u8b1d\u306e\u65e5
p877
sg11
Nsg12
I1990
sg13
I11
sg14
Nsg15
Nsg16
I23
sbag2
(g3
g4
NtRp878
(dp879
g7
Nsg8
Nsg9
V\u5929\u7687\u8a95\u751f\u65e5
p880
sg11
Nsg12
I1990
sg13
I12
sg14
Nsg15
Nsg16
I23
sbag2
(g3
g4
NtRp881
(dp882
g7
Nsg8
Nsg9
V\u632f\u66ff\u4f11\u65e5
p883
sg11
Nsg12
I1990
sg13
I12
sg14
Nsg15
Nsg16
I24
sbag2
(g3
g4
NtRp884
(dp885
g7
Nsg8
Nsg9
V\u5143\u65e5
p886
sg11
Nsg12
I1991
sg13
I1
sg14
Nsg15
Nsg16
I1
sbag2
(g3
g4
NtRp887
(dp888
g7
Nsg8
Nsg9
V\u6210\u4eba\u306e\u65e5
p889
sg11
Nsg12
I1991
sg13
I1
sg14
Nsg15
Nsg16
I15
sbag2
(g3
g4
NtRp890
(dp891
g7
Nsg8
Nsg9
V\u5efa\u56fd\u8a18\u5ff5\u306e\u65e5
p892
sg11
Nsg12
I1991
sg13
I2
sg14
Nsg15
Nsg16
I11
sbag2
(g3
g4
NtRp893
(dp894
g7
Nsg8
Nsg9
V\u6625\u5206\u306e\u65e5
p895
sg11
Nsg12
I1991
sg13
I3
sg14
Nsg15
Nsg16
I21
sbag2
(g3
g4
NtRp896
(dp897
g7
Nsg8
Nsg9
V\u307f\u3069\u308a\u306e\u65e5
p898
sg11
Nsg12
I1991
sg13
I4
sg14
Nsg15
Nsg16
I29
sbag2
(g3
g4
NtRp899
(dp900
g7
Nsg8
Nsg9
V\u61b2\u6cd5\u8a18\u5ff5\u65e5
p901
sg11
Nsg12
I1991
sg13
I5
sg14
Nsg15
Nsg16
I3
sbag2
(g3
g4
NtRp902
(dp903
g7
Nsg8
Nsg9
V\u56fd\u6c11\u306e\u4f11\u65e5
p904
sg11
Nsg12
I1991
sg13
I5
sg14
Nsg15
Nsg16
I4
sbag2
(g3
g4
NtRp905
(dp906
g7
Nsg8
Nsg9
V\u3053\u3069\u3082\u306e\u65e5
p907
sg11
Nsg12
I1991
sg13
I5
sg14
Nsg15
Nsg16
I5
sbag2
(g3
g4
NtRp908
(dp909
g7
Nsg8
Nsg9
V\u632f\u66ff\u4f11\u65e5
p910
sg11
Nsg12
I1991
sg13
I5
sg14
Nsg15
Nsg16
I6
sbag2
(g3
g4
NtRp911
(dp912
g7
Nsg8
Nsg9
V\u656c\u8001\u306e\u65e5
p913
sg11
Nsg12
I1991
sg13
I9
sg14
Nsg15
Nsg16
I15
sbag2
(g3
g4
NtRp914
(dp915
g7
Nsg8
Nsg9
V\u632f\u66ff\u4f11\u65e5
p916
sg11
Nsg12
I1991
sg13
I9
sg14
Nsg15
Nsg16
I16
sbag2
(g3
g4
NtRp917
(dp918
g7
Nsg8
Nsg9
V\u79cb\u5206\u306e\u65e5
p919
sg11
Nsg12
I1991
sg13
I9
sg14
Nsg15
Nsg16
I23
sbag2
(g3
g4
NtRp920
(dp921
g7
Nsg8
Nsg9
V\u4f53\u80b2\u306e\u65e5
p922
sg11
Nsg12
I1991
sg13
I10
sg14
Nsg15
Nsg16
I10
sbag2
(g3
g4
NtRp923
(dp924
g7
Nsg8
Nsg9
V\u6587\u5316\u306e\u65e5
p925
sg11
Nsg12
I1991
sg13
I11
sg14
Nsg15
Nsg16
I3
sbag2
(g3
g4
NtRp926
(dp927
g7
Nsg8
Nsg9
V\u632f\u66ff\u4f11\u65e5
p928
sg11
Nsg12
I1991
sg13
I11
sg14
Nsg15
Nsg16
I4
sbag2
(g3
g4
NtRp929
(dp930
g7
Nsg8
Nsg9
V\u52e4\u52b4\u611f\u8b1d\u306e\u65e5
p931
sg11
Nsg12
I1991
sg13
I11
sg14
Nsg15
Nsg16
I23
sbag2
(g3
g4
NtRp932
(dp933
g7
Nsg8
Nsg9
V\u5929\u7687\u8a95\u751f\u65e5
p934
sg11
Nsg12
I1991
sg13
I12
sg14
Nsg15
Nsg16
I23
sbag2
(g3
g4
NtRp935
(dp936
g7
Nsg8
Nsg9
V\u5143\u65e5
p937
sg11
Nsg12
I1992
sg13
I1
sg14
Nsg15
Nsg16
I1
sbag2
(g3
g4
NtRp938
(dp939
g7
Nsg8
Nsg9
V\u6210\u4eba\u306e\u65e5
p940
sg11
Nsg12
I1992
sg13
I1
sg14
Nsg15
Nsg16
I15
sbag2
(g3
g4
NtRp941
(dp942
g7
Nsg8
Nsg9
V\u5efa\u56fd\u8a18\u5ff5\u306e\u65e5
p943
sg11
Nsg12
I1992
sg13
I2
sg14
Nsg15
Nsg16
I11
sbag2
(g3
g4
NtRp944
(dp945
g7
Nsg8
Nsg9
V\u6625\u5206\u306e\u65e5
p946
sg11
Nsg12
I1992
sg13
I3
sg14
Nsg15
Nsg16
I20
sbag2
(g3
g4
NtRp947
(dp948
g7
Nsg8
Nsg9
V\u307f\u3069\u308a\u306e\u65e5
p949
sg11
Nsg12
I1992
sg13
I4
sg14
Nsg15
Nsg16
I29
sbag2
(g3
g4
NtRp950
(dp951
g7
Nsg8
Nsg9
V\u61b2\u6cd5\u8a18\u5ff5\u65e5
p952
sg11
Nsg12
I1992
sg13
I5
sg14
Nsg15
Nsg16
I3
sbag2
(g3
g4
NtRp953
(dp954
g7
Nsg8
Nsg9
V\u632f\u66ff\u4f11\u65e5
p955
sg11
Nsg12
I1992
sg13
I5
sg14
Nsg15
Nsg16
I4
sbag2
(g3
g4
NtRp956
(dp957
g7
Nsg8
Nsg9
V\u3053\u3069\u3082\u306e\u65e5
p958
sg11
Nsg12
I1992
sg13
I5
sg14
Nsg15
Nsg16
I5
sbag2
(g3
g4
NtRp959
(dp960
g7
Nsg8
Nsg9
V\u656c\u8001\u306e\u65e5
p961
sg11
Nsg12
I1992
sg13
I9
sg14
Nsg15
Nsg16
I15
sbag2
(g3
g4
NtRp962
(dp963
g7
Nsg8
Nsg9
V\u79cb\u5206\u306e\u65e5
p964
sg11
Nsg12
I1992
sg13
I9
sg14
Nsg15
Nsg16
I23
sbag2
(g3
g4
NtRp965
(dp966
g7
Nsg8
Nsg9
V\u4f53\u80b2\u306e\u65e5
p967
sg11
Nsg12
I1992
sg13
I10
sg14
Nsg15
Nsg16
I10
sbag2
(g3
g4
NtRp968
(dp969
g7
Nsg8
Nsg9
V\u6587\u5316\u306e\u65e5
p970
sg11
Nsg12
I1992
sg13
I11
sg14
Nsg15
Nsg16
I3
sbag2
(g3
g4
NtRp971
(dp972
g7
Nsg8
Nsg9
V\u52e4\u52b4\u611f\u8b1d\u306e\u65e5
p973
sg11
Nsg12
I1992
sg13
I11
sg14
Nsg15
Nsg16
I23
sbag2
(g3
g4
NtRp974
(dp975
g7
Nsg8
Nsg9
V\u5929\u7687\u8a95\u751f\u65e5
p976
sg11
Nsg12
I1992
sg13
I12
sg14
Nsg15
Nsg16
I23
sbag2
(g3
g4
NtRp977
(dp978
g7
Nsg8
Nsg9
V\u5143\u65e5
p979
sg11
Nsg12
I1993
sg13
I1
sg14
Nsg15
Nsg16
I1
sbag2
(g3
g4
NtRp980
(dp981
g7
Nsg8
Nsg9
V\u6210\u4eba\u306e\u65e5
p982
sg11
Nsg12
I1993
sg13
I1
sg14
Nsg15
Nsg16
I15
sbag2
(g3
g4
NtRp983
(dp984
g7
Nsg8
Nsg9
V\u5efa\u56fd\u8a18\u5ff5\u306e\u65e5
p985
sg11
Nsg12
I1993
sg13
I2
sg14
Nsg15
Nsg16
I11
sbag2
(g3
g4
NtRp986
(dp987
g7
Nsg8
Nsg9
V\u6625\u5206\u306e\u65e5
p988
sg11
Nsg12
I1993
sg13
I3
sg14
Nsg15
Nsg16
I20
sbag2
(g3
g4
NtRp989
(dp990
g7
Nsg8
Nsg9
V\u307f\u3069\u308a\u306e\u65e5
p991
sg11
Nsg12
I1993
sg13
I4
sg14
Nsg15
Nsg16
I29
sbag2
(g3
g4
NtRp992
(dp993
g7
Nsg8
Nsg9
V\u61b2\u6cd5\u8a18\u5ff5\u65e5
p994
sg11
Nsg12
I1993
sg13
I5
sg14
Nsg15
Nsg16
I3
sbag2
(g3
g4
NtRp995
(dp996
g7
Nsg8
Nsg9
V\u56fd\u6c11\u306e\u4f11\u65e5
p997
sg11
Nsg12
I1993
sg13
I5
sg14
Nsg15
Nsg16
I4
sbag2
(g3
g4
NtRp998
(dp999
g7
Nsg8
Nsg9
V\u3053\u3069\u3082\u306e\u65e5
p1000
sg11
Nsg12
I1993
sg13
I5
sg14
Nsg15
Nsg16
I5
sbag2
(g3
g4
NtRp1001
(dp1002
g7
Nsg8
Nsg9
V\u7687\u592a\u5b50\u5fb3\u4ec1\u89aa\u738b\u306e\u7d50\u5a5a\u306e\u5100
p1003
sg11
Nsg12
I1993
sg13
I6
sg14
Nsg15
Nsg16
I9
sbag2
(g3
g4
NtRp1004
(dp1005
g7
Nsg8
Nsg9
V\u656c\u8001\u306e\u65e5
p1006
sg11
Nsg12
I1993
sg13
I9
sg14
Nsg15
Nsg16
I5
sbag2
(g3
g4
NtRp1007
(dp1008
g7
Nsg8
Nsg9
V\u79cb\u5206\u306e\u65e5
p1009
sg11
Nsg12
I1993
sg13
I9
sg14
Nsg15
Nsg16
I23
sbag2
(g3
g4
NtRp1010
(dp1011
g7
Nsg8
Nsg9
V\u4f53\u80b2\u306e\u65e5
p1012
sg11
Nsg12
I1993
sg13
I10
sg14
Nsg15
Nsg16
I10
sbag2
(g3
g4
NtRp1013
(dp1014
g7
Nsg8
Nsg9
V\u632f\u66ff\u4f11\u65e5
p1015
sg11
Nsg12
I1993
sg13
I10
sg14
Nsg15
Nsg16
I11
sbag2
(g3
g4
NtRp1016
(dp1017
g7
Nsg8
Nsg9
V\u6587\u5316\u306e\u65e5
p1018
sg11
Nsg12
I1993
sg13
I11
sg14
Nsg15
Nsg16
I3
sbag2
(g3
g4
NtRp1019
(dp1020
g7
Nsg8
Nsg9
V\u52e4\u52b4\u611f\u8b1d\u306e\u65e5
p1021
sg11
Nsg12
I1993
sg13
I11
sg14
Nsg15
Nsg16
I23
sbag2
(g3
g4
NtRp1022
(dp1023
g7
Nsg8
Nsg9
V\u5929\u7687\u8a95\u751f\u65e5
p1024
sg11
Nsg12
I1993
sg13
I12
sg14
Nsg15
Nsg16
I23
sbag2
(g3
g4
NtRp1025
(dp1026
g7
Nsg8
Nsg9
V\u5143\u65e5
p1027
sg11
Nsg12
I1994
sg13
I1
sg14
Nsg15
Nsg16
I1
sbag2
(g3
g4
NtRp1028
(dp1029
g7
Nsg8
Nsg9
V\u6210\u4eba\u306e\u65e5
p1030
sg11
Nsg12
I1994
sg13
I1
sg14
Nsg15
Nsg16
I15
sbag2
(g3
g4
NtRp1031
(dp1032
g7
Nsg8
Nsg9
V\u5efa\u56fd\u8a18\u5ff5\u306e\u65e5
p1033
sg11
Nsg12
I1994
sg13
I2
sg14
Nsg15
Nsg16
I11
sbag2
(g3
g4
NtRp1034
(dp1035
g7
Nsg8
Nsg9
V\u6625\u5206\u306e\u65e5
p1036
sg11
Nsg12
I1994
sg13
I3
sg14
Nsg15
Nsg16
I21
sbag2
(g3
g4
NtRp1037
(dp1038
g7
Nsg8
Nsg9
V\u307f\u3069\u308a\u306e\u65e5
p1039
sg11
Nsg12
I1994
sg13
I4
sg14
Nsg15
Nsg16
I29
sbag2
(g3
g4
NtRp1040
(dp1041
g7
Nsg8
Nsg9
V\u61b2\u6cd5\u8a18\u5ff5\u65e5
p1042
sg11
Nsg12
I1994
sg13
I5
sg14
Nsg15
Nsg16
I3
sbag2
(g3
g4
NtRp1043
(dp1044
g7
Nsg8
Nsg9
V\u56fd\u6c11\u306e\u4f11\u65e5
p1045
sg11
Nsg12
I1994
sg13
I5
sg14
Nsg15
Nsg16
I4
sbag2
(g3
g4
NtRp1046
(dp1047
g7
Nsg8
Nsg9
V\u3053\u3069\u3082\u306e\u65e5
p1048
sg11
Nsg12
I1994
sg13
I5
sg14
Nsg15
Nsg16
I5
sbag2
(g3
g4
NtRp1049
(dp1050
g7
Nsg8
Nsg9
V\u656c\u8001\u306e\u65e5
p1051
sg11
Nsg12
I1994
sg13
I9
sg14
Nsg15
Nsg16
I15
sbag2
(g3
g4
NtRp1052
(dp1053
g7
Nsg8
Nsg9
V\u79cb\u5206\u306e\u65e5
p1054
sg11
Nsg12
I1994
sg13
I9
sg14
Nsg15
Nsg16
I23
sbag2
(g3
g4
NtRp1055
(dp1056
g7
Nsg8
Nsg9
V\u4f53\u80b2\u306e\u65e5
p1057
sg11
Nsg12
I1994
sg13
I10
sg14
Nsg15
Nsg16
I10
sbag2
(g3
g4
NtRp1058
(dp1059
g7
Nsg8
Nsg9
V\u6587\u5316\u306e\u65e5
p1060
sg11
Nsg12
I1994
sg13
I11
sg14
Nsg15
Nsg16
I3
sbag2
(g3
g4
NtRp1061
(dp1062
g7
Nsg8
Nsg9
V\u52e4\u52b4\u611f\u8b1d\u306e\u65e5
p1063
sg11
Nsg12
I1994
sg13
I11
sg14
Nsg15
Nsg16
I23
sbag2
(g3
g4
NtRp1064
(dp1065
g7
Nsg8
Nsg9
V\u5929\u7687\u8a95\u751f\u65e5
p1066
sg11
Nsg12
I1994
sg13
I12
sg14
Nsg15
Nsg16
I23
sbag2
(g3
g4
NtRp1067
(dp1068
g7
Nsg8
Nsg9
V\u5143\u65e5
p1069
sg11
Nsg12
I1995
sg13
I1
sg14
Nsg15
Nsg16
I1
sbag2
(g3
g4
NtRp1070
(dp1071
g7
Nsg8
Nsg9
V\u632f\u66ff\u4f11\u65e5
p1072
sg11
Nsg12
I1995
sg13
I1
sg14
Nsg15
Nsg16
I2
sbag2
(g3
g4
NtRp1073
(dp1074
g7
Nsg8
Nsg9
V\u6210\u4eba\u306e\u65e5
p1075
sg11
Nsg12
I1995
sg13
I1
sg14
Nsg15
Nsg16
I15
sbag2
(g3
g4
NtRp1076
(dp1077
g7
Nsg8
Nsg9
V\u632f\u66ff\u4f11\u65e5
p1078
sg11
Nsg12
I1995
sg13
I1
sg14
Nsg15
Nsg16
I16
sbag2
(g3
g4
NtRp1079
(dp1080
g7
Nsg8
Nsg9
V\u5efa\u56fd\u8a18\u5ff5\u306e\u65e5
p1081
sg11
Nsg12
I1995
sg13
I2
sg14
Nsg15
Nsg16
I11
sbag2
(g3
g4
NtRp1082
(dp1083
g7
Nsg8
Nsg9
V\u6625\u5206\u306e\u65e5
p1084
sg11
Nsg12
I1995
sg13
I3
sg14
Nsg15
Nsg16
I21
sbag2
(g3
g4
NtRp1085
(dp1086
g7
Nsg8
Nsg9
V\u307f\u3069\u308a\u306e\u65e5
p1087
sg11
Nsg12
I1995
sg13
I4
sg14
Nsg15
Nsg16
I29
sbag2
(g3
g4
NtRp1088
(dp1089
g7
Nsg8
Nsg9
V\u61b2\u6cd5\u8a18\u5ff5\u65e5
p1090
sg11
Nsg12
I1995
sg13
I5
sg14
Nsg15
Nsg16
I3
sbag2
(g3
g4
NtRp1091
(dp1092
g7
Nsg8
Nsg9
V\u56fd\u6c11\u306e\u4f11\u65e5
p1093
sg11
Nsg12
I1995
sg13
I5
sg14
Nsg15
Nsg16
I4
sbag2
(g3
g4
NtRp1094
(dp1095
g7
Nsg8
Nsg9
V\u3053\u3069\u3082\u306e\u65e5
p1096
sg11
Nsg12
I1995
sg13
I5
sg14
Nsg15
Nsg16
I5
sbag2
(g3
g4
NtRp1097
(dp1098
g7
Nsg8
Nsg9
V\u656c\u8001\u306e\u65e5
p1099
sg11
Nsg12
I1995
sg13
I9
sg14
Nsg15
Nsg16
I15
sbag2
(g3
g4
NtRp1100
(dp1101
g7
Nsg8
Nsg9
V\u79cb\u5206\u306e\u65e5
p1102
sg11
Nsg12
I1995
sg13
I9
sg14
Nsg15
Nsg16
I23
sbag2
(g3
g4
NtRp1103
(dp1104
g7
Nsg8
Nsg9
V\u4f53\u80b2\u306e\u65e5
p1105
sg11
Nsg12
I1995
sg13
I10
sg14
Nsg15
Nsg16
I10
sbag2
(g3
g4
NtRp1106
(dp1107
g7
Nsg8
Nsg9
V\u6587\u5316\u306e\u65e5
p1108
sg11
Nsg12
I1995
sg13
I11
sg14
Nsg15
Nsg16
I3
sbag2
(g3
g4
NtRp1109
(dp1110
g7
Nsg8
Nsg9
V\u52e4\u52b4\u611f\u8b1d\u306e\u65e5
p1111
sg11
Nsg12
I1995
sg13
I11
sg14
Nsg15
Nsg16
I23
sbag2
(g3
g4
NtRp1112
(dp1113
g7
Nsg8
Nsg9
V\u5929\u7687\u8a95\u751f\u65e5
p1114
sg11
Nsg12
I1995
sg13
I12
sg14
Nsg15
Nsg16
I23
sbag2
(g3
g4
NtRp1115
(dp1116
g7
Nsg8
Nsg9
V\u5143\u65e5
p1117
sg11
Nsg12
I1996
sg13
I1
sg14
Nsg15
Nsg16
I1
sbag2
(g3
g4
NtRp1118
(dp1119
g7
Nsg8
Nsg9
V\u6210\u4eba\u306e\u65e5
p1120
sg11
Nsg12
I1996
sg13
I1
sg14
Nsg15
Nsg16
I15
sbag2
(g3
g4
NtRp1121
(dp1122
g7
Nsg8
Nsg9
V\u5efa\u56fd\u8a18\u5ff5\u306e\u65e5
p1123
sg11
Nsg12
I1996
sg13
I2
sg14
Nsg15
Nsg16
I11
sbag2
(g3
g4
NtRp1124
(dp1125
g7
Nsg8
Nsg9
V\u632f\u66ff\u4f11\u65e5
p1126
sg11
Nsg12
I1996
sg13
I2
sg14
Nsg15
Nsg16
I12
sbag2
(g3
g4
NtRp1127
(dp1128
g7
Nsg8
Nsg9
V\u6625\u5206\u306e\u65e5
p1129
sg11
Nsg12
I1996
sg13
I3
sg14
Nsg15
Nsg16
I20
sbag2
(g3
g4
NtRp1130
(dp1131
g7
Nsg8
Nsg9
V\u307f\u3069\u308a\u306e\u65e5
p1132
sg11
Nsg12
I1996
sg13
I4
sg14
Nsg15
Nsg16
I29
sbag2
(g3
g4
NtRp1133
(dp1134
g7
Nsg8
Nsg9
V\u61b2\u6cd5\u8a18\u5ff5\u65e5
p1135
sg11
Nsg12
I1996
sg13
I5
sg14
Nsg15
Nsg16
I3
sbag2
(g3
g4
NtRp1136
(dp1137
g7
Nsg8
Nsg9
V\u56fd\u6c11\u306e\u4f11\u65e5
p1138
sg11
Nsg12
I1996
sg13
I5
sg14
Nsg15
Nsg16
I4
sbag2
(g3
g4
NtRp1139
(dp1140
g7
Nsg8
Nsg9
V\u3053\u3069\u3082\u306e\u65e5
p1141
sg11
Nsg12
I1996
sg13
I5
sg14
Nsg15
Nsg16
I5
sbag2
(g3
g4
NtRp1142
(dp1143
g7
Nsg8
Nsg9
V\u632f\u66ff\u4f11\u65e5
p1144
sg11
Nsg12
I1996
sg13
I5
sg14
Nsg15
Nsg16
I6
sbag2
(g3
g4
NtRp1145
(dp1146
g7
Nsg8
Nsg9
V\u6d77\u306e\u65e5
p1147
sg11
Nsg12
I1996
sg13
I7
sg14
Nsg15
Nsg16
I20
sbag2
(g3
g4
NtRp1148
(dp1149
g7
Nsg8
Nsg9
V\u656c\u8001\u306e\u65e5
p1150
sg11
Nsg12
I1996
sg13
I9
sg14
Nsg15
Nsg16
I15
sbag2
(g3
g4
NtRp1151
(dp1152
g7
Nsg8
Nsg9
V\u632f\u66ff\u4f11\u65e5
p1153
sg11
Nsg12
I1996
sg13
I9
sg14
Nsg15
Nsg16
I16
sbag2
(g3
g4
NtRp1154
(dp1155
g7
Nsg8
Nsg9
V\u79cb\u5206\u306e\u65e5
p1156
sg11
Nsg12
I1996
sg13
I9
sg14
Nsg15
Nsg16
I23
sbag2
(g3
g4
NtRp1157
(dp1158
g7
Nsg8
Nsg9
V\u4f53\u80b2\u306e\u65e5
p1159
sg11
Nsg12
I1996
sg13
I10
sg14
Nsg15
Nsg16
I10
sbag2
(g3
g4
NtRp1160
(dp1161
g7
Nsg8
Nsg9
V\u6587\u5316\u306e\u65e5
p1162
sg11
Nsg12
I1996
sg13
I11
sg14
Nsg15
Nsg16
I3
sbag2
(g3
g4
NtRp1163
(dp1164
g7
Nsg8
Nsg9
V\u632f\u66ff\u4f11\u65e5
p1165
sg11
Nsg12
I1996
sg13
I11
sg14
Nsg15
Nsg16
I4
sbag2
(g3
g4
NtRp1166
(dp1167
g7
Nsg8
Nsg9
V\u52e4\u52b4\u611f\u8b1d\u306e\u65e5
p1168
sg11
Nsg12
I1996
sg13
I11
sg14
Nsg15
Nsg16
I23
sbag2
(g3
g4
NtRp1169
(dp1170
g7
Nsg8
Nsg9
V\u5929\u7687\u8a95\u751f\u65e5
p1171
sg11
Nsg12
I1996
sg13
I12
sg14
Nsg15
Nsg16
I23
sbag2
(g3
g4
NtRp1172
(dp1173
g7
Nsg8
Nsg9
V\u5143\u65e5
p1174
sg11
Nsg12
I1997
sg13
I1
sg14
Nsg15
Nsg16
I1
sbag2
(g3
g4
NtRp1175
(dp1176
g7
Nsg8
Nsg9
V\u6210\u4eba\u306e\u65e5
p1177
sg11
Nsg12
I1997
sg13
I1
sg14
Nsg15
Nsg16
I15
sbag2
(g3
g4
NtRp1178
(dp1179
g7
Nsg8
Nsg9
V\u5efa\u56fd\u8a18\u5ff5\u306e\u65e5
p1180
sg11
Nsg12
I1997
sg13
I2
sg14
Nsg15
Nsg16
I11
sbag2
(g3
g4
NtRp1181
(dp1182
g7
Nsg8
Nsg9
V\u6625\u5206\u306e\u65e5
p1183
sg11
Nsg12
I1997
sg13
I3
sg14
Nsg15
Nsg16
I20
sbag2
(g3
g4
NtRp1184
(dp1185
g7
Nsg8
Nsg9
V\u307f\u3069\u308a\u306e\u65e5
p1186
sg11
Nsg12
I1997
sg13
I4
sg14
Nsg15
Nsg16
I29
sbag2
(g3
g4
NtRp1187
(dp1188
g7
Nsg8
Nsg9
V\u61b2\u6cd5\u8a18\u5ff5\u65e5
p1189
sg11
Nsg12
I1997
sg13
I5
sg14
Nsg15
Nsg16
I3
sbag2
(g3
g4
NtRp1190
(dp1191
g7
Nsg8
Nsg9
V\u3053\u3069\u3082\u306e\u65e5
p1192
sg11
Nsg12
I1997
sg13
I5
sg14
Nsg15
Nsg16
I5
sbag2
(g3
g4
NtRp1193
(dp1194
g7
Nsg8
Nsg9
V\u6d77\u306e\u65e5
p1195
sg11
Nsg12
I1997
sg13
I7
sg14
Nsg15
Nsg16
I20
sbag2
(g3
g4
NtRp1196
(dp1197
g7
Nsg8
Nsg9
V\u632f\u66ff\u4f11\u65e5
p1198
sg11
Nsg12
I1997
sg13
I7
sg14
Nsg15
Nsg16
I21
sbag2
(g3
g4
NtRp1199
(dp1200
g7
Nsg8
Nsg9
V\u656c\u8001\u306e\u65e5
p1201
sg11
Nsg12
I1997
sg13
I9
sg14
Nsg15
Nsg16
I15
sbag2
(g3
g4
NtRp1202
(dp1203
g7
Nsg8
Nsg9
V\u79cb\u5206\u306e\u65e5
p1204
sg11
Nsg12
I1997
sg13
I9
sg14
Nsg15
Nsg16
I23
sbag2
(g3
g4
NtRp1205
(dp1206
g7
Nsg8
Nsg9
V\u4f53\u80b2\u306e\u65e5
p1207
sg11
Nsg12
I1997
sg13
I10
sg14
Nsg15
Nsg16
I10
sbag2
(g3
g4
NtRp1208
(dp1209
g7
Nsg8
Nsg9
V\u6587\u5316\u306e\u65e5
p1210
sg11
Nsg12
I1997
sg13
I11
sg14
Nsg15
Nsg16
I3
sbag2
(g3
g4
NtRp1211
(dp1212
g7
Nsg8
Nsg9
V\u52e4\u52b4\u611f\u8b1d\u306e\u65e5
p1213
sg11
Nsg12
I1997
sg13
I11
sg14
Nsg15
Nsg16
I23
sbag2
(g3
g4
NtRp1214
(dp1215
g7
Nsg8
Nsg9
V\u632f\u66ff\u4f11\u65e5
p1216
sg11
Nsg12
I1997
sg13
I11
sg14
Nsg15
Nsg16
I24
sbag2
(g3
g4
NtRp1217
(dp1218
g7
Nsg8
Nsg9
V\u5929\u7687\u8a95\u751f\u65e5
p1219
sg11
Nsg12
I1997
sg13
I12
sg14
Nsg15
Nsg16
I23
sbag2
(g3
g4
NtRp1220
(dp1221
g7
Nsg8
Nsg9
V\u5143\u65e5
p1222
sg11
Nsg12
I1998
sg13
I1
sg14
Nsg15
Nsg16
I1
sbag2
(g3
g4
NtRp1223
(dp1224
g7
Nsg8
Nsg9
V\u6210\u4eba\u306e\u65e5
p1225
sg11
Nsg12
I1998
sg13
I1
sg14
Nsg15
Nsg16
I15
sbag2
(g3
g4
NtRp1226
(dp1227
g7
Nsg8
Nsg9
V\u5efa\u56fd\u8a18\u5ff5\u306e\u65e5
p1228
sg11
Nsg12
I1998
sg13
I2
sg14
Nsg15
Nsg16
I11
sbag2
(g3
g4
NtRp1229
(dp1230
g7
Nsg8
Nsg9
V\u6625\u5206\u306e\u65e5
p1231
sg11
Nsg12
I1998
sg13
I3
sg14
Nsg15
Nsg16
I21
sbag2
(g3
g4
NtRp1232
(dp1233
g7
Nsg8
Nsg9
V\u307f\u3069\u308a\u306e\u65e5
p1234
sg11
Nsg12
I1998
sg13
I4
sg14
Nsg15
Nsg16
I29
sbag2
(g3
g4
NtRp1235
(dp1236
g7
Nsg8
Nsg9
V\u61b2\u6cd5\u8a18\u5ff5\u65e5
p1237
sg11
Nsg12
I1998
sg13
I5
sg14
Nsg15
Nsg16
I3
sbag2
(g3
g4
NtRp1238
(dp1239
g7
Nsg8
Nsg9
V\u632f\u66ff\u4f11\u65e5
p1240
sg11
Nsg12
I1998
sg13
I5
sg14
Nsg15
Nsg16
I4
sbag2
(g3
g4
NtRp1241
(dp1242
g7
Nsg8
Nsg9
V\u3053\u3069\u3082\u306e\u65e5
p1243
sg11
Nsg12
I1998
sg13
I5
sg14
Nsg15
Nsg16
I5
sbag2
(g3
g4
NtRp1244
(dp1245
g7
Nsg8
Nsg9
V\u6d77\u306e\u65e5
p1246
sg11
Nsg12
I1998
sg13
I7
sg14
Nsg15
Nsg16
I20
sbag2
(g3
g4
NtRp1247
(dp1248
g7
Nsg8
Nsg9
V\u656c\u8001\u306e\u65e5
p1249
sg11
Nsg12
I1998
sg13
I9
sg14
Nsg15
Nsg16
I15
sbag2
(g3
g4
NtRp1250
(dp1251
g7
Nsg8
Nsg9
V\u79cb\u5206\u306e\u65e5
p1252
sg11
Nsg12
I1998
sg13
I9
sg14
Nsg15
Nsg16
I23
sbag2
(g3
g4
NtRp1253
(dp1254
g7
Nsg8
Nsg9
V\u4f53\u80b2\u306e\u65e5
p1255
sg11
Nsg12
I1998
sg13
I10
sg14
Nsg15
Nsg16
I10
sbag2
(g3
g4
NtRp1256
(dp1257
g7
Nsg8
Nsg9
V\u6587\u5316\u306e\u65e5
p1258
sg11
Nsg12
I1998
sg13
I11
sg14
Nsg15
Nsg16
I3
sbag2
(g3
g4
NtRp1259
(dp1260
g7
Nsg8
Nsg9
V\u52e4\u52b4\u611f\u8b1d\u306e\u65e5
p1261
sg11
Nsg12
I1998
sg13
I11
sg14
Nsg15
Nsg16
I23
sbag2
(g3
g4
NtRp1262
(dp1263
g7
Nsg8
Nsg9
V\u5929\u7687\u8a95\u751f\u65e5
p1264
sg11
Nsg12
I1998
sg13
I12
sg14
Nsg15
Nsg16
I23
sbag2
(g3
g4
NtRp1265
(dp1266
g7
Nsg8
Nsg9
V\u5143\u65e5
p1267
sg11
Nsg12
I1999
sg13
I1
sg14
Nsg15
Nsg16
I1
sbag2
(g3
g4
NtRp1268
(dp1269
g7
Nsg8
Nsg9
V\u6210\u4eba\u306e\u65e5
p1270
sg11
Nsg12
I1999
sg13
I1
sg14
Nsg15
Nsg16
I15
sbag2
(g3
g4
NtRp1271
(dp1272
g7
Nsg8
Nsg9
V\u5efa\u56fd\u8a18\u5ff5\u306e\u65e5
p1273
sg11
Nsg12
I1999
sg13
I2
sg14
Nsg15
Nsg16
I11
sbag2
(g3
g4
NtRp1274
(dp1275
g7
Nsg8
Nsg9
V\u6625\u5206\u306e\u65e5
p1276
sg11
Nsg12
I1999
sg13
I3
sg14
Nsg15
Nsg16
I21
sbag2
(g3
g4
NtRp1277
(dp1278
g7
Nsg8
Nsg9
V\u632f\u66ff\u4f11\u65e5
p1279
sg11
Nsg12
I1999
sg13
I3
sg14
Nsg15
Nsg16
I22
sbag2
(g3
g4
NtRp1280
(dp1281
g7
Nsg8
Nsg9
V\u307f\u3069\u308a\u306e\u65e5
p1282
sg11
Nsg12
I1999
sg13
I4
sg14
Nsg15
Nsg16
I29
sbag2
(g3
g4
NtRp1283
(dp1284
g7
Nsg8
Nsg9
V\u61b2\u6cd5\u8a18\u5ff5\u65e5
p1285
sg11
Nsg12
I1999
sg13
I5
sg14
Nsg15
Nsg16
I3
sbag2
(g3
g4
NtRp1286
(dp1287
g7
Nsg8
Nsg9
V\u56fd\u6c11\u306e\u4f11\u65e5
p1288
sg11
Nsg12
I1999
sg13
I5
sg14
Nsg15
Nsg16
I4
sbag2
(g3
g4
NtRp1289
(dp1290
g7
Nsg8
Nsg9
V\u3053\u3069\u3082\u306e\u65e5
p1291
sg11
Nsg12
I1999
sg13
I5
sg14
Nsg15
Nsg16
I5
sbag2
(g3
g4
NtRp1292
(dp1293
g7
Nsg8
Nsg9
V\u6d77\u306e\u65e5
p1294
sg11
Nsg12
I1999
sg13
I7
sg14
Nsg15
Nsg16
I20
sbag2
(g3
g4
NtRp1295
(dp1296
g7
Nsg8
Nsg9
V\u656c\u8001\u306e\u65e5
p1297
sg11
Nsg12
I1999
sg13
I9
sg14
Nsg15
Nsg16
I15
sbag2
(g3
g4
NtRp1298
(dp1299
g7
Nsg8
Nsg9
V\u79cb\u5206\u306e\u65e5
p1300
sg11
Nsg12
I1999
sg13
I9
sg14
Nsg15
Nsg16
I23
sbag2
(g3
g4
NtRp1301
(dp1302
g7
Nsg8
Nsg9
V\u4f53\u80b2\u306e\u65e5
p1303
sg11
Nsg12
I1999
sg13
I10
sg14
Nsg15
Nsg16
I10
sbag2
(g3
g4
NtRp1304
(dp1305
g7
Nsg8
Nsg9
V\u632f\u66ff\u4f11\u65e5
p1306
sg11
Nsg12
I1999
sg13
I10
sg14
Nsg15
Nsg16
I11
sbag2
(g3
g4
NtRp1307
(dp1308
g7
Nsg8
Nsg9
V\u6587\u5316\u306e\u65e5
p1309
sg11
Nsg12
I1999
sg13
I11
sg14
Nsg15
Nsg16
I3
sbag2
(g3
g4
NtRp1310
(dp1311
g7
Nsg8
Nsg9
V\u52e4\u52b4\u611f\u8b1d\u306e\u65e5
p1312
sg11
Nsg12
I1999
sg13
I11
sg14
Nsg15
Nsg16
I23
sbag2
(g3
g4
NtRp1313
(dp1314
g7
Nsg8
Nsg9
V\u5929\u7687\u8a95\u751f\u65e5
p1315
sg11
Nsg12
I1999
sg13
I12
sg14
Nsg15
Nsg16
I23
sbag2
(g3
g4
NtRp1316
(dp1317
g7
Nsg8
Nsg9
V\u5143\u65e5
p1318
sg11
Nsg12
I2000
sg13
I1
sg14
Nsg15
Nsg16
I1
sbag2
(g3
g4
NtRp1319
(dp1320
g7
Nsg8
Nsg9
V\u6210\u4eba\u306e\u65e5
p1321
sg11
Nsg12
I2000
sg13
I1
sg14
Nsg15
Nsg16
I10
sbag2
(g3
g4
NtRp1322
(dp1323
g7
Nsg8
Nsg9
V\u5efa\u56fd\u8a18\u5ff5\u306e\u65e5
p1324
sg11
Nsg12
I2000
sg13
I2
sg14
Nsg15
Nsg16
I11
sbag2
(g3
g4
NtRp1325
(dp1326
g7
Nsg8
Nsg9
V\u6625\u5206\u306e\u65e5
p1327
sg11
Nsg12
I2000
sg13
I3
sg14
Nsg15
Nsg16
I20
sbag2
(g3
g4
NtRp1328
(dp1329
g7
Nsg8
Nsg9
V\u307f\u3069\u308a\u306e\u65e5
p1330
sg11
Nsg12
I2000
sg13
I4
sg14
Nsg15
Nsg16
I29
sbag2
(g3
g4
NtRp1331
(dp1332
g7
Nsg8
Nsg9
V\u61b2\u6cd5\u8a18\u5ff5\u65e5
p1333
sg11
Nsg12
I2000
sg13
I5
sg14
Nsg15
Nsg16
I3
sbag2
(g3
g4
NtRp1334
(dp1335
g7
Nsg8
Nsg9
V\u56fd\u6c11\u306e\u4f11\u65e5
p1336
sg11
Nsg12
I2000
sg13
I5
sg14
Nsg15
Nsg16
I4
sbag2
(g3
g4
NtRp1337
(dp1338
g7
Nsg8
Nsg9
V\u3053\u3069\u3082\u306e\u65e5
p1339
sg11
Nsg12
I2000
sg13
I5
sg14
Nsg15
Nsg16
I5
sbag2
(g3
g4
NtRp1340
(dp1341
g7
Nsg8
Nsg9
V\u6d77\u306e\u65e5
p1342
sg11
Nsg12
I2000
sg13
I7
sg14
Nsg15
Nsg16
I20
sbag2
(g3
g4
NtRp1343
(dp1344
g7
Nsg8
Nsg9
V\u656c\u8001\u306e\u65e5
p1345
sg11
Nsg12
I2000
sg13
I9
sg14
Nsg15
Nsg16
I15
sbag2
(g3
g4
NtRp1346
(dp1347
g7
Nsg8
Nsg9
V\u79cb\u5206\u306e\u65e5
p1348
sg11
Nsg12
I2000
sg13
I9
sg14
Nsg15
Nsg16
I23
sbag2
(g3
g4
NtRp1349
(dp1350
g7
Nsg8
Nsg9
V\u4f53\u80b2\u306e\u65e5
p1351
sg11
Nsg12
I2000
sg13
I10
sg14
Nsg15
Nsg16
I9
sbag2
(g3
g4
NtRp1352
(dp1353
g7
Nsg8
Nsg9
V\u6587\u5316\u306e\u65e5
p1354
sg11
Nsg12
I2000
sg13
I11
sg14
Nsg15
Nsg16
I3
sbag2
(g3
g4
NtRp1355
(dp1356
g7
Nsg8
Nsg9
V\u52e4\u52b4\u611f\u8b1d\u306e\u65e5
p1357
sg11
Nsg12
I2000
sg13
I11
sg14
Nsg15
Nsg16
I23
sbag2
(g3
g4
NtRp1358
(dp1359
g7
Nsg8
Nsg9
V\u5929\u7687\u8a95\u751f\u65e5
p1360
sg11
Nsg12
I2000
sg13
I12
sg14
Nsg15
Nsg16
I23
sbag2
(g3
g4
NtRp1361
(dp1362
g7
Nsg8
Nsg9
V\u5143\u65e5
p1363
sg11
Nsg12
I2001
sg13
I1
sg14
Nsg15
Nsg16
I1
sbag2
(g3
g4
NtRp1364
(dp1365
g7
Nsg8
Nsg9
V\u6210\u4eba\u306e\u65e5
p1366
sg11
Nsg12
I2001
sg13
I1
sg14
Nsg15
Nsg16
I8
sbag2
(g3
g4
NtRp1367
(dp1368
g7
Nsg8
Nsg9
V\u5efa\u56fd\u8a18\u5ff5\u306e\u65e5
p1369
sg11
Nsg12
I2001
sg13
I2
sg14
Nsg15
Nsg16
I11
sbag2
(g3
g4
NtRp1370
(dp1371
g7
Nsg8
Nsg9
V\u632f\u66ff\u4f11\u65e5
p1372
sg11
Nsg12
I2001
sg13
I2
sg14
Nsg15
Nsg16
I12
sbag2
(g3
g4
NtRp1373
(dp1374
g7
Nsg8
Nsg9
V\u6625\u5206\u306e\u65e5
p1375
sg11
Nsg12
I2001
sg13
I3
sg14
Nsg15
Nsg16
I20
sbag2
(g3
g4
NtRp1376
(dp1377
g7
Nsg8
Nsg9
V\u307f\u3069\u308a\u306e\u65e5
p1378
sg11
Nsg12
I2001
sg13
I4
sg14
Nsg15
Nsg16
I29
sbag2
(g3
g4
NtRp1379
(dp1380
g7
Nsg8
Nsg9
V\u632f\u66ff\u4f11\u65e5
p1381
sg11
Nsg12
I2001
sg13
I4
sg14
Nsg15
Nsg16
I30
sbag2
(g3
g4
NtRp1382
(dp1383
g7
Nsg8
Nsg9
V\u61b2\u6cd5\u8a18\u5ff5\u65e5
p1384
sg11
Nsg12
I2001
sg13
I5
sg14
Nsg15
Nsg16
I3
sbag2
(g3
g4
NtRp1385
(dp1386
g7
Nsg8
Nsg9
V\u56fd\u6c11\u306e\u4f11\u65e5
p1387
sg11
Nsg12
I2001
sg13
I5
sg14
Nsg15
Nsg16
I4
sbag2
(g3
g4
NtRp1388
(dp1389
g7
Nsg8
Nsg9
V\u3053\u3069\u3082\u306e\u65e5
p1390
sg11
Nsg12
I2001
sg13
I5
sg14
Nsg15
Nsg16
I5
sbag2
(g3
g4
NtRp1391
(dp1392
g7
Nsg8
Nsg9
V\u6d77\u306e\u65e5
p1393
sg11
Nsg12
I2001
sg13
I7
sg14
Nsg15
Nsg16
I20
sbag2
(g3
g4
NtRp1394
(dp1395
g7
Nsg8
Nsg9
V\u656c\u8001\u306e\u65e5
p1396
sg11
Nsg12
I2001
sg13
I9
sg14
Nsg15
Nsg16
I15
sbag2
(g3
g4
NtRp1397
(dp1398
g7
Nsg8
Nsg9
V\u79cb\u5206\u306e\u65e5
p1399
sg11
Nsg12
I2001
sg13
I9
sg14
Nsg15
Nsg16
I23
sbag2
(g3
g4
NtRp1400
(dp1401
g7
Nsg8
Nsg9
V\u632f\u66ff\u4f11\u65e5
p1402
sg11
Nsg12
I2001
sg13
I9
sg14
Nsg15
Nsg16
I24
sbag2
(g3
g4
NtRp1403
(dp1404
g7
Nsg8
Nsg9
V\u4f53\u80b2\u306e\u65e5
p1405
sg11
Nsg12
I2001
sg13
I10
sg14
Nsg15
Nsg16
I8
sbag2
(g3
g4
NtRp1406
(dp1407
g7
Nsg8
Nsg9
V\u6587\u5316\u306e\u65e5
p1408
sg11
Nsg12
I2001
sg13
I11
sg14
Nsg15
Nsg16
I3
sbag2
(g3
g4
NtRp1409
(dp1410
g7
Nsg8
Nsg9
V\u52e4\u52b4\u611f\u8b1d\u306e\u65e5
p1411
sg11
Nsg12
I2001
sg13
I11
sg14
Nsg15
Nsg16
I23
sbag2
(g3
g4
NtRp1412
(dp1413
g7
Nsg8
Nsg9
V\u5929\u7687\u8a95\u751f\u65e5
p1414
sg11
Nsg12
I2001
sg13
I12
sg14
Nsg15
Nsg16
I23
sbag2
(g3
g4
NtRp1415
(dp1416
g7
Nsg8
Nsg9
V\u632f\u66ff\u4f11\u65e5
p1417
sg11
Nsg12
I2001
sg13
I12
sg14
Nsg15
Nsg16
I24
sbag2
(g3
g4
NtRp1418
(dp1419
g7
Nsg8
Nsg9
V\u5143\u65e5
p1420
sg11
Nsg12
I2002
sg13
I1
sg14
Nsg15
Nsg16
I1
sbag2
(g3
g4
NtRp1421
(dp1422
g7
Nsg8
Nsg9
V\u6210\u4eba\u306e\u65e5
p1423
sg11
Nsg12
I2002
sg13
I1
sg14
Nsg15
Nsg16
I14
sbag2
(g3
g4
NtRp1424
(dp1425
g7
Nsg8
Nsg9
V\u5efa\u56fd\u8a18\u5ff5\u306e\u65e5
p1426
sg11
Nsg12
I2002
sg13
I2
sg14
Nsg15
Nsg16
I11
sbag2
(g3
g4
NtRp1427
(dp1428
g7
Nsg8
Nsg9
V\u6625\u5206\u306e\u65e5
p1429
sg11
Nsg12
I2002
sg13
I3
sg14
Nsg15
Nsg16
I21
sbag2
(g3
g4
NtRp1430
(dp1431
g7
Nsg8
Nsg9
V\u307f\u3069\u308a\u306e\u65e5
p1432
sg11
Nsg12
I2002
sg13
I4
sg14
Nsg15
Nsg16
I29
sbag2
(g3
g4
NtRp1433
(dp1434
g7
Nsg8
Nsg9
V\u61b2\u6cd5\u8a18\u5ff5\u65e5
p1435
sg11
Nsg12
I2002
sg13
I5
sg14
Nsg15
Nsg16
I3
sbag2
(g3
g4
NtRp1436
(dp1437
g7
Nsg8
Nsg9
V\u56fd\u6c11\u306e\u4f11\u65e5
p1438
sg11
Nsg12
I2002
sg13
I5
sg14
Nsg15
Nsg16
I4
sbag2
(g3
g4
NtRp1439
(dp1440
g7
Nsg8
Nsg9
V\u3053\u3069\u3082\u306e\u65e5
p1441
sg11
Nsg12
I2002
sg13
I5
sg14
Nsg15
Nsg16
I5
sbag2
(g3
g4
NtRp1442
(dp1443
g7
Nsg8
Nsg9
V\u632f\u66ff\u4f11\u65e5
p1444
sg11
Nsg12
I2002
sg13
I5
sg14
Nsg15
Nsg16
I6
sbag2
(g3
g4
NtRp1445
(dp1446
g7
Nsg8
Nsg9
V\u6d77\u306e\u65e5
p1447
sg11
Nsg12
I2002
sg13
I7
sg14
Nsg15
Nsg16
I20
sbag2
(g3
g4
NtRp1448
(dp1449
g7
Nsg8
Nsg9
V\u656c\u8001\u306e\u65e5
p1450
sg11
Nsg12
I2002
sg13
I9
sg14
Nsg15
Nsg16
I15
sbag2
(g3
g4
NtRp1451
(dp1452
g7
Nsg8
Nsg9
V\u632f\u66ff\u4f11\u65e5
p1453
sg11
Nsg12
I2002
sg13
I9
sg14
Nsg15
Nsg16
I16
sbag2
(g3
g4
NtRp1454
(dp1455
g7
Nsg8
Nsg9
V\u79cb\u5206\u306e\u65e5
p1456
sg11
Nsg12
I2002
sg13
I9
sg14
Nsg15
Nsg16
I23
sbag2
(g3
g4
NtRp1457
(dp1458
g7
Nsg8
Nsg9
V\u4f53\u80b2\u306e\u65e5
p1459
sg11
Nsg12
I2002
sg13
I10
sg14
Nsg15
Nsg16
I14
sbag2
(g3
g4
NtRp1460
(dp1461
g7
Nsg8
Nsg9
V\u6587\u5316\u306e\u65e5
p1462
sg11
Nsg12
I2002
sg13
I11
sg14
Nsg15
Nsg16
I3
sbag2
(g3
g4
NtRp1463
(dp1464
g7
Nsg8
Nsg9
V\u632f\u66ff\u4f11\u65e5
p1465
sg11
Nsg12
I2002
sg13
I11
sg14
Nsg15
Nsg16
I4
sbag2
(g3
g4
NtRp1466
(dp1467
g7
Nsg8
Nsg9
V\u52e4\u52b4\u611f\u8b1d\u306e\u65e5
p1468
sg11
Nsg12
I2002
sg13
I11
sg14
Nsg15
Nsg16
I23
sbag2
(g3
g4
NtRp1469
(dp1470
g7
Nsg8
Nsg9
V\u5929\u7687\u8a95\u751f\u65e5
p1471
sg11
Nsg12
I2002
sg13
I12
sg14
Nsg15
Nsg16
I23
sbag2
(g3
g4
NtRp1472
(dp1473
g7
Nsg8
Nsg9
V\u5143\u65e5
p1474
sg11
Nsg12
I2003
sg13
I1
sg14
Nsg15
Nsg16
I1
sbag2
(g3
g4
NtRp1475
(dp1476
g7
Nsg8
Nsg9
V\u6210\u4eba\u306e\u65e5
p1477
sg11
Nsg12
I2003
sg13
I1
sg14
Nsg15
Nsg16
I13
sbag2
(g3
g4
NtRp1478
(dp1479
g7
Nsg8
Nsg9
V\u5efa\u56fd\u8a18\u5ff5\u306e\u65e5
p1480
sg11
Nsg12
I2003
sg13
I2
sg14
Nsg15
Nsg16
I11
sbag2
(g3
g4
NtRp1481
(dp1482
g7
Nsg8
Nsg9
V\u6625\u5206\u306e\u65e5
p1483
sg11
Nsg12
I2003
sg13
I3
sg14
Nsg15
Nsg16
I21
sbag2
(g3
g4
NtRp1484
(dp1485
g7
Nsg8
Nsg9
V\u307f\u3069\u308a\u306e\u65e5
p1486
sg11
Nsg12
I2003
sg13
I4
sg14
Nsg15
Nsg16
I29
sbag2
(g3
g4
NtRp1487
(dp1488
g7
Nsg8
Nsg9
V\u61b2\u6cd5\u8a18\u5ff5\u65e5
p1489
sg11
Nsg12
I2003
sg13
I5
sg14
Nsg15
Nsg16
I3
sbag2
(g3
g4
NtRp1490
(dp1491
g7
Nsg8
Nsg9
V\u3053\u3069\u3082\u306e\u65e5
p1492
sg11
Nsg12
I2003
sg13
I5
sg14
Nsg15
Nsg16
I5
sbag2
(g3
g4
NtRp1493
(dp1494
g7
Nsg8
Nsg9
V\u6d77\u306e\u65e5
p1495
sg11
Nsg12
I2003
sg13
I7
sg14
Nsg15
Nsg16
I21
sbag2
(g3
g4
NtRp1496
(dp1497
g7
Nsg8
Nsg9
V\u656c\u8001\u306e\u65e5
p1498
sg11
Nsg12
I2003
sg13
I9
sg14
Nsg15
Nsg16
I15
sbag2
(g3
g4
NtRp1499
(dp1500
g7
Nsg8
Nsg9
V\u79cb\u5206\u306e\u65e5
p1501
sg11
Nsg12
I2003
sg13
I9
sg14
Nsg15
Nsg16
I23
sbag2
(g3
g4
NtRp1502
(dp1503
g7
Nsg8
Nsg9
V\u4f53\u80b2\u306e\u65e5
p1504
sg11
Nsg12
I2003
sg13
I10
sg14
Nsg15
Nsg16
I13
sbag2
(g3
g4
NtRp1505
(dp1506
g7
Nsg8
Nsg9
V\u6587\u5316\u306e\u65e5
p1507
sg11
Nsg12
I2003
sg13
I11
sg14
Nsg15
Nsg16
I3
sbag2
(g3
g4
NtRp1508
(dp1509
g7
Nsg8
Nsg9
V\u52e4\u52b4\u611f\u8b1d\u306e\u65e5
p1510
sg11
Nsg12
I2003
sg13
I11
sg14
Nsg15
Nsg16
I23
sbag2
(g3
g4
NtRp1511
(dp1512
g7
Nsg8
Nsg9
V\u632f\u66ff\u4f11\u65e5
p1513
sg11
Nsg12
I2003
sg13
I11
sg14
Nsg15
Nsg16
I24
sbag2
(g3
g4
NtRp1514
(dp1515
g7
Nsg8
Nsg9
V\u5929\u7687\u8a95\u751f\u65e5
p1516
sg11
Nsg12
I2003
sg13
I12
sg14
Nsg15
Nsg16
I23
sbag2
(g3
g4
NtRp1517
(dp1518
g7
Nsg8
Nsg9
V\u5143\u65e5
p1519
sg11
Nsg12
I2004
sg13
I1
sg14
Nsg15
Nsg16
I1
sbag2
(g3
g4
NtRp1520
(dp1521
g7
Nsg8
Nsg9
V\u6210\u4eba\u306e\u65e5
p1522
sg11
Nsg12
I2004
sg13
I1
sg14
Nsg15
Nsg16
I12
sbag2
(g3
g4
NtRp1523
(dp1524
g7
Nsg8
Nsg9
V\u5efa\u56fd\u8a18\u5ff5\u306e\u65e5
p1525
sg11
Nsg12
I2004
sg13
I2
sg14
Nsg15
Nsg16
I11
sbag2
(g3
g4
NtRp1526
(dp1527
g7
Nsg8
Nsg9
V\u6625\u5206\u306e\u65e5
p1528
sg11
Nsg12
I2004
sg13
I3
sg14
Nsg15
Nsg16
I20
sbag2
(g3
g4
NtRp1529
(dp1530
g7
Nsg8
Nsg9
V\u307f\u3069\u308a\u306e\u65e5
p1531
sg11
Nsg12
I2004
sg13
I4
sg14
Nsg15
Nsg16
I29
sbag2
(g3
g4
NtRp1532
(dp1533
g7
Nsg8
Nsg9
V\u61b2\u6cd5\u8a18\u5ff5\u65e5
p1534
sg11
Nsg12
I2004
sg13
I5
sg14
Nsg15
Nsg16
I3
sbag2
(g3
g4
NtRp1535
(dp1536
g7
Nsg8
Nsg9
V\u56fd\u6c11\u306e\u4f11\u65e5
p1537
sg11
Nsg12
I2004
sg13
I5
sg14
Nsg15
Nsg16
I4
sbag2
(g3
g4
NtRp1538
(dp1539
g7
Nsg8
Nsg9
V\u3053\u3069\u3082\u306e\u65e5
p1540
sg11
Nsg12
I2004
sg13
I5
sg14
Nsg15
Nsg16
I5
sbag2
(g3
g4
NtRp1541
(dp1542
g7
Nsg8
Nsg9
V\u6d77\u306e\u65e5
p1543
sg11
Nsg12
I2004
sg13
I7
sg14
Nsg15
Nsg16
I19
sbag2
(g3
g4
NtRp1544
(dp1545
g7
Nsg8
Nsg9
V\u656c\u8001\u306e\u65e5
p1546
sg11
Nsg12
I2004
sg13
I9
sg14
Nsg15
Nsg16
I20
sbag2
(g3
g4
NtRp1547
(dp1548
g7
Nsg8
Nsg9
V\u79cb\u5206\u306e\u65e5
p1549
sg11
Nsg12
I2004
sg13
I9
sg14
Nsg15
Nsg16
I23
sbag2
(g3
g4
NtRp1550
(dp1551
g7
Nsg8
Nsg9
V\u4f53\u80b2\u306e\u65e5
p1552
sg11
Nsg12
I2004
sg13
I10
sg14
Nsg15
Nsg16
I11
sbag2
(g3
g4
NtRp1553
(dp1554
g7
Nsg8
Nsg9
V\u6587\u5316\u306e\u65e5
p1555
sg11
Nsg12
I2004
sg13
I11
sg14
Nsg15
Nsg16
I3
sbag2
(g3
g4
NtRp1556
(dp1557
g7
Nsg8
Nsg9
V\u52e4\u52b4\u611f\u8b1d\u306e\u65e5
p1558
sg11
Nsg12
I2004
sg13
I11
sg14
Nsg15
Nsg16
I23
sbag2
(g3
g4
NtRp1559
(dp1560
g7
Nsg8
Nsg9
V\u5929\u7687\u8a95\u751f\u65e5
p1561
sg11
Nsg12
I2004
sg13
I12
sg14
Nsg15
Nsg16
I23
sbag2
(g3
g4
NtRp1562
(dp1563
g7
Nsg8
Nsg9
V\u5143\u65e5
p1564
sg11
Nsg12
I2005
sg13
I1
sg14
Nsg15
Nsg16
I1
sbag2
(g3
g4
NtRp1565
(dp1566
g7
Nsg8
Nsg9
V\u6210\u4eba\u306e\u65e5
p1567
sg11
Nsg12
I2005
sg13
I1
sg14
Nsg15
Nsg16
I10
sbag2
(g3
g4
NtRp1568
(dp1569
g7
Nsg8
Nsg9
V\u5efa\u56fd\u8a18\u5ff5\u306e\u65e5
p1570
sg11
Nsg12
I2005
sg13
I2
sg14
Nsg15
Nsg16
I11
sbag2
(g3
g4
NtRp1571
(dp1572
g7
Nsg8
Nsg9
V\u6625\u5206\u306e\u65e5
p1573
sg11
Nsg12
I2005
sg13
I3
sg14
Nsg15
Nsg16
I20
sbag2
(g3
g4
NtRp1574
(dp1575
g7
Nsg8
Nsg9
V\u632f\u66ff\u4f11\u65e5
p1576
sg11
Nsg12
I2005
sg13
I3
sg14
Nsg15
Nsg16
I21
sbag2
(g3
g4
NtRp1577
(dp1578
g7
Nsg8
Nsg9
V\u307f\u3069\u308a\u306e\u65e5
p1579
sg11
Nsg12
I2005
sg13
I4
sg14
Nsg15
Nsg16
I29
sbag2
(g3
g4
NtRp1580
(dp1581
g7
Nsg8
Nsg9
V\u61b2\u6cd5\u8a18\u5ff5\u65e5
p1582
sg11
Nsg12
I2005
sg13
I5
sg14
Nsg15
Nsg16
I3
sbag2
(g3
g4
NtRp1583
(dp1584
g7
Nsg8
Nsg9
V\u56fd\u6c11\u306e\u4f11\u65e5
p1585
sg11
Nsg12
I2005
sg13
I5
sg14
Nsg15
Nsg16
I4
sbag2
(g3
g4
NtRp1586
(dp1587
g7
Nsg8
Nsg9
V\u3053\u3069\u3082\u306e\u65e5
p1588
sg11
Nsg12
I2005
sg13
I5
sg14
Nsg15
Nsg16
I5
sbag2
(g3
g4
NtRp1589
(dp1590
g7
Nsg8
Nsg9
V\u6d77\u306e\u65e5
p1591
sg11
Nsg12
I2005
sg13
I7
sg14
Nsg15
Nsg16
I18
sbag2
(g3
g4
NtRp1592
(dp1593
g7
Nsg8
Nsg9
V\u656c\u8001\u306e\u65e5
p1594
sg11
Nsg12
I2005
sg13
I9
sg14
Nsg15
Nsg16
I19
sbag2
(g3
g4
NtRp1595
(dp1596
g7
Nsg8
Nsg9
V\u79cb\u5206\u306e\u65e5
p1597
sg11
Nsg12
I2005
sg13
I9
sg14
Nsg15
Nsg16
I23
sbag2
(g3
g4
NtRp1598
(dp1599
g7
Nsg8
Nsg9
V\u4f53\u80b2\u306e\u65e5
p1600
sg11
Nsg12
I2005
sg13
I10
sg14
Nsg15
Nsg16
I10
sbag2
(g3
g4
NtRp1601
(dp1602
g7
Nsg8
Nsg9
V\u6587\u5316\u306e\u65e5
p1603
sg11
Nsg12
I2005
sg13
I11
sg14
Nsg15
Nsg16
I3
sbag2
(g3
g4
NtRp1604
(dp1605
g7
Nsg8
Nsg9
V\u52e4\u52b4\u611f\u8b1d\u306e\u65e5
p1606
sg11
Nsg12
I2005
sg13
I11
sg14
Nsg15
Nsg16
I23
sbag2
(g3
g4
NtRp1607
(dp1608
g7
Nsg8
Nsg9
V\u5929\u7687\u8a95\u751f\u65e5
p1609
sg11
Nsg12
I2005
sg13
I12
sg14
Nsg15
Nsg16
I23
sbag2
(g3
g4
NtRp1610
(dp1611
g7
Nsg8
Nsg9
V\u5143\u65e5
p1612
sg11
Nsg12
I2006
sg13
I1
sg14
Nsg15
Nsg16
I1
sbag2
(g3
g4
NtRp1613
(dp1614
g7
Nsg8
Nsg9
V\u632f\u66ff\u4f11\u65e5
p1615
sg11
Nsg12
I2006
sg13
I1
sg14
Nsg15
Nsg16
I2
sbag2
(g3
g4
NtRp1616
(dp1617
g7
Nsg8
Nsg9
V\u6210\u4eba\u306e\u65e5
p1618
sg11
Nsg12
I2006
sg13
I1
sg14
Nsg15
Nsg16
I9
sbag2
(g3
g4
NtRp1619
(dp1620
g7
Nsg8
Nsg9
V\u5efa\u56fd\u8a18\u5ff5\u306e\u65e5
p1621
sg11
Nsg12
I2006
sg13
I2
sg14
Nsg15
Nsg16
I11
sbag2
(g3
g4
NtRp1622
(dp1623
g7
Nsg8
Nsg9
V\u6625\u5206\u306e\u65e5
p1624
sg11
Nsg12
I2006
sg13
I3
sg14
Nsg15
Nsg16
I21
sbag2
(g3
g4
NtRp1625
(dp1626
g7
Nsg8
Nsg9
V\u307f\u3069\u308a\u306e\u65e5
p1627
sg11
Nsg12
I2006
sg13
I4
sg14
Nsg15
Nsg16
I29
sbag2
(g3
g4
NtRp1628
(dp1629
g7
Nsg8
Nsg9
V\u61b2\u6cd5\u8a18\u5ff5\u65e5
p1630
sg11
Nsg12
I2006
sg13
I5
sg14
Nsg15
Nsg16
I3
sbag2
(g3
g4
NtRp1631
(dp1632
g7
Nsg8
Nsg9
V\u56fd\u6c11\u306e\u4f11\u65e5
p1633
sg11
Nsg12
I2006
sg13
I5
sg14
Nsg15
Nsg16
I4
sbag2
(g3
g4
NtRp1634
(dp1635
g7
Nsg8
Nsg9
V\u3053\u3069\u3082\u306e\u65e5
p1636
sg11
Nsg12
I2006
sg13
I5
sg14
Nsg15
Nsg16
I5
sbag2
(g3
g4
NtRp1637
(dp1638
g7
Nsg8
Nsg9
V\u6d77\u306e\u65e5
p1639
sg11
Nsg12
I2006
sg13
I7
sg14
Nsg15
Nsg16
I17
sbag2
(g3
g4
NtRp1640
(dp1641
g7
Nsg8
Nsg9
V\u656c\u8001\u306e\u65e5
p1642
sg11
Nsg12
I2006
sg13
I9
sg14
Nsg15
Nsg16
I18
sbag2
(g3
g4
NtRp1643
(dp1644
g7
Nsg8
Nsg9
V\u79cb\u5206\u306e\u65e5
p1645
sg11
Nsg12
I2006
sg13
I9
sg14
Nsg15
Nsg16
I23
sbag2
(g3
g4
NtRp1646
(dp1647
g7
Nsg8
Nsg9
V\u4f53\u80b2\u306e\u65e5
p1648
sg11
Nsg12
I2006
sg13
I10
sg14
Nsg15
Nsg16
I9
sbag2
(g3
g4
NtRp1649
(dp1650
g7
Nsg8
Nsg9
V\u6587\u5316\u306e\u65e5
p1651
sg11
Nsg12
I2006
sg13
I11
sg14
Nsg15
Nsg16
I3
sbag2
(g3
g4
NtRp1652
(dp1653
g7
Nsg8
Nsg9
V\u52e4\u52b4\u611f\u8b1d\u306e\u65e5
p1654
sg11
Nsg12
I2006
sg13
I11
sg14
Nsg15
Nsg16
I23
sbag2
(g3
g4
NtRp1655
(dp1656
g7
Nsg8
Nsg9
V\u5929\u7687\u8a95\u751f\u65e5
p1657
sg11
Nsg12
I2006
sg13
I12
sg14
Nsg15
Nsg16
I23
sbag2
(g3
g4
NtRp1658
(dp1659
g7
Nsg8
Nsg9
V\u5143\u65e5
p1660
sg11
Nsg12
I2007
sg13
I1
sg14
Nsg15
Nsg16
I1
sbag2
(g3
g4
NtRp1661
(dp1662
g7
Nsg8
Nsg9
V\u6210\u4eba\u306e\u65e5
p1663
sg11
Nsg12
I2007
sg13
I1
sg14
Nsg15
Nsg16
I8
sbag2
(g3
g4
NtRp1664
(dp1665
g7
Nsg8
Nsg9
V\u5efa\u56fd\u8a18\u5ff5\u306e\u65e5
p1666
sg11
Nsg12
I2007
sg13
I2
sg14
Nsg15
Nsg16
I11
sbag2
(g3
g4
NtRp1667
(dp1668
g7
Nsg8
Nsg9
V\u632f\u66ff\u4f11\u65e5
p1669
sg11
Nsg12
I2007
sg13
I2
sg14
Nsg15
Nsg16
I12
sbag2
(g3
g4
NtRp1670
(dp1671
g7
Nsg8
Nsg9
V\u6625\u5206\u306e\u65e5
p1672
sg11
Nsg12
I2007
sg13
I3
sg14
Nsg15
Nsg16
I21
sbag2
(g3
g4
NtRp1673
(dp1674
g7
Nsg8
Nsg9
V\u662d\u548c\u306e\u65e5
p1675
sg11
Nsg12
I2007
sg13
I4
sg14
Nsg15
Nsg16
I29
sbag2
(g3
g4
NtRp1676
(dp1677
g7
Nsg8
Nsg9
V\u632f\u66ff\u4f11\u65e5
p1678
sg11
Nsg12
I2007
sg13
I4
sg14
Nsg15
Nsg16
I30
sbag2
(g3
g4
NtRp1679
(dp1680
g7
Nsg8
Nsg9
V\u61b2\u6cd5\u8a18\u5ff5\u65e5
p1681
sg11
Nsg12
I2007
sg13
I5
sg14
Nsg15
Nsg16
I3
sbag2
(g3
g4
NtRp1682
(dp1683
g7
Nsg8
Nsg9
V\u307f\u3069\u308a\u306e\u65e5
p1684
sg11
Nsg12
I2007
sg13
I5
sg14
Nsg15
Nsg16
I4
sbag2
(g3
g4
NtRp1685
(dp1686
g7
Nsg8
Nsg9
V\u3053\u3069\u3082\u306e\u65e5
p1687
sg11
Nsg12
I2007
sg13
I5
sg14
Nsg15
Nsg16
I5
sbag2
(g3
g4
NtRp1688
(dp1689
g7
Nsg8
Nsg9
V\u6d77\u306e\u65e5
p1690
sg11
Nsg12
I2007
sg13
I7
sg14
Nsg15
Nsg16
I16
sbag2
(g3
g4
NtRp1691
(dp1692
g7
Nsg8
Nsg9
V\u656c\u8001\u306e\u65e5
p1693
sg11
Nsg12
I2007
sg13
I9
sg14
Nsg15
Nsg16
I17
sbag2
(g3
g4
NtRp1694
(dp1695
g7
Nsg8
Nsg9
V\u79cb\u5206\u306e\u65e5
p1696
sg11
Nsg12
I2007
sg13
I9
sg14
Nsg15
Nsg16
I23
sbag2
(g3
g4
NtRp1697
(dp1698
g7
Nsg8
Nsg9
V\u632f\u66ff\u4f11\u65e5
p1699
sg11
Nsg12
I2007
sg13
I9
sg14
Nsg15
Nsg16
I24
sbag2
(g3
g4
NtRp1700
(dp1701
g7
Nsg8
Nsg9
V\u4f53\u80b2\u306e\u65e5
p1702
sg11
Nsg12
I2007
sg13
I10
sg14
Nsg15
Nsg16
I8
sbag2
(g3
g4
NtRp1703
(dp1704
g7
Nsg8
Nsg9
V\u6587\u5316\u306e\u65e5
p1705
sg11
Nsg12
I2007
sg13
I11
sg14
Nsg15
Nsg16
I3
sbag2
(g3
g4
NtRp1706
(dp1707
g7
Nsg8
Nsg9
V\u52e4\u52b4\u611f\u8b1d\u306e\u65e5
p1708
sg11
Nsg12
I2007
sg13
I11
sg14
Nsg15
Nsg16
I23
sbag2
(g3
g4
NtRp1709
(dp1710
g7
Nsg8
Nsg9
V\u5929\u7687\u8a95\u751f\u65e5
p1711
sg11
Nsg12
I2007
sg13
I12
sg14
Nsg15
Nsg16
I23
sbag2
(g3
g4
NtRp1712
(dp1713
g7
Nsg8
Nsg9
V\u632f\u66ff\u4f11\u65e5
p1714
sg11
Nsg12
I2007
sg13
I12
sg14
Nsg15
Nsg16
I24
sbag2
(g3
g4
NtRp1715
(dp1716
g7
Nsg8
Nsg9
V\u5143\u65e5
p1717
sg11
Nsg12
I2008
sg13
I1
sg14
Nsg15
Nsg16
I1
sbag2
(g3
g4
NtRp1718
(dp1719
g7
Nsg8
Nsg9
V\u6210\u4eba\u306e\u65e5
p1720
sg11
Nsg12
I2008
sg13
I1
sg14
Nsg15
Nsg16
I14
sbag2
(g3
g4
NtRp1721
(dp1722
g7
Nsg8
Nsg9
V\u5efa\u56fd\u8a18\u5ff5\u306e\u65e5
p1723
sg11
Nsg12
I2008
sg13
I2
sg14
Nsg15
Nsg16
I11
sbag2
(g3
g4
NtRp1724
(dp1725
g7
Nsg8
Nsg9
V\u6625\u5206\u306e\u65e5
p1726
sg11
Nsg12
I2008
sg13
I3
sg14
Nsg15
Nsg16
I20
sbag2
(g3
g4
NtRp1727
(dp1728
g7
Nsg8
Nsg9
V\u662d\u548c\u306e\u65e5
p1729
sg11
Nsg12
I2008
sg13
I4
sg14
Nsg15
Nsg16
I29
sbag2
(g3
g4
NtRp1730
(dp1731
g7
Nsg8
Nsg9
V\u61b2\u6cd5\u8a18\u5ff5\u65e5
p1732
sg11
Nsg12
I2008
sg13
I5
sg14
Nsg15
Nsg16
I3
sbag2
(g3
g4
NtRp1733
(dp1734
g7
Nsg8
Nsg9
V\u307f\u3069\u308a\u306e\u65e5
p1735
sg11
Nsg12
I2008
sg13
I5
sg14
Nsg15
Nsg16
I4
sbag2
(g3
g4
NtRp1736
(dp1737
g7
Nsg8
Nsg9
V\u3053\u3069\u3082\u306e\u65e5
p1738
sg11
Nsg12
I2008
sg13
I5
sg14
Nsg15
Nsg16
I5
sbag2
(g3
g4
NtRp1739
(dp1740
g7
Nsg8
Nsg9
V\u632f\u66ff\u4f11\u65e5
p1741
sg11
Nsg12
I2008
sg13
I5
sg14
Nsg15
Nsg16
I6
sbag2
(g3
g4
NtRp1742
(dp1743
g7
Nsg8
Nsg9
V\u6d77\u306e\u65e5
p1744
sg11
Nsg12
I2008
sg13
I7
sg14
Nsg15
Nsg16
I21
sbag2
(g3
g4
NtRp1745
(dp1746
g7
Nsg8
Nsg9
V\u656c\u8001\u306e\u65e5
p1747
sg11
Nsg12
I2008
sg13
I9
sg14
Nsg15
Nsg16
I15
sbag2
(g3
g4
NtRp1748
(dp1749
g7
Nsg8
Nsg9
V\u79cb\u5206\u306e\u65e5
p1750
sg11
Nsg12
I2008
sg13
I9
sg14
Nsg15
Nsg16
I23
sbag2
(g3
g4
NtRp1751
(dp1752
g7
Nsg8
Nsg9
V\u4f53\u80b2\u306e\u65e5
p1753
sg11
Nsg12
I2008
sg13
I10
sg14
Nsg15
Nsg16
I13
sbag2
(g3
g4
NtRp1754
(dp1755
g7
Nsg8
Nsg9
V\u6587\u5316\u306e\u65e5
p1756
sg11
Nsg12
I2008
sg13
I11
sg14
Nsg15
Nsg16
I3
sbag2
(g3
g4
NtRp1757
(dp1758
g7
Nsg8
Nsg9
V\u52e4\u52b4\u611f\u8b1d\u306e\u65e5
p1759
sg11
Nsg12
I2008
sg13
I11
sg14
Nsg15
Nsg16
I23
sbag2
(g3
g4
NtRp1760
(dp1761
g7
Nsg8
Nsg9
V\u632f\u66ff\u4f11\u65e5
p1762
sg11
Nsg12
I2008
sg13
I11
sg14
Nsg15
Nsg16
I24
sbag2
(g3
g4
NtRp1763
(dp1764
g7
Nsg8
Nsg9
V\u5929\u7687\u8a95\u751f\u65e5
p1765
sg11
Nsg12
I2008
sg13
I12
sg14
Nsg15
Nsg16
I23
sbag2
(g3
g4
NtRp1766
(dp1767
g7
Nsg8
Nsg9
V\u5143\u65e5
p1768
sg11
Nsg12
I2009
sg13
I1
sg14
Nsg15
Nsg16
I1
sbag2
(g3
g4
NtRp1769
(dp1770
g7
Nsg8
Nsg9
V\u6210\u4eba\u306e\u65e5
p1771
sg11
Nsg12
I2009
sg13
I1
sg14
Nsg15
Nsg16
I12
sbag2
(g3
g4
NtRp1772
(dp1773
g7
Nsg8
Nsg9
V\u5efa\u56fd\u8a18\u5ff5\u306e\u65e5
p1774
sg11
Nsg12
I2009
sg13
I2
sg14
Nsg15
Nsg16
I11
sbag2
(g3
g4
NtRp1775
(dp1776
g7
Nsg8
Nsg9
V\u6625\u5206\u306e\u65e5
p1777
sg11
Nsg12
I2009
sg13
I3
sg14
Nsg15
Nsg16
I20
sbag2
(g3
g4
NtRp1778
(dp1779
g7
Nsg8
Nsg9
V\u662d\u548c\u306e\u65e5
p1780
sg11
Nsg12
I2009
sg13
I4
sg14
Nsg15
Nsg16
I29
sbag2
(g3
g4
NtRp1781
(dp1782
g7
Nsg8
Nsg9
V\u61b2\u6cd5\u8a18\u5ff5\u65e5
p1783
sg11
Nsg12
I2009
sg13
I5
sg14
Nsg15
Nsg16
I3
sbag2
(g3
g4
NtRp1784
(dp1785
g7
Nsg8
Nsg9
V\u307f\u3069\u308a\u306e\u65e5
p1786
sg11
Nsg12
I2009
sg13
I5
sg14
Nsg15
Nsg16
I4
sbag2
(g3
g4
NtRp1787
(dp1788
g7
Nsg8
Nsg9
V\u3053\u3069\u3082\u306e\u65e5
p1789
sg11
Nsg12
I2009
sg13
I5
sg14
Nsg15
Nsg16
I5
sbag2
(g3
g4
NtRp1790
(dp1791
g7
Nsg8
Nsg9
V\u632f\u66ff\u4f11\u65e5
p1792
sg11
Nsg12
I2009
sg13
I5
sg14
Nsg15
Nsg16
I6
sbag2
(g3
g4
NtRp1793
(dp1794
g7
Nsg8
Nsg9
V\u6d77\u306e\u65e5
p1795
sg11
Nsg12
I2009
sg13
I7
sg14
Nsg15
Nsg16
I20
sbag2
(g3
g4
NtRp1796
(dp1797
g7
Nsg8
Nsg9
V\u656c\u8001\u306e\u65e5
p1798
sg11
Nsg12
I2009
sg13
I9
sg14
Nsg15
Nsg16
I21
sbag2
(g3
g4
NtRp1799
(dp1800
g7
Nsg8
Nsg9
V\u56fd\u6c11\u306e\u4f11\u65e5
p1801
sg11
Nsg12
I2009
sg13
I9
sg14
Nsg15
Nsg16
I22
sbag2
(g3
g4
NtRp1802
(dp1803
g7
Nsg8
Nsg9
V\u79cb\u5206\u306e\u65e5
p1804
sg11
Nsg12
I2009
sg13
I9
sg14
Nsg15
Nsg16
I23
sbag2
(g3
g4
NtRp1805
(dp1806
g7
Nsg8
Nsg9
V\u4f53\u80b2\u306e\u65e5
p1807
sg11
Nsg12
I2009
sg13
I10
sg14
Nsg15
Nsg16
I12
sbag2
(g3
g4
NtRp1808
(dp1809
g7
Nsg8
Nsg9
V\u6587\u5316\u306e\u65e5
p1810
sg11
Nsg12
I2009
sg13
I11
sg14
Nsg15
Nsg16
I3
sbag2
(g3
g4
NtRp1811
(dp1812
g7
Nsg8
Nsg9
V\u52e4\u52b4\u611f\u8b1d\u306e\u65e5
p1813
sg11
Nsg12
I2009
sg13
I11
sg14
Nsg15
Nsg16
I23
sbag2
(g3
g4
NtRp1814
(dp1815
g7
Nsg8
Nsg9
V\u5929\u7687\u8a95\u751f\u65e5
p1816
sg11
Nsg12
I2009
sg13
I12
sg14
Nsg15
Nsg16
I23
sbag2
(g3
g4
NtRp1817
(dp1818
g7
Nsg8
Nsg9
V\u5143\u65e5
p1819
sg11
Nsg12
I2010
sg13
I1
sg14
Nsg15
Nsg16
I1
sbag2
(g3
g4
NtRp1820
(dp1821
g7
Nsg8
Nsg9
V\u6210\u4eba\u306e\u65e5
p1822
sg11
Nsg12
I2010
sg13
I1
sg14
Nsg15
Nsg16
I11
sbag2
(g3
g4
NtRp1823
(dp1824
g7
Nsg8
Nsg9
V\u5efa\u56fd\u8a18\u5ff5\u306e\u65e5
p1825
sg11
Nsg12
I2010
sg13
I2
sg14
Nsg15
Nsg16
I11
sbag2
(g3
g4
NtRp1826
(dp1827
g7
Nsg8
Nsg9
V\u6625\u5206\u306e\u65e5
p1828
sg11
Nsg12
I2010
sg13
I3
sg14
Nsg15
Nsg16
I21
sbag2
(g3
g4
NtRp1829
(dp1830
g7
Nsg8
Nsg9
V\u632f\u66ff\u4f11\u65e5
p1831
sg11
Nsg12
I2010
sg13
I3
sg14
Nsg15
Nsg16
I22
sbag2
(g3
g4
NtRp1832
(dp1833
g7
Nsg8
Nsg9
V\u662d\u548c\u306e\u65e5
p1834
sg11
Nsg12
I2010
sg13
I4
sg14
Nsg15
Nsg16
I29
sbag2
(g3
g4
NtRp1835
(dp1836
g7
Nsg8
Nsg9
V\u61b2\u6cd5\u8a18\u5ff5\u65e5
p1837
sg11
Nsg12
I2010
sg13
I5
sg14
Nsg15
Nsg16
I3
sbag2
(g3
g4
NtRp1838
(dp1839
g7
Nsg8
Nsg9
V\u307f\u3069\u308a\u306e\u65e5
p1840
sg11
Nsg12
I2010
sg13
I5
sg14
Nsg15
Nsg16
I4
sbag2
(g3
g4
NtRp1841
(dp1842
g7
Nsg8
Nsg9
V\u3053\u3069\u3082\u306e\u65e5
p1843
sg11
Nsg12
I2010
sg13
I5
sg14
Nsg15
Nsg16
I5
sbag2
(g3
g4
NtRp1844
(dp1845
g7
Nsg8
Nsg9
V\u6d77\u306e\u65e5
p1846
sg11
Nsg12
I2010
sg13
I7
sg14
Nsg15
Nsg16
I19
sbag2
(g3
g4
NtRp1847
(dp1848
g7
Nsg8
Nsg9
V\u656c\u8001\u306e\u65e5
p1849
sg11
Nsg12
I2010
sg13
I9
sg14
Nsg15
Nsg16
I20
sbag2
(g3
g4
NtRp1850
(dp1851
g7
Nsg8
Nsg9
V\u79cb\u5206\u306e\u65e5
p1852
sg11
Nsg12
I2010
sg13
I9
sg14
Nsg15
Nsg16
I23
sbag2
(g3
g4
NtRp1853
(dp1854
g7
Nsg8
Nsg9
V\u4f53\u80b2\u306e\u65e5
p1855
sg11
Nsg12
I2010
sg13
I10
sg14
Nsg15
Nsg16
I11
sbag2
(g3
g4
NtRp1856
(dp1857
g7
Nsg8
Nsg9
V\u6587\u5316\u306e\u65e5
p1858
sg11
Nsg12
I2010
sg13
I11
sg14
Nsg15
Nsg16
I3
sbag2
(g3
g4
NtRp1859
(dp1860
g7
Nsg8
Nsg9
V\u52e4\u52b4\u611f\u8b1d\u306e\u65e5
p1861
sg11
Nsg12
I2010
sg13
I11
sg14
Nsg15
Nsg16
I23
sbag2
(g3
g4
NtRp1862
(dp1863
g7
Nsg8
Nsg9
V\u5929\u7687\u8a95\u751f\u65e5
p1864
sg11
Nsg12
I2010
sg13
I12
sg14
Nsg15
Nsg16
I23
sbag2
(g3
g4
NtRp1865
(dp1866
g7
Nsg8
Nsg9
V\u5143\u65e5
p1867
sg11
Nsg12
I2011
sg13
I1
sg14
Nsg15
Nsg16
I1
sbag2
(g3
g4
NtRp1868
(dp1869
g7
Nsg8
Nsg9
V\u6210\u4eba\u306e\u65e5
p1870
sg11
Nsg12
I2011
sg13
I1
sg14
Nsg15
Nsg16
I10
sbag2
(g3
g4
NtRp1871
(dp1872
g7
Nsg8
Nsg9
V\u5efa\u56fd\u8a18\u5ff5\u306e\u65e5
p1873
sg11
Nsg12
I2011
sg13
I2
sg14
Nsg15
Nsg16
I11
sbag2
(g3
g4
NtRp1874
(dp1875
g7
Nsg8
Nsg9
V\u6625\u5206\u306e\u65e5
p1876
sg11
Nsg12
I2011
sg13
I3
sg14
Nsg15
Nsg16
I21
sbag2
(g3
g4
NtRp1877
(dp1878
g7
Nsg8
Nsg9
V\u662d\u548c\u306e\u65e5
p1879
sg11
Nsg12
I2011
sg13
I4
sg14
Nsg15
Nsg16
I29
sbag2
(g3
g4
NtRp1880
(dp1881
g7
Nsg8
Nsg9
V\u61b2\u6cd5\u8a18\u5ff5\u65e5
p1882
sg11
Nsg12
I2011
sg13
I5
sg14
Nsg15
Nsg16
I3
sbag2
(g3
g4
NtRp1883
(dp1884
g7
Nsg8
Nsg9
V\u307f\u3069\u308a\u306e\u65e5
p1885
sg11
Nsg12
I2011
sg13
I5
sg14
Nsg15
Nsg16
I4
sbag2
(g3
g4
NtRp1886
(dp1887
g7
Nsg8
Nsg9
V\u3053\u3069\u3082\u306e\u65e5
p1888
sg11
Nsg12
I2011
sg13
I5
sg14
Nsg15
Nsg16
I5
sbag2
(g3
g4
NtRp1889
(dp1890
g7
Nsg8
Nsg9
V\u6d77\u306e\u65e5
p1891
sg11
Nsg12
I2011
sg13
I7
sg14
Nsg15
Nsg16
I18
sbag2
(g3
g4
NtRp1892
(dp1893
g7
Nsg8
Nsg9
V\u656c\u8001\u306e\u65e5
p1894
sg11
Nsg12
I2011
sg13
I9
sg14
Nsg15
Nsg16
I19
sbag2
(g3
g4
NtRp1895
(dp1896
g7
Nsg8
Nsg9
V\u79cb\u5206\u306e\u65e5
p1897
sg11
Nsg12
I2011
sg13
I9
sg14
Nsg15
Nsg16
I23
sbag2
(g3
g4
NtRp1898
(dp1899
g7
Nsg8
Nsg9
V\u4f53\u80b2\u306e\u65e5
p1900
sg11
Nsg12
I2011
sg13
I10
sg14
Nsg15
Nsg16
I10
sbag2
(g3
g4
NtRp1901
(dp1902
g7
Nsg8
Nsg9
V\u6587\u5316\u306e\u65e5
p1903
sg11
Nsg12
I2011
sg13
I11
sg14
Nsg15
Nsg16
I3
sbag2
(g3
g4
NtRp1904
(dp1905
g7
Nsg8
Nsg9
V\u52e4\u52b4\u611f\u8b1d\u306e\u65e5
p1906
sg11
Nsg12
I2011
sg13
I11
sg14
Nsg15
Nsg16
I23
sbag2
(g3
g4
NtRp1907
(dp1908
g7
Nsg8
Nsg9
V\u5929\u7687\u8a95\u751f\u65e5
p1909
sg11
Nsg12
I2011
sg13
I12
sg14
Nsg15
Nsg16
I23
sbag2
(g3
g4
NtRp1910
(dp1911
g7
Nsg8
Nsg9
V\u5143\u65e5
p1912
sg11
Nsg12
I2012
sg13
I1
sg14
Nsg15
Nsg16
I1
sbag2
(g3
g4
NtRp1913
(dp1914
g7
Nsg8
Nsg9
V\u632f\u66ff\u4f11\u65e5
p1915
sg11
Nsg12
I2012
sg13
I1
sg14
Nsg15
Nsg16
I2
sbag2
(g3
g4
NtRp1916
(dp1917
g7
Nsg8
Nsg9
V\u6210\u4eba\u306e\u65e5
p1918
sg11
Nsg12
I2012
sg13
I1
sg14
Nsg15
Nsg16
I9
sbag2
(g3
g4
NtRp1919
(dp1920
g7
Nsg8
Nsg9
V\u5efa\u56fd\u8a18\u5ff5\u306e\u65e5
p1921
sg11
Nsg12
I2012
sg13
I2
sg14
Nsg15
Nsg16
I11
sbag2
(g3
g4
NtRp1922
(dp1923
g7
Nsg8
Nsg9
V\u6625\u5206\u306e\u65e5
p1924
sg11
Nsg12
I2012
sg13
I3
sg14
Nsg15
Nsg16
I20
sbag2
(g3
g4
NtRp1925
(dp1926
g7
Nsg8
Nsg9
V\u662d\u548c\u306e\u65e5
p1927
sg11
Nsg12
I2012
sg13
I4
sg14
Nsg15
Nsg16
I29
sbag2
(g3
g4
NtRp1928
(dp1929
g7
Nsg8
Nsg9
V\u632f\u66ff\u4f11\u65e5
p1930
sg11
Nsg12
I2012
sg13
I4
sg14
Nsg15
Nsg16
I30
sbag2
(g3
g4
NtRp1931
(dp1932
g7
Nsg8
Nsg9
V\u61b2\u6cd5\u8a18\u5ff5\u65e5
p1933
sg11
Nsg12
I2012
sg13
I5
sg14
Nsg15
Nsg16
I3
sbag2
(g3
g4
NtRp1934
(dp1935
g7
Nsg8
Nsg9
V\u307f\u3069\u308a\u306e\u65e5
p1936
sg11
Nsg12
I2012
sg13
I5
sg14
Nsg15
Nsg16
I4
sbag2
(g3
g4
NtRp1937
(dp1938
g7
Nsg8
Nsg9
V\u3053\u3069\u3082\u306e\u65e5
p1939
sg11
Nsg12
I2012
sg13
I5
sg14
Nsg15
Nsg16
I5
sbag2
(g3
g4
NtRp1940
(dp1941
g7
Nsg8
Nsg9
V\u6d77\u306e\u65e5
p1942
sg11
Nsg12
I2012
sg13
I7
sg14
Nsg15
Nsg16
I16
sbag2
(g3
g4
NtRp1943
(dp1944
g7
Nsg8
Nsg9
V\u656c\u8001\u306e\u65e5
p1945
sg11
Nsg12
I2012
sg13
I9
sg14
Nsg15
Nsg16
I17
sbag2
(g3
g4
NtRp1946
(dp1947
g7
Nsg8
Nsg9
V\u79cb\u5206\u306e\u65e5
p1948
sg11
Nsg12
I2012
sg13
I9
sg14
Nsg15
Nsg16
I22
sbag2
(g3
g4
NtRp1949
(dp1950
g7
Nsg8
Nsg9
V\u4f53\u80b2\u306e\u65e5
p1951
sg11
Nsg12
I2012
sg13
I10
sg14
Nsg15
Nsg16
I8
sbag2
(g3
g4
NtRp1952
(dp1953
g7
Nsg8
Nsg9
V\u6587\u5316\u306e\u65e5
p1954
sg11
Nsg12
I2012
sg13
I11
sg14
Nsg15
Nsg16
I3
sbag2
(g3
g4
NtRp1955
(dp1956
g7
Nsg8
Nsg9
V\u52e4\u52b4\u611f\u8b1d\u306e\u65e5
p1957
sg11
Nsg12
I2012
sg13
I11
sg14
Nsg15
Nsg16
I23
sbag2
(g3
g4
NtRp1958
(dp1959
g7
Nsg8
Nsg9
V\u5929\u7687\u8a95\u751f\u65e5
p1960
sg11
Nsg12
I2012
sg13
I12
sg14
Nsg15
Nsg16
I23
sbag2
(g3
g4
NtRp1961
(dp1962
g7
Nsg8
Nsg9
V\u632f\u66ff\u4f11\u65e5
p1963
sg11
Nsg12
I2012
sg13
I12
sg14
Nsg15
Nsg16
I24
sbag2
(g3
g4
NtRp1964
(dp1965
g7
Nsg8
Nsg9
V\u5143\u65e5
p1966
sg11
Nsg12
I2013
sg13
I1
sg14
Nsg15
Nsg16
I1
sbag2
(g3
g4
NtRp1967
(dp1968
g7
Nsg8
Nsg9
V\u6210\u4eba\u306e\u65e5
p1969
sg11
Nsg12
I2013
sg13
I1
sg14
Nsg15
Nsg16
I14
sbag2
(g3
g4
NtRp1970
(dp1971
g7
Nsg8
Nsg9
V\u5efa\u56fd\u8a18\u5ff5\u306e\u65e5
p1972
sg11
Nsg12
I2013
sg13
I2
sg14
Nsg15
Nsg16
I11
sbag2
(g3
g4
NtRp1973
(dp1974
g7
Nsg8
Nsg9
V\u6625\u5206\u306e\u65e5
p1975
sg11
Nsg12
I2013
sg13
I3
sg14
Nsg15
Nsg16
I20
sbag2
(g3
g4
NtRp1976
(dp1977
g7
Nsg8
Nsg9
V\u662d\u548c\u306e\u65e5
p1978
sg11
Nsg12
I2013
sg13
I4
sg14
Nsg15
Nsg16
I29
sbag2
(g3
g4
NtRp1979
(dp1980
g7
Nsg8
Nsg9
V\u61b2\u6cd5\u8a18\u5ff5\u65e5
p1981
sg11
Nsg12
I2013
sg13
I5
sg14
Nsg15
Nsg16
I3
sbag2
(g3
g4
NtRp1982
(dp1983
g7
Nsg8
Nsg9
V\u307f\u3069\u308a\u306e\u65e5
p1984
sg11
Nsg12
I2013
sg13
I5
sg14
Nsg15
Nsg16
I4
sbag2
(g3
g4
NtRp1985
(dp1986
g7
Nsg8
Nsg9
V\u3053\u3069\u3082\u306e\u65e5
p1987
sg11
Nsg12
I2013
sg13
I5
sg14
Nsg15
Nsg16
I5
sbag2
(g3
g4
NtRp1988
(dp1989
g7
Nsg8
Nsg9
V\u632f\u66ff\u4f11\u65e5
p1990
sg11
Nsg12
I2013
sg13
I5
sg14
Nsg15
Nsg16
I6
sbag2
(g3
g4
NtRp1991
(dp1992
g7
Nsg8
Nsg9
V\u6d77\u306e\u65e5
p1993
sg11
Nsg12
I2013
sg13
I7
sg14
Nsg15
Nsg16
I15
sbag2
(g3
g4
NtRp1994
(dp1995
g7
Nsg8
Nsg9
V\u656c\u8001\u306e\u65e5
p1996
sg11
Nsg12
I2013
sg13
I9
sg14
Nsg15
Nsg16
I16
sbag2
(g3
g4
NtRp1997
(dp1998
g7
Nsg8
Nsg9
V\u79cb\u5206\u306e\u65e5
p1999
sg11
Nsg12
I2013
sg13
I9
sg14
Nsg15
Nsg16
I23
sbag2
(g3
g4
NtRp2000
(dp2001
g7
Nsg8
Nsg9
V\u4f53\u80b2\u306e\u65e5
p2002
sg11
Nsg12
I2013
sg13
I10
sg14
Nsg15
Nsg16
I14
sbag2
(g3
g4
NtRp2003
(dp2004
g7
Nsg8
Nsg9
V\u6587\u5316\u306e\u65e5
p2005
sg11
Nsg12
I2013
sg13
I11
sg14
Nsg15
Nsg16
I3
sbag2
(g3
g4
NtRp2006
(dp2007
g7
Nsg8
Nsg9
V\u632f\u66ff\u4f11\u65e5
p2008
sg11
Nsg12
I2013
sg13
I11
sg14
Nsg15
Nsg16
I4
sbag2
(g3
g4
NtRp2009
(dp2010
g7
Nsg8
Nsg9
V\u52e4\u52b4\u611f\u8b1d\u306e\u65e5
p2011
sg11
Nsg12
I2013
sg13
I11
sg14
Nsg15
Nsg16
I23
sbag2
(g3
g4
NtRp2012
(dp2013
g7
Nsg8
Nsg9
V\u5929\u7687\u8a95\u751f\u65e5
p2014
sg11
Nsg12
I2013
sg13
I12
sg14
Nsg15
Nsg16
I23
sbag2
(g3
g4
NtRp2015
(dp2016
g7
Nsg8
Nsg9
V\u5143\u65e5
p2017
sg11
Nsg12
I2014
sg13
I1
sg14
Nsg15
Nsg16
I1
sbag2
(g3
g4
NtRp2018
(dp2019
g7
Nsg8
Nsg9
V\u6210\u4eba\u306e\u65e5
p2020
sg11
Nsg12
I2014
sg13
I1
sg14
Nsg15
Nsg16
I13
sbag2
(g3
g4
NtRp2021
(dp2022
g7
Nsg8
Nsg9
V\u5efa\u56fd\u8a18\u5ff5\u306e\u65e5
p2023
sg11
Nsg12
I2014
sg13
I2
sg14
Nsg15
Nsg16
I11
sbag2
(g3
g4
NtRp2024
(dp2025
g7
Nsg8
Nsg9
V\u6625\u5206\u306e\u65e5
p2026
sg11
Nsg12
I2014
sg13
I3
sg14
Nsg15
Nsg16
I21
sbag2
(g3
g4
NtRp2027
(dp2028
g7
Nsg8
Nsg9
V\u662d\u548c\u306e\u65e5
p2029
sg11
Nsg12
I2014
sg13
I4
sg14
Nsg15
Nsg16
I29
sbag2
(g3
g4
NtRp2030
(dp2031
g7
Nsg8
Nsg9
V\u61b2\u6cd5\u8a18\u5ff5\u65e5
p2032
sg11
Nsg12
I2014
sg13
I5
sg14
Nsg15
Nsg16
I3
sbag2
(g3
g4
NtRp2033
(dp2034
g7
Nsg8
Nsg9
V\u307f\u3069\u308a\u306e\u65e5
p2035
sg11
Nsg12
I2014
sg13
I5
sg14
Nsg15
Nsg16
I4
sbag2
(g3
g4
NtRp2036
(dp2037
g7
Nsg8
Nsg9
V\u3053\u3069\u3082\u306e\u65e5
p2038
sg11
Nsg12
I2014
sg13
I5
sg14
Nsg15
Nsg16
I5
sbag2
(g3
g4
NtRp2039
(dp2040
g7
Nsg8
Nsg9
V\u632f\u66ff\u4f11\u65e5
p2041
sg11
Nsg12
I2014
sg13
I5
sg14
Nsg15
Nsg16
I6
sbag2
(g3
g4
NtRp2042
(dp2043
g7
Nsg8
Nsg9
V\u6d77\u306e\u65e5
p2044
sg11
Nsg12
I2014
sg13
I7
sg14
Nsg15
Nsg16
I21
sbag2
(g3
g4
NtRp2045
(dp2046
g7
Nsg8
Nsg9
V\u656c\u8001\u306e\u65e5
p2047
sg11
Nsg12
I2014
sg13
I9
sg14
Nsg15
Nsg16
I15
sbag2
(g3
g4
NtRp2048
(dp2049
g7
Nsg8
Nsg9
V\u79cb\u5206\u306e\u65e5
p2050
sg11
Nsg12
I2014
sg13
I9
sg14
Nsg15
Nsg16
I23
sbag2
(g3
g4
NtRp2051
(dp2052
g7
Nsg8
Nsg9
V\u4f53\u80b2\u306e\u65e5
p2053
sg11
Nsg12
I2014
sg13
I10
sg14
Nsg15
Nsg16
I13
sbag2
(g3
g4
NtRp2054
(dp2055
g7
Nsg8
Nsg9
V\u6587\u5316\u306e\u65e5
p2056
sg11
Nsg12
I2014
sg13
I11
sg14
Nsg15
Nsg16
I3
sbag2
(g3
g4
NtRp2057
(dp2058
g7
Nsg8
Nsg9
V\u52e4\u52b4\u611f\u8b1d\u306e\u65e5
p2059
sg11
Nsg12
I2014
sg13
I11
sg14
Nsg15
Nsg16
I23
sbag2
(g3
g4
NtRp2060
(dp2061
g7
Nsg8
Nsg9
V\u632f\u66ff\u4f11\u65e5
p2062
sg11
Nsg12
I2014
sg13
I11
sg14
Nsg15
Nsg16
I24
sbag2
(g3
g4
NtRp2063
(dp2064
g7
Nsg8
Nsg9
V\u5929\u7687\u8a95\u751f\u65e5
p2065
sg11
Nsg12
I2014
sg13
I12
sg14
Nsg15
Nsg16
I23
sbag2
(g3
g4
NtRp2066
(dp2067
g7
Nsg8
Nsg9
V\u5143\u65e5
p2068
sg11
Nsg12
I2015
sg13
I1
sg14
Nsg15
Nsg16
I1
sbag2
(g3
g4
NtRp2069
(dp2070
g7
Nsg8
Nsg9
V\u6210\u4eba\u306e\u65e5
p2071
sg11
Nsg12
I2015
sg13
I1
sg14
Nsg15
Nsg16
I12
sbag2
(g3
g4
NtRp2072
(dp2073
g7
Nsg8
Nsg9
V\u5efa\u56fd\u8a18\u5ff5\u306e\u65e5
p2074
sg11
Nsg12
I2015
sg13
I2
sg14
Nsg15
Nsg16
I11
sbag2
(g3
g4
NtRp2075
(dp2076
g7
Nsg8
Nsg9
V\u6625\u5206\u306e\u65e5
p2077
sg11
Nsg12
I2015
sg13
I3
sg14
Nsg15
Nsg16
I21
sbag2
(g3
g4
NtRp2078
(dp2079
g7
Nsg8
Nsg9
V\u662d\u548c\u306e\u65e5
p2080
sg11
Nsg12
I2015
sg13
I4
sg14
Nsg15
Nsg16
I29
sbag2
(g3
g4
NtRp2081
(dp2082
g7
Nsg8
Nsg9
V\u61b2\u6cd5\u8a18\u5ff5\u65e5
p2083
sg11
Nsg12
I2015
sg13
I5
sg14
Nsg15
Nsg16
I3
sbag2
(g3
g4
NtRp2084
(dp2085
g7
Nsg8
Nsg9
V\u307f\u3069\u308a\u306e\u65e5
p2086
sg11
Nsg12
I2015
sg13
I5
sg14
Nsg15
Nsg16
I4
sbag2
(g3
g4
NtRp2087
(dp2088
g7
Nsg8
Nsg9
V\u3053\u3069\u3082\u306e\u65e5
p2089
sg11
Nsg12
I2015
sg13
I5
sg14
Nsg15
Nsg16
I5
sbag2
(g3
g4
NtRp2090
(dp2091
g7
Nsg8
Nsg9
V\u632f\u66ff\u4f11\u65e5
p2092
sg11
Nsg12
I2015
sg13
I5
sg14
Nsg15
Nsg16
I6
sbag2
(g3
g4
NtRp2093
(dp2094
g7
Nsg8
Nsg9
V\u6d77\u306e\u65e5
p2095
sg11
Nsg12
I2015
sg13
I7
sg14
Nsg15
Nsg16
I20
sbag2
(g3
g4
NtRp2096
(dp2097
g7
Nsg8
Nsg9
V\u656c\u8001\u306e\u65e5
p2098
sg11
Nsg12
I2015
sg13
I9
sg14
Nsg15
Nsg16
I21
sbag2
(g3
g4
NtRp2099
(dp2100
g7
Nsg8
Nsg9
V\u56fd\u6c11\u306e\u4f11\u65e5
p2101
sg11
Nsg12
I2015
sg13
I9
sg14
Nsg15
Nsg16
I22
sbag2
(g3
g4
NtRp2102
(dp2103
g7
Nsg8
Nsg9
V\u79cb\u5206\u306e\u65e5
p2104
sg11
Nsg12
I2015
sg13
I9
sg14
Nsg15
Nsg16
I23
sbag2
(g3
g4
NtRp2105
(dp2106
g7
Nsg8
Nsg9
V\u4f53\u80b2\u306e\u65e5
p2107
sg11
Nsg12
I2015
sg13
I10
sg14
Nsg15
Nsg16
I12
sbag2
(g3
g4
NtRp2108
(dp2109
g7
Nsg8
Nsg9
V\u6587\u5316\u306e\u65e5
p2110
sg11
Nsg12
I2015
sg13
I11
sg14
Nsg15
Nsg16
I3
sbag2
(g3
g4
NtRp2111
(dp2112
g7
Nsg8
Nsg9
V\u52e4\u52b4\u611f\u8b1d\u306e\u65e5
p2113
sg11
Nsg12
I2015
sg13
I11
sg14
Nsg15
Nsg16
I23
sbag2
(g3
g4
NtRp2114
(dp2115
g7
Nsg8
Nsg9
V\u5929\u7687\u8a95\u751f\u65e5
p2116
sg11
Nsg12
I2015
sg13
I12
sg14
Nsg15
Nsg16
I23
sbag2
(g3
g4
NtRp2117
(dp2118
g7
Nsg8
Nsg9
V\u5143\u65e5
p2119
sg11
Nsg12
I2016
sg13
I1
sg14
Nsg15
Nsg16
I1
sbag2
(g3
g4
NtRp2120
(dp2121
g7
Nsg8
Nsg9
V\u6210\u4eba\u306e\u65e5
p2122
sg11
Nsg12
I2016
sg13
I1
sg14
Nsg15
Nsg16
I11
sbag2
(g3
g4
NtRp2123
(dp2124
g7
Nsg8
Nsg9
V\u5efa\u56fd\u8a18\u5ff5\u306e\u65e5
p2125
sg11
Nsg12
I2016
sg13
I2
sg14
Nsg15
Nsg16
I11
sbag2
(g3
g4
NtRp2126
(dp2127
g7
Nsg8
Nsg9
V\u6625\u5206\u306e\u65e5
p2128
sg11
Nsg12
I2016
sg13
I3
sg14
Nsg15
Nsg16
I20
sbag2
(g3
g4
NtRp2129
(dp2130
g7
Nsg8
Nsg9
V\u632f\u66ff\u4f11\u65e5
p2131
sg11
Nsg12
I2016
sg13
I3
sg14
Nsg15
Nsg16
I21
sbag2
(g3
g4
NtRp2132
(dp2133
g7
Nsg8
Nsg9
V\u662d\u548c\u306e\u65e5
p2134
sg11
Nsg12
I2016
sg13
I4
sg14
Nsg15
Nsg16
I29
sbag2
(g3
g4
NtRp2135
(dp2136
g7
Nsg8
Nsg9
V\u61b2\u6cd5\u8a18\u5ff5\u65e5
p2137
sg11
Nsg12
I2016
sg13
I5
sg14
Nsg15
Nsg16
I3
sbag2
(g3
g4
NtRp2138
(dp2139
g7
Nsg8
Nsg9
V\u307f\u3069\u308a\u306e\u65e5
p2140
sg11
Nsg12
I2016
sg13
I5
sg14
Nsg15
Nsg16
I4
sbag2
(g3
g4
NtRp2141
(dp2142
g7
Nsg8
Nsg9
V\u3053\u3069\u3082\u306e\u65e5
p2143
sg11
Nsg12
I2016
sg13
I5
sg14
Nsg15
Nsg16
I5
sbag2
(g3
g4
NtRp2144
(dp2145
g7
Nsg8
Nsg9
V\u6d77\u306e\u65e5
p2146
sg11
Nsg12
I2016
sg13
I7
sg14
Nsg15
Nsg16
I18
sbag2
(g3
g4
NtRp2147
(dp2148
g7
Nsg8
Nsg9
V\u5c71\u306e\u65e5
p2149
sg11
Nsg12
I2016
sg13
I8
sg14
Nsg15
Nsg16
I11
sbag2
(g3
g4
NtRp2150
(dp2151
g7
Nsg8
Nsg9
V\u656c\u8001\u306e\u65e5
p2152
sg11
Nsg12
I2016
sg13
I9
sg14
Nsg15
Nsg16
I19
sbag2
(g3
g4
NtRp2153
(dp2154
g7
Nsg8
Nsg9
V\u79cb\u5206\u306e\u65e5
p2155
sg11
Nsg12
I2016
sg13
I9
sg14
Nsg15
Nsg16
I22
sbag2
(g3
g4
NtRp2156
(dp2157
g7
Nsg8
Nsg9
V\u4f53\u80b2\u306e\u65e5
p2158
sg11
Nsg12
I2016
sg13
I10
sg14
Nsg15
Nsg16
I10
sbag2
(g3
g4
NtRp2159
(dp2160
g7
Nsg8
Nsg9
V\u6587\u5316\u306e\u65e5
p2161
sg11
Nsg12
I2016
sg13
I11
sg14
Nsg15
Nsg16
I3
sbag2
(g3
g4
NtRp2162
(dp2163
g7
Nsg8
Nsg9
V\u52e4\u52b4\u611f\u8b1d\u306e\u65e5
p2164
sg11
Nsg12
I2016
sg13
I11
sg14
Nsg15
Nsg16
I23
sbag2
(g3
g4
NtRp2165
(dp2166
g7
Nsg8
Nsg9
V\u5929\u7687\u8a95\u751f\u65e5
p2167
sg11
Nsg12
I2016
sg13
I12
sg14
Nsg15
Nsg16
I23
sbag2
(g3
g4
NtRp2168
(dp2169
g7
Nsg8
Nsg9
V\u5143\u65e5
p2170
sg11
Nsg12
I2017
sg13
I1
sg14
Nsg15
Nsg16
I1
sbag2
(g3
g4
NtRp2171
(dp2172
g7
Nsg8
Nsg9
V\u632f\u66ff\u4f11\u65e5
p2173
sg11
Nsg12
I2017
sg13
I1
sg14
Nsg15
Nsg16
I2
sbag2
(g3
g4
NtRp2174
(dp2175
g7
Nsg8
Nsg9
V\u6210\u4eba\u306e\u65e5
p2176
sg11
Nsg12
I2017
sg13
I1
sg14
Nsg15
Nsg16
I9
sbag2
(g3
g4
NtRp2177
(dp2178
g7
Nsg8
Nsg9
V\u5efa\u56fd\u8a18\u5ff5\u306e\u65e5
p2179
sg11
Nsg12
I2017
sg13
I2
sg14
Nsg15
Nsg16
I11
sbag2
(g3
g4
NtRp2180
(dp2181
g7
Nsg8
Nsg9
V\u6625\u5206\u306e\u65e5
p2182
sg11
Nsg12
I2017
sg13
I3
sg14
Nsg15
Nsg16
I20
sbag2
(g3
g4
NtRp2183
(dp2184
g7
Nsg8
Nsg9
V\u662d\u548c\u306e\u65e5
p2185
sg11
Nsg12
I2017
sg13
I4
sg14
Nsg15
Nsg16
I29
sbag2
(g3
g4
NtRp2186
(dp2187
g7
Nsg8
Nsg9
V\u61b2\u6cd5\u8a18\u5ff5\u65e5
p2188
sg11
Nsg12
I2017
sg13
I5
sg14
Nsg15
Nsg16
I3
sbag2
(g3
g4
NtRp2189
(dp2190
g7
Nsg8
Nsg9
V\u307f\u3069\u308a\u306e\u65e5
p2191
sg11
Nsg12
I2017
sg13
I5
sg14
Nsg15
Nsg16
I4
sbag2
(g3
g4
NtRp2192
(dp2193
g7
Nsg8
Nsg9
V\u3053\u3069\u3082\u306e\u65e5
p2194
sg11
Nsg12
I2017
sg13
I5
sg14
Nsg15
Nsg16
I5
sbag2
(g3
g4
NtRp2195
(dp2196
g7
Nsg8
Nsg9
V\u6d77\u306e\u65e5
p2197
sg11
Nsg12
I2017
sg13
I7
sg14
Nsg15
Nsg16
I17
sbag2
(g3
g4
NtRp2198
(dp2199
g7
Nsg8
Nsg9
V\u5c71\u306e\u65e5
p2200
sg11
Nsg12
I2017
sg13
I8
sg14
Nsg15
Nsg16
I11
sbag2
(g3
g4
NtRp2201
(dp2202
g7
Nsg8
Nsg9
V\u656c\u8001\u306e\u65e5
p2203
sg11
Nsg12
I2017
sg13
I9
sg14
Nsg15
Nsg16
I18
sbag2
(g3
g4
NtRp2204
(dp2205
g7
Nsg8
Nsg9
V\u79cb\u5206\u306e\u65e5
p2206
sg11
Nsg12
I2017
sg13
I9
sg14
Nsg15
Nsg16
I23
sbag2
(g3
g4
NtRp2207
(dp2208
g7
Nsg8
Nsg9
V\u4f53\u80b2\u306e\u65e5
p2209
sg11
Nsg12
I2017
sg13
I10
sg14
Nsg15
Nsg16
I9
sbag2
(g3
g4
NtRp2210
(dp2211
g7
Nsg8
Nsg9
V\u6587\u5316\u306e\u65e5
p2212
sg11
Nsg12
I2017
sg13
I11
sg14
Nsg15
Nsg16
I3
sbag2
(g3
g4
NtRp2213
(dp2214
g7
Nsg8
Nsg9
V\u52e4\u52b4\u611f\u8b1d\u306e\u65e5
p2215
sg11
Nsg12
I2017
sg13
I11
sg14
Nsg15
Nsg16
I23
sbag2
(g3
g4
NtRp2216
(dp2217
g7
Nsg8
Nsg9
V\u5929\u7687\u8a95\u751f\u65e5
p2218
sg11
Nsg12
I2017
sg13
I12
sg14
Nsg15
Nsg16
I23
sbag2
(g3
g4
NtRp2219
(dp2220
g7
Nsg8
Nsg9
V\u5143\u65e5
p2221
sg11
Nsg12
I2018
sg13
I1
sg14
Nsg15
Nsg16
I1
sbag2
(g3
g4
NtRp2222
(dp2223
g7
Nsg8
Nsg9
V\u6210\u4eba\u306e\u65e5
p2224
sg11
Nsg12
I2018
sg13
I1
sg14
Nsg15
Nsg16
I8
sbag2
(g3
g4
NtRp2225
(dp2226
g7
Nsg8
Nsg9
V\u5efa\u56fd\u8a18\u5ff5\u306e\u65e5
p2227
sg11
Nsg12
I2018
sg13
I2
sg14
Nsg15
Nsg16
I11
sbag2
(g3
g4
NtRp2228
(dp2229
g7
Nsg8
Nsg9
V\u632f\u66ff\u4f11\u65e5
p2230
sg11
Nsg12
I2018
sg13
I2
sg14
Nsg15
Nsg16
I12
sbag2
(g3
g4
NtRp2231
(dp2232
g7
Nsg8
Nsg9
V\u6625\u5206\u306e\u65e5
p2233
sg11
Nsg12
I2018
sg13
I3
sg14
Nsg15
Nsg16
I21
sbag2
(g3
g4
NtRp2234
(dp2235
g7
Nsg8
Nsg9
V\u662d\u548c\u306e\u65e5
p2236
sg11
Nsg12
I2018
sg13
I4
sg14
Nsg15
Nsg16
I29
sbag2
(g3
g4
NtRp2237
(dp2238
g7
Nsg8
Nsg9
V\u632f\u66ff\u4f11\u65e5
p2239
sg11
Nsg12
I2018
sg13
I4
sg14
Nsg15
Nsg16
I30
sbag2
(g3
g4
NtRp2240
(dp2241
g7
Nsg8
Nsg9
V\u61b2\u6cd5\u8a18\u5ff5\u65e5
p2242
sg11
Nsg12
I2018
sg13
I5
sg14
Nsg15
Nsg16
I3
sbag2
(g3
g4
NtRp2243
(dp2244
g7
Nsg8
Nsg9
V\u307f\u3069\u308a\u306e\u65e5
p2245
sg11
Nsg12
I2018
sg13
I5
sg14
Nsg15
Nsg16
I4
sbag2
(g3
g4
NtRp2246
(dp2247
g7
Nsg8
Nsg9
V\u3053\u3069\u3082\u306e\u65e5
p2248
sg11
Nsg12
I2018
sg13
I5
sg14
Nsg15
Nsg16
I5
sbag2
(g3
g4
NtRp2249
(dp2250
g7
Nsg8
Nsg9
V\u6d77\u306e\u65e5
p2251
sg11
Nsg12
I2018
sg13
I7
sg14
Nsg15
Nsg16
I16
sbag2
(g3
g4
NtRp2252
(dp2253
g7
Nsg8
Nsg9
V\u5c71\u306e\u65e5
p2254
sg11
Nsg12
I2018
sg13
I8
sg14
Nsg15
Nsg16
I11
sbag2
(g3
g4
NtRp2255
(dp2256
g7
Nsg8
Nsg9
V\u656c\u8001\u306e\u65e5
p2257
sg11
Nsg12
I2018
sg13
I9
sg14
Nsg15
Nsg16
I17
sbag2
(g3
g4
NtRp2258
(dp2259
g7
Nsg8
Nsg9
V\u79cb\u5206\u306e\u65e5
p2260
sg11
Nsg12
I2018
sg13
I9
sg14
Nsg15
Nsg16
I23
sbag2
(g3
g4
NtRp2261
(dp2262
g7
Nsg8
Nsg9
V\u632f\u66ff\u4f11\u65e5
p2263
sg11
Nsg12
I2018
sg13
I9
sg14
Nsg15
Nsg16
I24
sbag2
(g3
g4
NtRp2264
(dp2265
g7
Nsg8
Nsg9
V\u4f53\u80b2\u306e\u65e5
p2266
sg11
Nsg12
I2018
sg13
I10
sg14
Nsg15
Nsg16
I8
sbag2
(g3
g4
NtRp2267
(dp2268
g7
Nsg8
Nsg9
V\u6587\u5316\u306e\u65e5
p2269
sg11
Nsg12
I2018
sg13
I11
sg14
Nsg15
Nsg16
I3
sbag2
(g3
g4
NtRp2270
(dp2271
g7
Nsg8
Nsg9
V\u52e4\u52b4\u611f\u8b1d\u306e\u65e5
p2272
sg11
Nsg12
I2018
sg13
I11
sg14
Nsg15
Nsg16
I23
sbag2
(g3
g4
NtRp2273
(dp2274
g7
Nsg8
Nsg9
V\u5929\u7687\u8a95\u751f\u65e5
p2275
sg11
Nsg12
I2018
sg13
I12
sg14
Nsg15
Nsg16
I23
sbag2
(g3
g4
NtRp2276
(dp2277
g7
Nsg8
Nsg9
V\u632f\u66ff\u4f11\u65e5
p2278
sg11
Nsg12
I2018
sg13
I12
sg14
Nsg15
Nsg16
I24
sbag2
(g3
g4
NtRp2279
(dp2280
g7
Nsg8
Nsg9
V\u5143\u65e5
p2281
sg11
Nsg12
I2019
sg13
I1
sg14
Nsg15
Nsg16
I1
sbag2
(g3
g4
NtRp2282
(dp2283
g7
Nsg8
Nsg9
V\u6210\u4eba\u306e\u65e5
p2284
sg11
Nsg12
I2019
sg13
I1
sg14
Nsg15
Nsg16
I14
sbag2
(g3
g4
NtRp2285
(dp2286
g7
Nsg8
Nsg9
V\u5efa\u56fd\u8a18\u5ff5\u306e\u65e5
p2287
sg11
Nsg12
I2019
sg13
I2
sg14
Nsg15
Nsg16
I11
sbag2
(g3
g4
NtRp2288
(dp2289
g7
Nsg8
Nsg9
V\u6625\u5206\u306e\u65e5
p2290
sg11
Nsg12
I2019
sg13
I3
sg14
Nsg15
Nsg16
I21
sbag2
(g3
g4
NtRp2291
(dp2292
g7
Nsg8
Nsg9
V\u662d\u548c\u306e\u65e5
p2293
sg11
Nsg12
I2019
sg13
I4
sg14
Nsg15
Nsg16
I29
sbag2
(g3
g4
NtRp2294
(dp2295
g7
Nsg8
Nsg9
V\u61b2\u6cd5\u8a18\u5ff5\u65e5
p2296
sg11
Nsg12
I2019
sg13
I5
sg14
Nsg15
Nsg16
I3
sbag2
(g3
g4
NtRp2297
(dp2298
g7
Nsg8
Nsg9
V\u307f\u3069\u308a\u306e\u65e5
p2299
sg11
Nsg12
I2019
sg13
I5
sg14
Nsg15
Nsg16
I4
sbag2
(g3
g4
NtRp2300
(dp2301
g7
Nsg8
Nsg9
V\u3053\u3069\u3082\u306e\u65e5
p2302
sg11
Nsg12
I2019
sg13
I5
sg14
Nsg15
Nsg16
I5
sbag2
(g3
g4
NtRp2303
(dp2304
g7
Nsg8
Nsg9
V\u632f\u66ff\u4f11\u65e5
p2305
sg11
Nsg12
I2019
sg13
I5
sg14
Nsg15
Nsg16
I6
sbag2
(g3
g4
NtRp2306
(dp2307
g7
Nsg8
Nsg9
V\u6d77\u306e\u65e5
p2308
sg11
Nsg12
I2019
sg13
I7
sg14
Nsg15
Nsg16
I15
sbag2
(g3
g4
NtRp2309
(dp2310
g7
Nsg8
Nsg9
V\u5c71\u306e\u65e5
p2311
sg11
Nsg12
I2019
sg13
I8
sg14
Nsg15
Nsg16
I11
sbag2
(g3
g4
NtRp2312
(dp2313
g7
Nsg8
Nsg9
V\u632f\u66ff\u4f11\u65e5
p2314
sg11
Nsg12
I2019
sg13
I8
sg14
Nsg15
Nsg16
I12
sbag2
(g3
g4
NtRp2315
(dp2316
g7
Nsg8
Nsg9
V\u656c\u8001\u306e\u65e5
p2317
sg11
Nsg12
I2019
sg13
I9
sg14
Nsg15
Nsg16
I16
sbag2
(g3
g4
NtRp2318
(dp2319
g7
Nsg8
Nsg9
V\u79cb\u5206\u306e\u65e5
p2320
sg11
Nsg12
I2019
sg13
I9
sg14
Nsg15
Nsg16
I23
sbag2
(g3
g4
NtRp2321
(dp2322
g7
Nsg8
Nsg9
V\u4f53\u80b2\u306e\u65e5
p2323
sg11
Nsg12
I2019
sg13
I10
sg14
Nsg15
Nsg16
I14
sbag2
(g3
g4
NtRp2324
(dp2325
g7
Nsg8
Nsg9
V\u6587\u5316\u306e\u65e5
p2326
sg11
Nsg12
I2019
sg13
I11
sg14
Nsg15
Nsg16
I3
sbag2
(g3
g4
NtRp2327
(dp2328
g7
Nsg8
Nsg9
V\u632f\u66ff\u4f11\u65e5
p2329
sg11
Nsg12
I2019
sg13
I11
sg14
Nsg15
Nsg16
I4
sbag2
(g3
g4
NtRp2330
(dp2331
g7
Nsg8
Nsg9
V\u52e4\u52b4\u611f\u8b1d\u306e\u65e5
p2332
sg11
Nsg12
I2019
sg13
I11
sg14
Nsg15
Nsg16
I23
sbag2
(g3
g4
NtRp2333
(dp2334
g7
Nsg8
Nsg9
V\u5929\u7687\u8a95\u751f\u65e5
p2335
sg11
Nsg12
I2019
sg13
I12
sg14
Nsg15
Nsg16
I23
sbag2
(g3
g4
NtRp2336
(dp2337
g7
Nsg8
Nsg9
V\u5143\u65e5
p2338
sg11
Nsg12
I2020
sg13
I1
sg14
Nsg15
Nsg16
I1
sbag2
(g3
g4
NtRp2339
(dp2340
g7
Nsg8
Nsg9
V\u6210\u4eba\u306e\u65e5
p2341
sg11
Nsg12
I2020
sg13
I1
sg14
Nsg15
Nsg16
I13
sbag2
(g3
g4
NtRp2342
(dp2343
g7
Nsg8
Nsg9
V\u5efa\u56fd\u8a18\u5ff5\u306e\u65e5
p2344
sg11
Nsg12
I2020
sg13
I2
sg14
Nsg15
Nsg16
I11
sbag2
(g3
g4
NtRp2345
(dp2346
g7
Nsg8
Nsg9
V\u6625\u5206\u306e\u65e5
p2347
sg11
Nsg12
I2020
sg13
I3
sg14
Nsg15
Nsg16
I20
sbag2
(g3
g4
NtRp2348
(dp2349
g7
Nsg8
Nsg9
V\u662d\u548c\u306e\u65e5
p2350
sg11
Nsg12
I2020
sg13
I4
sg14
Nsg15
Nsg16
I29
sbag2
(g3
g4
NtRp2351
(dp2352
g7
Nsg8
Nsg9
V\u61b2\u6cd5\u8a18\u5ff5\u65e5
p2353
sg11
Nsg12
I2020
sg13
I5
sg14
Nsg15
Nsg16
I3
sbag2
(g3
g4
NtRp2354
(dp2355
g7
Nsg8
Nsg9
V\u307f\u3069\u308a\u306e\u65e5
p2356
sg11
Nsg12
I2020
sg13
I5
sg14
Nsg15
Nsg16
I4
sbag2
(g3
g4
NtRp2357
(dp2358
g7
Nsg8
Nsg9
V\u3053\u3069\u3082\u306e\u65e5
p2359
sg11
Nsg12
I2020
sg13
I5
sg14
Nsg15
Nsg16
I5
sbag2
(g3
g4
NtRp2360
(dp2361
g7
Nsg8
Nsg9
V\u632f\u66ff\u4f11\u65e5
p2362
sg11
Nsg12
I2020
sg13
I5
sg14
Nsg15
Nsg16
I6
sbag2
(g3
g4
NtRp2363
(dp2364
g7
Nsg8
Nsg9
V\u6d77\u306e\u65e5
p2365
sg11
Nsg12
I2020
sg13
I7
sg14
Nsg15
Nsg16
I20
sbag2
(g3
g4
NtRp2366
(dp2367
g7
Nsg8
Nsg9
V\u5c71\u306e\u65e5
p2368
sg11
Nsg12
I2020
sg13
I8
sg14
Nsg15
Nsg16
I11
sbag2
(g3
g4
NtRp2369
(dp2370
g7
Nsg8
Nsg9
V\u656c\u8001\u306e\u65e5
p2371
sg11
Nsg12
I2020
sg13
I9
sg14
Nsg15
Nsg16
I21
sbag2
(g3
g4
NtRp2372
(dp2373
g7
Nsg8
Nsg9
V\u79cb\u5206\u306e\u65e5
p2374
sg11
Nsg12
I2020
sg13
I9
sg14
Nsg15
Nsg16
I22
sbag2
(g3
g4
NtRp2375
(dp2376
g7
Nsg8
Nsg9
V\u4f53\u80b2\u306e\u65e5
p2377
sg11
Nsg12
I2020
sg13
I10
sg14
Nsg15
Nsg16
I12
sbag2
(g3
g4
NtRp2378
(dp2379
g7
Nsg8
Nsg9
V\u6587\u5316\u306e\u65e5
p2380
sg11
Nsg12
I2020
sg13
I11
sg14
Nsg15
Nsg16
I3
sbag2
(g3
g4
NtRp2381
(dp2382
g7
Nsg8
Nsg9
V\u52e4\u52b4\u611f\u8b1d\u306e\u65e5
p2383
sg11
Nsg12
I2020
sg13
I11
sg14
Nsg15
Nsg16
I23
sbag2
(g3
g4
NtRp2384
(dp2385
g7
Nsg8
Nsg9
V\u5929\u7687\u8a95\u751f\u65e5
p2386
sg11
Nsg12
I2020
sg13
I12
sg14
Nsg15
Nsg16
I23
sbag2
(g3
g4
NtRp2387
(dp2388
g7
Nsg8
Nsg9
V\u5143\u65e5
p2389
sg11
Nsg12
I2021
sg13
I1
sg14
Nsg15
Nsg16
I1
sbag2
(g3
g4
NtRp2390
(dp2391
g7
Nsg8
Nsg9
V\u6210\u4eba\u306e\u65e5
p2392
sg11
Nsg12
I2021
sg13
I1
sg14
Nsg15
Nsg16
I11
sbag2
(g3
g4
NtRp2393
(dp2394
g7
Nsg8
Nsg9
V\u5efa\u56fd\u8a18\u5ff5\u306e\u65e5
p2395
sg11
Nsg12
I2021
sg13
I2
sg14
Nsg15
Nsg16
I11
sbag2
(g3
g4
NtRp2396
(dp2397
g7
Nsg8
Nsg9
V\u6625\u5206\u306e\u65e5
p2398
sg11
Nsg12
I2021
sg13
I3
sg14
Nsg15
Nsg16
I20
sbag2
(g3
g4
NtRp2399
(dp2400
g7
Nsg8
Nsg9
V\u662d\u548c\u306e\u65e5
p2401
sg11
Nsg12
I2021
sg13
I4
sg14
Nsg15
Nsg16
I29
sbag2
(g3
g4
NtRp2402
(dp2403
g7
Nsg8
Nsg9
V\u61b2\u6cd5\u8a18\u5ff5\u65e5
p2404
sg11
Nsg12
I2021
sg13
I5
sg14
Nsg15
Nsg16
I3
sbag2
(g3
g4
NtRp2405
(dp2406
g7
Nsg8
Nsg9
V\u307f\u3069\u308a\u306e\u65e5
p2407
sg11
Nsg12
I2021
sg13
I5
sg14
Nsg15
Nsg16
I4
sbag2
(g3
g4
NtRp2408
(dp2409
g7
Nsg8
Nsg9
V\u3053\u3069\u3082\u306e\u65e5
p2410
sg11
Nsg12
I2021
sg13
I5
sg14
Nsg15
Nsg16
I5
sbag2
(g3
g4
NtRp2411
(dp2412
g7
Nsg8
Nsg9
V\u6d77\u306e\u65e5
p2413
sg11
Nsg12
I2021
sg13
I7
sg14
Nsg15
Nsg16
I19
sbag2
(g3
g4
NtRp2414
(dp2415
g7
Nsg8
Nsg9
V\u5c71\u306e\u65e5
p2416
sg11
Nsg12
I2021
sg13
I8
sg14
Nsg15
Nsg16
I11
sbag2
(g3
g4
NtRp2417
(dp2418
g7
Nsg8
Nsg9
V\u656c\u8001\u306e\u65e5
p2419
sg11
Nsg12
I2021
sg13
I9
sg14
Nsg15
Nsg16
I20
sbag2
(g3
g4
NtRp2420
(dp2421
g7
Nsg8
Nsg9
V\u79cb\u5206\u306e\u65e5
p2422
sg11
Nsg12
I2021
sg13
I9
sg14
Nsg15
Nsg16
I23
sbag2
(g3
g4
NtRp2423
(dp2424
g7
Nsg8
Nsg9
V\u4f53\u80b2\u306e\u65e5
p2425
sg11
Nsg12
I2021
sg13
I10
sg14
Nsg15
Nsg16
I11
sbag2
(g3
g4
NtRp2426
(dp2427
g7
Nsg8
Nsg9
V\u6587\u5316\u306e\u65e5
p2428
sg11
Nsg12
I2021
sg13
I11
sg14
Nsg15
Nsg16
I3
sbag2
(g3
g4
NtRp2429
(dp2430
g7
Nsg8
Nsg9
V\u52e4\u52b4\u611f\u8b1d\u306e\u65e5
p2431
sg11
Nsg12
I2021
sg13
I11
sg14
Nsg15
Nsg16
I23
sbag2
(g3
g4
NtRp2432
(dp2433
g7
Nsg8
Nsg9
V\u5929\u7687\u8a95\u751f\u65e5
p2434
sg11
Nsg12
I2021
sg13
I12
sg14
Nsg15
Nsg16
I23
sbag2
(g3
g4
NtRp2435
(dp2436
g7
Nsg8
Nsg9
V\u5143\u65e5
p2437
sg11
Nsg12
I2022
sg13
I1
sg14
Nsg15
Nsg16
I1
sbag2
(g3
g4
NtRp2438
(dp2439
g7
Nsg8
Nsg9
V\u6210\u4eba\u306e\u65e5
p2440
sg11
Nsg12
I2022
sg13
I1
sg14
Nsg15
Nsg16
I10
sbag2
(g3
g4
NtRp2441
(dp2442
g7
Nsg8
Nsg9
V\u5efa\u56fd\u8a18\u5ff5\u306e\u65e5
p2443
sg11
Nsg12
I2022
sg13
I2
sg14
Nsg15
Nsg16
I11
sbag2
(g3
g4
NtRp2444
(dp2445
g7
Nsg8
Nsg9
V\u6625\u5206\u306e\u65e5
p2446
sg11
Nsg12
I2022
sg13
I3
sg14
Nsg15
Nsg16
I21
sbag2
(g3
g4
NtRp2447
(dp2448
g7
Nsg8
Nsg9
V\u662d\u548c\u306e\u65e5
p2449
sg11
Nsg12
I2022
sg13
I4
sg14
Nsg15
Nsg16
I29
sbag2
(g3
g4
NtRp2450
(dp2451
g7
Nsg8
Nsg9
V\u61b2\u6cd5\u8a18\u5ff5\u65e5
p2452
sg11
Nsg12
I2022
sg13
I5
sg14
Nsg15
Nsg16
I3
sbag2
(g3
g4
NtRp2453
(dp2454
g7
Nsg8
Nsg9
V\u307f\u3069\u308a\u306e\u65e5
p2455
sg11
Nsg12
I2022
sg13
I5
sg14
Nsg15
Nsg16
I4
sbag2
(g3
g4
NtRp2456
(dp2457
g7
Nsg8
Nsg9
V\u3053\u3069\u3082\u306e\u65e5
p2458
sg11
Nsg12
I2022
sg13
I5
sg14
Nsg15
Nsg16
I5
sbag2
(g3
g4
NtRp2459
(dp2460
g7
Nsg8
Nsg9
V\u6d77\u306e\u65e5
p2461
sg11
Nsg12
I2022
sg13
I7
sg14
Nsg15
Nsg16
I18
sbag2
(g3
g4
NtRp2462
(dp2463
g7
Nsg8
Nsg9
V\u5c71\u306e\u65e5
p2464
sg11
Nsg12
I2022
sg13
I8
sg14
Nsg15
Nsg16
I11
sbag2
(g3
g4
NtRp2465
(dp2466
g7
Nsg8
Nsg9
V\u656c\u8001\u306e\u65e5
p2467
sg11
Nsg12
I2022
sg13
I9
sg14
Nsg15
Nsg16
I19
sbag2
(g3
g4
NtRp2468
(dp2469
g7
Nsg8
Nsg9
V\u79cb\u5206\u306e\u65e5
p2470
sg11
Nsg12
I2022
sg13
I9
sg14
Nsg15
Nsg16
I23
sbag2
(g3
g4
NtRp2471
(dp2472
g7
Nsg8
Nsg9
V\u4f53\u80b2\u306e\u65e5
p2473
sg11
Nsg12
I2022
sg13
I10
sg14
Nsg15
Nsg16
I10
sbag2
(g3
g4
NtRp2474
(dp2475
g7
Nsg8
Nsg9
V\u6587\u5316\u306e\u65e5
p2476
sg11
Nsg12
I2022
sg13
I11
sg14
Nsg15
Nsg16
I3
sbag2
(g3
g4
NtRp2477
(dp2478
g7
Nsg8
Nsg9
V\u52e4\u52b4\u611f\u8b1d\u306e\u65e5
p2479
sg11
Nsg12
I2022
sg13
I11
sg14
Nsg15
Nsg16
I23
sbag2
(g3
g4
NtRp2480
(dp2481
g7
Nsg8
Nsg9
V\u5929\u7687\u8a95\u751f\u65e5
p2482
sg11
Nsg12
I2022
sg13
I12
sg14
Nsg15
Nsg16
I23
sbag2
(g3
g4
NtRp2483
(dp2484
g7
Nsg8
Nsg9
V\u5143\u65e5
p2485
sg11
Nsg12
I2023
sg13
I1
sg14
Nsg15
Nsg16
I1
sbag2
(g3
g4
NtRp2486
(dp2487
g7
Nsg8
Nsg9
V\u632f\u66ff\u4f11\u65e5
p2488
sg11
Nsg12
I2023
sg13
I1
sg14
Nsg15
Nsg16
I2
sbag2
(g3
g4
NtRp2489
(dp2490
g7
Nsg8
Nsg9
V\u6210\u4eba\u306e\u65e5
p2491
sg11
Nsg12
I2023
sg13
I1
sg14
Nsg15
Nsg16
I9
sbag2
(g3
g4
NtRp2492
(dp2493
g7
Nsg8
Nsg9
V\u5efa\u56fd\u8a18\u5ff5\u306e\u65e5
p2494
sg11
Nsg12
I2023
sg13
I2
sg14
Nsg15
Nsg16
I11
sbag2
(g3
g4
NtRp2495
(dp2496
g7
Nsg8
Nsg9
V\u6625\u5206\u306e\u65e5
p2497
sg11
Nsg12
I2023
sg13
I3
sg14
Nsg15
Nsg16
I21
sbag2
(g3
g4
NtRp2498
(dp2499
g7
Nsg8
Nsg9
V\u662d\u548c\u306e\u65e5
p2500
sg11
Nsg12
I2023
sg13
I4
sg14
Nsg15
Nsg16
I29
sbag2
(g3
g4
NtRp2501
(dp2502
g7
Nsg8
Nsg9
V\u61b2\u6cd5\u8a18\u5ff5\u65e5
p2503
sg11
Nsg12
I2023
sg13
I5
sg14
Nsg15
Nsg16
I3
sbag2
(g3
g4
NtRp2504
(dp2505
g7
Nsg8
Nsg9
V\u307f\u3069\u308a\u306e\u65e5
p2506
sg11
Nsg12
I2023
sg13
I5
sg14
Nsg15
Nsg16
I4
sbag2
(g3
g4
NtRp2507
(dp2508
g7
Nsg8
Nsg9
V\u3053\u3069\u3082\u306e\u65e5
p2509
sg11
Nsg12
I2023
sg13
I5
sg14
Nsg15
Nsg16
I5
sbag2
(g3
g4
NtRp2510
(dp2511
g7
Nsg8
Nsg9
V\u6d77\u306e\u65e5
p2512
sg11
Nsg12
I2023
sg13
I7
sg14
Nsg15
Nsg16
I17
sbag2
(g3
g4
NtRp2513
(dp2514
g7
Nsg8
Nsg9
V\u5c71\u306e\u65e5
p2515
sg11
Nsg12
I2023
sg13
I8
sg14
Nsg15
Nsg16
I11
sbag2
(g3
g4
NtRp2516
(dp2517
g7
Nsg8
Nsg9
V\u656c\u8001\u306e\u65e5
p2518
sg11
Nsg12
I2023
sg13
I9
sg14
Nsg15
Nsg16
I18
sbag2
(g3
g4
NtRp2519
(dp2520
g7
Nsg8
Nsg9
V\u79cb\u5206\u306e\u65e5
p2521
sg11
Nsg12
I2023
sg13
I9
sg14
Nsg15
Nsg16
I23
sbag2
(g3
g4
NtRp2522
(dp2523
g7
Nsg8
Nsg9
V\u4f53\u80b2\u306e\u65e5
p2524
sg11
Nsg12
I2023
sg13
I10
sg14
Nsg15
Nsg16
I9
sbag2
(g3
g4
NtRp2525
(dp2526
g7
Nsg8
Nsg9
V\u6587\u5316\u306e\u65e5
p2527
sg11
Nsg12
I2023
sg13
I11
sg14
Nsg15
Nsg16
I3
sbag2
(g3
g4
NtRp2528
(dp2529
g7
Nsg8
Nsg9
V\u52e4\u52b4\u611f\u8b1d\u306e\u65e5
p2530
sg11
Nsg12
I2023
sg13
I11
sg14
Nsg15
Nsg16
I23
sbag2
(g3
g4
NtRp2531
(dp2532
g7
Nsg8
Nsg9
V\u5929\u7687\u8a95\u751f\u65e5
p2533
sg11
Nsg12
I2023
sg13
I12
sg14
Nsg15
Nsg16
I23
sbag2
(g3
g4
NtRp2534
(dp2535
g7
Nsg8
Nsg9
V\u5143\u65e5
p2536
sg11
Nsg12
I2024
sg13
I1
sg14
Nsg15
Nsg16
I1
sbag2
(g3
g4
NtRp2537
(dp2538
g7
Nsg8
Nsg9
V\u6210\u4eba\u306e\u65e5
p2539
sg11
Nsg12
I2024
sg13
I1
sg14
Nsg15
Nsg16
I8
sbag2
(g3
g4
NtRp2540
(dp2541
g7
Nsg8
Nsg9
V\u5efa\u56fd\u8a18\u5ff5\u306e\u65e5
p2542
sg11
Nsg12
I2024
sg13
I2
sg14
Nsg15
Nsg16
I11
sbag2
(g3
g4
NtRp2543
(dp2544
g7
Nsg8
Nsg9
V\u632f\u66ff\u4f11\u65e5
p2545
sg11
Nsg12
I2024
sg13
I2
sg14
Nsg15
Nsg16
I12
sbag2
(g3
g4
NtRp2546
(dp2547
g7
Nsg8
Nsg9
V\u6625\u5206\u306e\u65e5
p2548
sg11
Nsg12
I2024
sg13
I3
sg14
Nsg15
Nsg16
I20
sbag2
(g3
g4
NtRp2549
(dp2550
g7
Nsg8
Nsg9
V\u662d\u548c\u306e\u65e5
p2551
sg11
Nsg12
I2024
sg13
I4
sg14
Nsg15
Nsg16
I29
sbag2
(g3
g4
NtRp2552
(dp2553
g7
Nsg8
Nsg9
V\u61b2\u6cd5\u8a18\u5ff5\u65e5
p2554
sg11
Nsg12
I2024
sg13
I5
sg14
Nsg15
Nsg16
I3
sbag2
(g3
g4
NtRp2555
(dp2556
g7
Nsg8
Nsg9
V\u307f\u3069\u308a\u306e\u65e5
p2557
sg11
Nsg12
I2024
sg13
I5
sg14
Nsg15
Nsg16
I4
sbag2
(g3
g4
NtRp2558
(dp2559
g7
Nsg8
Nsg9
V\u3053\u3069\u3082\u306e\u65e5
p2560
sg11
Nsg12
I2024
sg13
I5
sg14
Nsg15
Nsg16
I5
sbag2
(g3
g4
NtRp2561
(dp2562
g7
Nsg8
Nsg9
V\u632f\u66ff\u4f11\u65e5
p2563
sg11
Nsg12
I2024
sg13
I5
sg14
Nsg15
Nsg16
I6
sbag2
(g3
g4
NtRp2564
(dp2565
g7
Nsg8
Nsg9
V\u6d77\u306e\u65e5
p2566
sg11
Nsg12
I2024
sg13
I7
sg14
Nsg15
Nsg16
I15
sbag2
(g3
g4
NtRp2567
(dp2568
g7
Nsg8
Nsg9
V\u5c71\u306e\u65e5
p2569
sg11
Nsg12
I2024
sg13
I8
sg14
Nsg15
Nsg16
I11
sbag2
(g3
g4
NtRp2570
(dp2571
g7
Nsg8
Nsg9
V\u632f\u66ff\u4f11\u65e5
p2572
sg11
Nsg12
I2024
sg13
I8
sg14
Nsg15
Nsg16
I12
sbag2
(g3
g4
NtRp2573
(dp2574
g7
Nsg8
Nsg9
V\u656c\u8001\u306e\u65e5
p2575
sg11
Nsg12
I2024
sg13
I9
sg14
Nsg15
Nsg16
I16
sbag2
(g3
g4
NtRp2576
(dp2577
g7
Nsg8
Nsg9
V\u79cb\u5206\u306e\u65e5
p2578
sg11
Nsg12
I2024
sg13
I9
sg14
Nsg15
Nsg16
I22
sbag2
(g3
g4
NtRp2579
(dp2580
g7
Nsg8
Nsg9
V\u632f\u66ff\u4f11\u65e5
p2581
sg11
Nsg12
I2024
sg13
I9
sg14
Nsg15
Nsg16
I23
sbag2
(g3
g4
NtRp2582
(dp2583
g7
Nsg8
Nsg9
V\u4f53\u80b2\u306e\u65e5
p2584
sg11
Nsg12
I2024
sg13
I10
sg14
Nsg15
Nsg16
I14
sbag2
(g3
g4
NtRp2585
(dp2586
g7
Nsg8
Nsg9
V\u6587\u5316\u306e\u65e5
p2587
sg11
Nsg12
I2024
sg13
I11
sg14
Nsg15
Nsg16
I3
sbag2
(g3
g4
NtRp2588
(dp2589
g7
Nsg8
Nsg9
V\u632f\u66ff\u4f11\u65e5
p2590
sg11
Nsg12
I2024
sg13
I11
sg14
Nsg15
Nsg16
I4
sbag2
(g3
g4
NtRp2591
(dp2592
g7
Nsg8
Nsg9
V\u52e4\u52b4\u611f\u8b1d\u306e\u65e5
p2593
sg11
Nsg12
I2024
sg13
I11
sg14
Nsg15
Nsg16
I23
sbag2
(g3
g4
NtRp2594
(dp2595
g7
Nsg8
Nsg9
V\u5929\u7687\u8a95\u751f\u65e5
p2596
sg11
Nsg12
I2024
sg13
I12
sg14
Nsg15
Nsg16
I23
sbag2
(g3
g4
NtRp2597
(dp2598
g7
Nsg8
Nsg9
V\u5143\u65e5
p2599
sg11
Nsg12
I2025
sg13
I1
sg14
Nsg15
Nsg16
I1
sbag2
(g3
g4
NtRp2600
(dp2601
g7
Nsg8
Nsg9
V\u6210\u4eba\u306e\u65e5
p2602
sg11
Nsg12
I2025
sg13
I1
sg14
Nsg15
Nsg16
I13
sbag2
(g3
g4
NtRp2603
(dp2604
g7
Nsg8
Nsg9
V\u5efa\u56fd\u8a18\u5ff5\u306e\u65e5
p2605
sg11
Nsg12
I2025
sg13
I2
sg14
Nsg15
Nsg16
I11
sbag2
(g3
g4
NtRp2606
(dp2607
g7
Nsg8
Nsg9
V\u6625\u5206\u306e\u65e5
p2608
sg11
Nsg12
I2025
sg13
I3
sg14
Nsg15
Nsg16
I20
sbag2
(g3
g4
NtRp2609
(dp2610
g7
Nsg8
Nsg9
V\u662d\u548c\u306e\u65e5
p2611
sg11
Nsg12
I2025
sg13
I4
sg14
Nsg15
Nsg16
I29
sbag2
(g3
g4
NtRp2612
(dp2613
g7
Nsg8
Nsg9
V\u61b2\u6cd5\u8a18\u5ff5\u65e5
p2614
sg11
Nsg12
I2025
sg13
I5
sg14
Nsg15
Nsg16
I3
sbag2
(g3
g4
NtRp2615
(dp2616
g7
Nsg8
Nsg9
V\u307f\u3069\u308a\u306e\u65e5
p2617
sg11
Nsg12
I2025
sg13
I5
sg14
Nsg15
Nsg16
I4
sbag2
(g3
g4
NtRp2618
(dp2619
g7
Nsg8
Nsg9
V\u3053\u3069\u3082\u306e\u65e5
p2620
sg11
Nsg12
I2025
sg13
I5
sg14
Nsg15
Nsg16
I5
sbag2
(g3
g4
NtRp2621
(dp2622
g7
Nsg8
Nsg9
V\u632f\u66ff\u4f11\u65e5
p2623
sg11
Nsg12
I2025
sg13
I5
sg14
Nsg15
Nsg16
I6
sbag2
(g3
g4
NtRp2624
(dp2625
g7
Nsg8
Nsg9
V\u6d77\u306e\u65e5
p2626
sg11
Nsg12
I2025
sg13
I7
sg14
Nsg15
Nsg16
I21
sbag2
(g3
g4
NtRp2627
(dp2628
g7
Nsg8
Nsg9
V\u5c71\u306e\u65e5
p2629
sg11
Nsg12
I2025
sg13
I8
sg14
Nsg15
Nsg16
I11
sbag2
(g3
g4
NtRp2630
(dp2631
g7
Nsg8
Nsg9
V\u656c\u8001\u306e\u65e5
p2632
sg11
Nsg12
I2025
sg13
I9
sg14
Nsg15
Nsg16
I15
sbag2
(g3
g4
NtRp2633
(dp2634
g7
Nsg8
Nsg9
V\u79cb\u5206\u306e\u65e5
p2635
sg11
Nsg12
I2025
sg13
I9
sg14
Nsg15
Nsg16
I23
sbag2
(g3
g4
NtRp2636
(dp2637
g7
Nsg8
Nsg9
V\u4f53\u80b2\u306e\u65e5
p2638
sg11
Nsg12
I2025
sg13
I10
sg14
Nsg15
Nsg16
I13
sbag2
(g3
g4
NtRp2639
(dp2640
g7
Nsg8
Nsg9
V\u6587\u5316\u306e\u65e5
p2641
sg11
Nsg12
I2025
sg13
I11
sg14
Nsg15
Nsg16
I3
sbag2
(g3
g4
NtRp2642
(dp2643
g7
Nsg8
Nsg9
V\u52e4\u52b4\u611f\u8b1d\u306e\u65e5
p2644
sg11
Nsg12
I2025
sg13
I11
sg14
Nsg15
Nsg16
I23
sbag2
(g3
g4
NtRp2645
(dp2646
g7
Nsg8
Nsg9
V\u632f\u66ff\u4f11\u65e5
p2647
sg11
Nsg12
I2025
sg13
I11
sg14
Nsg15
Nsg16
I24
sbag2
(g3
g4
NtRp2648
(dp2649
g7
Nsg8
Nsg9
V\u5929\u7687\u8a95\u751f\u65e5
p2650
sg11
Nsg12
I2025
sg13
I12
sg14
Nsg15
Nsg16
I23
sbag2
(g3
g4
NtRp2651
(dp2652
g7
Nsg8
Nsg9
V\u5143\u65e5
p2653
sg11
Nsg12
I2026
sg13
I1
sg14
Nsg15
Nsg16
I1
sbag2
(g3
g4
NtRp2654
(dp2655
g7
Nsg8
Nsg9
V\u6210\u4eba\u306e\u65e5
p2656
sg11
Nsg12
I2026
sg13
I1
sg14
Nsg15
Nsg16
I12
sbag2
(g3
g4
NtRp2657
(dp2658
g7
Nsg8
Nsg9
V\u5efa\u56fd\u8a18\u5ff5\u306e\u65e5
p2659
sg11
Nsg12
I2026
sg13
I2
sg14
Nsg15
Nsg16
I11
sbag2
(g3
g4
NtRp2660
(dp2661
g7
Nsg8
Nsg9
V\u6625\u5206\u306e\u65e5
p2662
sg11
Nsg12
I2026
sg13
I3
sg14
Nsg15
Nsg16
I20
sbag2
(g3
g4
NtRp2663
(dp2664
g7
Nsg8
Nsg9
V\u662d\u548c\u306e\u65e5
p2665
sg11
Nsg12
I2026
sg13
I4
sg14
Nsg15
Nsg16
I29
sbag2
(g3
g4
NtRp2666
(dp2667
g7
Nsg8
Nsg9
V\u61b2\u6cd5\u8a18\u5ff5\u65e5
p2668
sg11
Nsg12
I2026
sg13
I5
sg14
Nsg15
Nsg16
I3
sbag2
(g3
g4
NtRp2669
(dp2670
g7
Nsg8
Nsg9
V\u307f\u3069\u308a\u306e\u65e5
p2671
sg11
Nsg12
I2026
sg13
I5
sg14
Nsg15
Nsg16
I4
sbag2
(g3
g4
NtRp2672
(dp2673
g7
Nsg8
Nsg9
V\u3053\u3069\u3082\u306e\u65e5
p2674
sg11
Nsg12
I2026
sg13
I5
sg14
Nsg15
Nsg16
I5
sbag2
(g3
g4
NtRp2675
(dp2676
g7
Nsg8
Nsg9
V\u632f\u66ff\u4f11\u65e5
p2677
sg11
Nsg12
I2026
sg13
I5
sg14
Nsg15
Nsg16
I6
sbag2
(g3
g4
NtRp2678
(dp2679
g7
Nsg8
Nsg9
V\u6d77\u306e\u65e5
p2680
sg11
Nsg12
I2026
sg13
I7
sg14
Nsg15
Nsg16
I20
sbag2
(g3
g4
NtRp2681
(dp2682
g7
Nsg8
Nsg9
V\u5c71\u306e\u65e5
p2683
sg11
Nsg12
I2026
sg13
I8
sg14
Nsg15
Nsg16
I11
sbag2
(g3
g4
NtRp2684
(dp2685
g7
Nsg8
Nsg9
V\u656c\u8001\u306e\u65e5
p2686
sg11
Nsg12
I2026
sg13
I9
sg14
Nsg15
Nsg16
I21
sbag2
(g3
g4
NtRp2687
(dp2688
g7
Nsg8
Nsg9
V\u56fd\u6c11\u306e\u4f11\u65e5
p2689
sg11
Nsg12
I2026
sg13
I9
sg14
Nsg15
Nsg16
I22
sbag2
(g3
g4
NtRp2690
(dp2691
g7
Nsg8
Nsg9
V\u79cb\u5206\u306e\u65e5
p2692
sg11
Nsg12
I2026
sg13
I9
sg14
Nsg15
Nsg16
I23
sbag2
(g3
g4
NtRp2693
(dp2694
g7
Nsg8
Nsg9
V\u4f53\u80b2\u306e\u65e5
p2695
sg11
Nsg12
I2026
sg13
I10
sg14
Nsg15
Nsg16
I12
sbag2
(g3
g4
NtRp2696
(dp2697
g7
Nsg8
Nsg9
V\u6587\u5316\u306e\u65e5
p2698
sg11
Nsg12
I2026
sg13
I11
sg14
Nsg15
Nsg16
I3
sbag2
(g3
g4
NtRp2699
(dp2700
g7
Nsg8
Nsg9
V\u52e4\u52b4\u611f\u8b1d\u306e\u65e5
p2701
sg11
Nsg12
I2026
sg13
I11
sg14
Nsg15
Nsg16
I23
sbag2
(g3
g4
NtRp2702
(dp2703
g7
Nsg8
Nsg9
V\u5929\u7687\u8a95\u751f\u65e5
p2704
sg11
Nsg12
I2026
sg13
I12
sg14
Nsg15
Nsg16
I23
sbag2
(g3
g4
NtRp2705
(dp2706
g7
Nsg8
Nsg9
V\u5143\u65e5
p2707
sg11
Nsg12
I2027
sg13
I1
sg14
Nsg15
Nsg16
I1
sbag2
(g3
g4
NtRp2708
(dp2709
g7
Nsg8
Nsg9
V\u6210\u4eba\u306e\u65e5
p2710
sg11
Nsg12
I2027
sg13
I1
sg14
Nsg15
Nsg16
I11
sbag2
(g3
g4
NtRp2711
(dp2712
g7
Nsg8
Nsg9
V\u5efa\u56fd\u8a18\u5ff5\u306e\u65e5
p2713
sg11
Nsg12
I2027
sg13
I2
sg14
Nsg15
Nsg16
I11
sbag2
(g3
g4
NtRp2714
(dp2715
g7
Nsg8
Nsg9
V\u6625\u5206\u306e\u65e5
p2716
sg11
Nsg12
I2027
sg13
I3
sg14
Nsg15
Nsg16
I21
sbag2
(g3
g4
NtRp2717
(dp2718
g7
Nsg8
Nsg9
V\u632f\u66ff\u4f11\u65e5
p2719
sg11
Nsg12
I2027
sg13
I3
sg14
Nsg15
Nsg16
I22
sbag2
(g3
g4
NtRp2720
(dp2721
g7
Nsg8
Nsg9
V\u662d\u548c\u306e\u65e5
p2722
sg11
Nsg12
I2027
sg13
I4
sg14
Nsg15
Nsg16
I29
sbag2
(g3
g4
NtRp2723
(dp2724
g7
Nsg8
Nsg9
V\u61b2\u6cd5\u8a18\u5ff5\u65e5
p2725
sg11
Nsg12
I2027
sg13
I5
sg14
Nsg15
Nsg16
I3
sbag2
(g3
g4
NtRp2726
(dp2727
g7
Nsg8
Nsg9
V\u307f\u3069\u308a\u306e\u65e5
p2728
sg11
Nsg12
I2027
sg13
I5
sg14
Nsg15
Nsg16
I4
sbag2
(g3
g4
NtRp2729
(dp2730
g7
Nsg8
Nsg9
V\u3053\u3069\u3082\u306e\u65e5
p2731
sg11
Nsg12
I2027
sg13
I5
sg14
Nsg15
Nsg16
I5
sbag2
(g3
g4
NtRp2732
(dp2733
g7
Nsg8
Nsg9
V\u6d77\u306e\u65e5
p2734
sg11
Nsg12
I2027
sg13
I7
sg14
Nsg15
Nsg16
I19
sbag2
(g3
g4
NtRp2735
(dp2736
g7
Nsg8
Nsg9
V\u5c71\u306e\u65e5
p2737
sg11
Nsg12
I2027
sg13
I8
sg14
Nsg15
Nsg16
I11
sbag2
(g3
g4
NtRp2738
(dp2739
g7
Nsg8
Nsg9
V\u656c\u8001\u306e\u65e5
p2740
sg11
Nsg12
I2027
sg13
I9
sg14
Nsg15
Nsg16
I20
sbag2
(g3
g4
NtRp2741
(dp2742
g7
Nsg8
Nsg9
V\u79cb\u5206\u306e\u65e5
p2743
sg11
Nsg12
I2027
sg13
I9
sg14
Nsg15
Nsg16
I23
sbag2
(g3
g4
NtRp2744
(dp2745
g7
Nsg8
Nsg9
V\u4f53\u80b2\u306e\u65e5
p2746
sg11
Nsg12
I2027
sg13
I10
sg14
Nsg15
Nsg16
I11
sbag2
(g3
g4
NtRp2747
(dp2748
g7
Nsg8
Nsg9
V\u6587\u5316\u306e\u65e5
p2749
sg11
Nsg12
I2027
sg13
I11
sg14
Nsg15
Nsg16
I3
sbag2
(g3
g4
NtRp2750
(dp2751
g7
Nsg8
Nsg9
V\u52e4\u52b4\u611f\u8b1d\u306e\u65e5
p2752
sg11
Nsg12
I2027
sg13
I11
sg14
Nsg15
Nsg16
I23
sbag2
(g3
g4
NtRp2753
(dp2754
g7
Nsg8
Nsg9
V\u5929\u7687\u8a95\u751f\u65e5
p2755
sg11
Nsg12
I2027
sg13
I12
sg14
Nsg15
Nsg16
I23
sbag2
(g3
g4
NtRp2756
(dp2757
g7
Nsg8
Nsg9
V\u5143\u65e5
p2758
sg11
Nsg12
I2028
sg13
I1
sg14
Nsg15
Nsg16
I1
sbag2
(g3
g4
NtRp2759
(dp2760
g7
Nsg8
Nsg9
V\u6210\u4eba\u306e\u65e5
p2761
sg11
Nsg12
I2028
sg13
I1
sg14
Nsg15
Nsg16
I10
sbag2
(g3
g4
NtRp2762
(dp2763
g7
Nsg8
Nsg9
V\u5efa\u56fd\u8a18\u5ff5\u306e\u65e5
p2764
sg11
Nsg12
I2028
sg13
I2
sg14
Nsg15
Nsg16
I11
sbag2
(g3
g4
NtRp2765
(dp2766
g7
Nsg8
Nsg9
V\u6625\u5206\u306e\u65e5
p2767
sg11
Nsg12
I2028
sg13
I3
sg14
Nsg15
Nsg16
I20
sbag2
(g3
g4
NtRp2768
(dp2769
g7
Nsg8
Nsg9
V\u662d\u548c\u306e\u65e5
p2770
sg11
Nsg12
I2028
sg13
I4
sg14
Nsg15
Nsg16
I29
sbag2
(g3
g4
NtRp2771
(dp2772
g7
Nsg8
Nsg9
V\u61b2\u6cd5\u8a18\u5ff5\u65e5
p2773
sg11
Nsg12
I2028
sg13
I5
sg14
Nsg15
Nsg16
I3
sbag2
(g3
g4
NtRp2774
(dp2775
g7
Nsg8
Nsg9
V\u307f\u3069\u308a\u306e\u65e5
p2776
sg11
Nsg12
I2028
sg13
I5
sg14
Nsg15
Nsg16
I4
sbag2
(g3
g4
NtRp2777
(dp2778
g7
Nsg8
Nsg9
V\u3053\u3069\u3082\u306e\u65e5
p2779
sg11
Nsg12
I2028
sg13
I5
sg14
Nsg15
Nsg16
I5
sbag2
(g3
g4
NtRp2780
(dp2781
g7
Nsg8
Nsg9
V\u6d77\u306e\u65e5
p2782
sg11
Nsg12
I2028
sg13
I7
sg14
Nsg15
Nsg16
I17
sbag2
(g3
g4
NtRp2783
(dp2784
g7
Nsg8
Nsg9
V\u5c71\u306e\u65e5
p2785
sg11
Nsg12
I2028
sg13
I8
sg14
Nsg15
Nsg16
I11
sbag2
(g3
g4
NtRp2786
(dp2787
g7
Nsg8
Nsg9
V\u656c\u8001\u306e\u65e5
p2788
sg11
Nsg12
I2028
sg13
I9
sg14
Nsg15
Nsg16
I18
sbag2
(g3
g4
NtRp2789
(dp2790
g7
Nsg8
Nsg9
V\u79cb\u5206\u306e\u65e5
p2791
sg11
Nsg12
I2028
sg13
I9
sg14
Nsg15
Nsg16
I22
sbag2
(g3
g4
NtRp2792
(dp2793
g7
Nsg8
Nsg9
V\u4f53\u80b2\u306e\u65e5
p2794
sg11
Nsg12
I2028
sg13
I10
sg14
Nsg15
Nsg16
I9
sbag2
(g3
g4
NtRp2795
(dp2796
g7
Nsg8
Nsg9
V\u6587\u5316\u306e\u65e5
p2797
sg11
Nsg12
I2028
sg13
I11
sg14
Nsg15
Nsg16
I3
sbag2
(g3
g4
NtRp2798
(dp2799
g7
Nsg8
Nsg9
V\u52e4\u52b4\u611f\u8b1d\u306e\u65e5
p2800
sg11
Nsg12
I2028
sg13
I11
sg14
Nsg15
Nsg16
I23
sbag2
(g3
g4
NtRp2801
(dp2802
g7
Nsg8
Nsg9
V\u5929\u7687\u8a95\u751f\u65e5
p2803
sg11
Nsg12
I2028
sg13
I12
sg14
Nsg15
Nsg16
I23
sbag2
(g3
g4
NtRp2804
(dp2805
g7
Nsg8
Nsg9
V\u5143\u65e5
p2806
sg11
Nsg12
I2029
sg13
I1
sg14
Nsg15
Nsg16
I1
sbag2
(g3
g4
NtRp2807
(dp2808
g7
Nsg8
Nsg9
V\u6210\u4eba\u306e\u65e5
p2809
sg11
Nsg12
I2029
sg13
I1
sg14
Nsg15
Nsg16
I8
sbag2
(g3
g4
NtRp2810
(dp2811
g7
Nsg8
Nsg9
V\u5efa\u56fd\u8a18\u5ff5\u306e\u65e5
p2812
sg11
Nsg12
I2029
sg13
I2
sg14
Nsg15
Nsg16
I11
sbag2
(g3
g4
NtRp2813
(dp2814
g7
Nsg8
Nsg9
V\u632f\u66ff\u4f11\u65e5
p2815
sg11
Nsg12
I2029
sg13
I2
sg14
Nsg15
Nsg16
I12
sbag2
(g3
g4
NtRp2816
(dp2817
g7
Nsg8
Nsg9
V\u6625\u5206\u306e\u65e5
p2818
sg11
Nsg12
I2029
sg13
I3
sg14
Nsg15
Nsg16
I20
sbag2
(g3
g4
NtRp2819
(dp2820
g7
Nsg8
Nsg9
V\u662d\u548c\u306e\u65e5
p2821
sg11
Nsg12
I2029
sg13
I4
sg14
Nsg15
Nsg16
I29
sbag2
(g3
g4
NtRp2822
(dp2823
g7
Nsg8
Nsg9
V\u632f\u66ff\u4f11\u65e5
p2824
sg11
Nsg12
I2029
sg13
I4
sg14
Nsg15
Nsg16
I30
sbag2
(g3
g4
NtRp2825
(dp2826
g7
Nsg8
Nsg9
V\u61b2\u6cd5\u8a18\u5ff5\u65e5
p2827
sg11
Nsg12
I2029
sg13
I5
sg14
Nsg15
Nsg16
I3
sbag2
(g3
g4
NtRp2828
(dp2829
g7
Nsg8
Nsg9
V\u307f\u3069\u308a\u306e\u65e5
p2830
sg11
Nsg12
I2029
sg13
I5
sg14
Nsg15
Nsg16
I4
sbag2
(g3
g4
NtRp2831
(dp2832
g7
Nsg8
Nsg9
V\u3053\u3069\u3082\u306e\u65e5
p2833
sg11
Nsg12
I2029
sg13
I5
sg14
Nsg15
Nsg16
I5
sbag2
(g3
g4
NtRp2834
(dp2835
g7
Nsg8
Nsg9
V\u6d77\u306e\u65e5
p2836
sg11
Nsg12
I2029
sg13
I7
sg14
Nsg15
Nsg16
I16
sbag2
(g3
g4
NtRp2837
(dp2838
g7
Nsg8
Nsg9
V\u5c71\u306e\u65e5
p2839
sg11
Nsg12
I2029
sg13
I8
sg14
Nsg15
Nsg16
I11
sbag2
(g3
g4
NtRp2840
(dp2841
g7
Nsg8
Nsg9
V\u656c\u8001\u306e\u65e5
p2842
sg11
Nsg12
I2029
sg13
I9
sg14
Nsg15
Nsg16
I17
sbag2
(g3
g4
NtRp2843
(dp2844
g7
Nsg8
Nsg9
V\u79cb\u5206\u306e\u65e5
p2845
sg11
Nsg12
I2029
sg13
I9
sg14
Nsg15
Nsg16
I23
sbag2
(g3
g4
NtRp2846
(dp2847
g7
Nsg8
Nsg9
V\u632f\u66ff\u4f11\u65e5
p2848
sg11
Nsg12
I2029
sg13
I9
sg14
Nsg15
Nsg16
I24
sbag2
(g3
g4
NtRp2849
(dp2850
g7
Nsg8
Nsg9
V\u4f53\u80b2\u306e\u65e5
p2851
sg11
Nsg12
I2029
sg13
I10
sg14
Nsg15
Nsg16
I8
sbag2
(g3
g4
NtRp2852
(dp2853
g7
Nsg8
Nsg9
V\u6587\u5316\u306e\u65e5
p2854
sg11
Nsg12
I2029
sg13
I11
sg14
Nsg15
Nsg16
I3
sbag2
(g3
g4
NtRp2855
(dp2856
g7
Nsg8
Nsg9
V\u52e4\u52b4\u611f\u8b1d\u306e\u65e5
p2857
sg11
Nsg12
I2029
sg13
I11
sg14
Nsg15
Nsg16
I23
sbag2
(g3
g4
NtRp2858
(dp2859
g7
Nsg8
Nsg9
V\u5929\u7687\u8a95\u751f\u65e5
p2860
sg11
Nsg12
I2029
sg13
I12
sg14
Nsg15
Nsg16
I23
sbag2
(g3
g4
NtRp2861
(dp2862
g7
Nsg8
Nsg9
V\u632f\u66ff\u4f11\u65e5
p2863
sg11
Nsg12
I2029
sg13
I12
sg14
Nsg15
Nsg16
I24
sbag2
(g3
g4
NtRp2864
(dp2865
g7
Nsg8
Nsg9
V\u5143\u65e5
p2866
sg11
Nsg12
I2030
sg13
I1
sg14
Nsg15
Nsg16
I1
sbag2
(g3
g4
NtRp2867
(dp2868
g7
Nsg8
Nsg9
V\u6210\u4eba\u306e\u65e5
p2869
sg11
Nsg12
I2030
sg13
I1
sg14
Nsg15
Nsg16
I14
sbag2
(g3
g4
NtRp2870
(dp2871
g7
Nsg8
Nsg9
V\u5efa\u56fd\u8a18\u5ff5\u306e\u65e5
p2872
sg11
Nsg12
I2030
sg13
I2
sg14
Nsg15
Nsg16
I11
sbag2
(g3
g4
NtRp2873
(dp2874
g7
Nsg8
Nsg9
V\u6625\u5206\u306e\u65e5
p2875
sg11
Nsg12
I2030
sg13
I3
sg14
Nsg15
Nsg16
I20
sbag2
(g3
g4
NtRp2876
(dp2877
g7
Nsg8
Nsg9
V\u662d\u548c\u306e\u65e5
p2878
sg11
Nsg12
I2030
sg13
I4
sg14
Nsg15
Nsg16
I29
sbag2
(g3
g4
NtRp2879
(dp2880
g7
Nsg8
Nsg9
V\u61b2\u6cd5\u8a18\u5ff5\u65e5
p2881
sg11
Nsg12
I2030
sg13
I5
sg14
Nsg15
Nsg16
I3
sbag2
(g3
g4
NtRp2882
(dp2883
g7
Nsg8
Nsg9
V\u307f\u3069\u308a\u306e\u65e5
p2884
sg11
Nsg12
I2030
sg13
I5
sg14
Nsg15
Nsg16
I4
sbag2
(g3
g4
NtRp2885
(dp2886
g7
Nsg8
Nsg9
V\u3053\u3069\u3082\u306e\u65e5
p2887
sg11
Nsg12
I2030
sg13
I5
sg14
Nsg15
Nsg16
I5
sbag2
(g3
g4
NtRp2888
(dp2889
g7
Nsg8
Nsg9
V\u632f\u66ff\u4f11\u65e5
p2890
sg11
Nsg12
I2030
sg13
I5
sg14
Nsg15
Nsg16
I6
sbag2
(g3
g4
NtRp2891
(dp2892
g7
Nsg8
Nsg9
V\u6d77\u306e\u65e5
p2893
sg11
Nsg12
I2030
sg13
I7
sg14
Nsg15
Nsg16
I15
sbag2
(g3
g4
NtRp2894
(dp2895
g7
Nsg8
Nsg9
V\u5c71\u306e\u65e5
p2896
sg11
Nsg12
I2030
sg13
I8
sg14
Nsg15
Nsg16
I11
sbag2
(g3
g4
NtRp2897
(dp2898
g7
Nsg8
Nsg9
V\u632f\u66ff\u4f11\u65e5
p2899
sg11
Nsg12
I2020
sg13
I8
sg14
Nsg15
Nsg16
I12
sbag2
(g3
g4
NtRp2900
(dp2901
g7
Nsg8
Nsg9
V\u656c\u8001\u306e\u65e5
p2902
sg11
Nsg12
I2030
sg13
I9
sg14
Nsg15
Nsg16
I16
sbag2
(g3
g4
NtRp2903
(dp2904
g7
Nsg8
Nsg9
V\u79cb\u5206\u306e\u65e5
p2905
sg11
Nsg12
I2030
sg13
I9
sg14
Nsg15
Nsg16
I23
sbag2
(g3
g4
NtRp2906
(dp2907
g7
Nsg8
Nsg9
V\u4f53\u80b2\u306e\u65e5
p2908
sg11
Nsg12
I2030
sg13
I10
sg14
Nsg15
Nsg16
I14
sbag2
(g3
g4
NtRp2909
(dp2910
g7
Nsg8
Nsg9
V\u6587\u5316\u306e\u65e5
p2911
sg11
Nsg12
I2030
sg13
I11
sg14
Nsg15
Nsg16
I3
sbag2
(g3
g4
NtRp2912
(dp2913
g7
Nsg8
Nsg9
V\u632f\u66ff\u4f11\u65e5
p2914
sg11
Nsg12
I2030
sg13
I11
sg14
Nsg15
Nsg16
I4
sbag2
(g3
g4
NtRp2915
(dp2916
g7
Nsg8
Nsg9
V\u52e4\u52b4\u611f\u8b1d\u306e\u65e5
p2917
sg11
Nsg12
I2030
sg13
I11
sg14
Nsg15
Nsg16
I23
sbag2
(g3
g4
NtRp2918
(dp2919
g7
Nsg8
Nsg9
V\u5929\u7687\u8a95\u751f\u65e5
p2920
sg11
Nsg12
I2030
sg13
I12
sg14
Nsg15
Nsg16
I23
sbag2
(g3
g4
NtRp2921
(dp2922
g7
Nsg8
Nsg9
V\u5143\u65e5
p2923
sg11
Nsg12
I2031
sg13
I1
sg14
Nsg15
Nsg16
I1
sbag2
(g3
g4
NtRp2924
(dp2925
g7
Nsg8
Nsg9
V\u6210\u4eba\u306e\u65e5
p2926
sg11
Nsg12
I2031
sg13
I1
sg14
Nsg15
Nsg16
I13
sbag2
(g3
g4
NtRp2927
(dp2928
g7
Nsg8
Nsg9
V\u5efa\u56fd\u8a18\u5ff5\u306e\u65e5
p2929
sg11
Nsg12
I2031
sg13
I2
sg14
Nsg15
Nsg16
I11
sbag2
(g3
g4
NtRp2930
(dp2931
g7
Nsg8
Nsg9
V\u6625\u5206\u306e\u65e5
p2932
sg11
Nsg12
I2031
sg13
I3
sg14
Nsg15
Nsg16
I21
sbag2
(g3
g4
NtRp2933
(dp2934
g7
Nsg8
Nsg9
V\u662d\u548c\u306e\u65e5
p2935
sg11
Nsg12
I2031
sg13
I4
sg14
Nsg15
Nsg16
I29
sbag2
(g3
g4
NtRp2936
(dp2937
g7
Nsg8
Nsg9
V\u61b2\u6cd5\u8a18\u5ff5\u65e5
p2938
sg11
Nsg12
I2031
sg13
I5
sg14
Nsg15
Nsg16
I3
sbag2
(g3
g4
NtRp2939
(dp2940
g7
Nsg8
Nsg9
V\u307f\u3069\u308a\u306e\u65e5
p2941
sg11
Nsg12
I2031
sg13
I5
sg14
Nsg15
Nsg16
I4
sbag2
(g3
g4
NtRp2942
(dp2943
g7
Nsg8
Nsg9
V\u3053\u3069\u3082\u306e\u65e5
p2944
sg11
Nsg12
I2031
sg13
I5
sg14
Nsg15
Nsg16
I5
sbag2
(g3
g4
NtRp2945
(dp2946
g7
Nsg8
Nsg9
V\u632f\u66ff\u4f11\u65e5
p2947
sg11
Nsg12
I2031
sg13
I5
sg14
Nsg15
Nsg16
I6
sbag2
(g3
g4
NtRp2948
(dp2949
g7
Nsg8
Nsg9
V\u6d77\u306e\u65e5
p2950
sg11
Nsg12
I2031
sg13
I7
sg14
Nsg15
Nsg16
I21
sbag2
(g3
g4
NtRp2951
(dp2952
g7
Nsg8
Nsg9
V\u5c71\u306e\u65e5
p2953
sg11
Nsg12
I2031
sg13
I8
sg14
Nsg15
Nsg16
I11
sbag2
(g3
g4
NtRp2954
(dp2955
g7
Nsg8
Nsg9
V\u656c\u8001\u306e\u65e5
p2956
sg11
Nsg12
I2031
sg13
I9
sg14
Nsg15
Nsg16
I15
sbag2
(g3
g4
NtRp2957
(dp2958
g7
Nsg8
Nsg9
V\u79cb\u5206\u306e\u65e5
p2959
sg11
Nsg12
I2031
sg13
I9
sg14
Nsg15
Nsg16
I23
sbag2
(g3
g4
NtRp2960
(dp2961
g7
Nsg8
Nsg9
V\u4f53\u80b2\u306e\u65e5
p2962
sg11
Nsg12
I2031
sg13
I10
sg14
Nsg15
Nsg16
I13
sbag2
(g3
g4
NtRp2963
(dp2964
g7
Nsg8
Nsg9
V\u6587\u5316\u306e\u65e5
p2965
sg11
Nsg12
I2031
sg13
I11
sg14
Nsg15
Nsg16
I3
sbag2
(g3
g4
NtRp2966
(dp2967
g7
Nsg8
Nsg9
V\u52e4\u52b4\u611f\u8b1d\u306e\u65e5
p2968
sg11
Nsg12
I2031
sg13
I11
sg14
Nsg15
Nsg16
I23
sbag2
(g3
g4
NtRp2969
(dp2970
g7
Nsg8
Nsg9
V\u632f\u66ff\u4f11\u65e5
p2971
sg11
Nsg12
I2031
sg13
I11
sg14
Nsg15
Nsg16
I24
sbag2
(g3
g4
NtRp2972
(dp2973
g7
Nsg8
Nsg9
V\u5929\u7687\u8a95\u751f\u65e5
p2974
sg11
Nsg12
I2031
sg13
I12
sg14
Nsg15
Nsg16
I23
sbag2
(g3
g4
NtRp2975
(dp2976
g7
Nsg8
Nsg9
V\u5143\u65e5
p2977
sg11
Nsg12
I2032
sg13
I1
sg14
Nsg15
Nsg16
I1
sbag2
(g3
g4
NtRp2978
(dp2979
g7
Nsg8
Nsg9
V\u6210\u4eba\u306e\u65e5
p2980
sg11
Nsg12
I2032
sg13
I1
sg14
Nsg15
Nsg16
I12
sbag2
(g3
g4
NtRp2981
(dp2982
g7
Nsg8
Nsg9
V\u5efa\u56fd\u8a18\u5ff5\u306e\u65e5
p2983
sg11
Nsg12
I2032
sg13
I2
sg14
Nsg15
Nsg16
I11
sbag2
(g3
g4
NtRp2984
(dp2985
g7
Nsg8
Nsg9
V\u6625\u5206\u306e\u65e5
p2986
sg11
Nsg12
I2032
sg13
I3
sg14
Nsg15
Nsg16
I20
sbag2
(g3
g4
NtRp2987
(dp2988
g7
Nsg8
Nsg9
V\u662d\u548c\u306e\u65e5
p2989
sg11
Nsg12
I2032
sg13
I4
sg14
Nsg15
Nsg16
I29
sbag2
(g3
g4
NtRp2990
(dp2991
g7
Nsg8
Nsg9
V\u61b2\u6cd5\u8a18\u5ff5\u65e5
p2992
sg11
Nsg12
I2032
sg13
I5
sg14
Nsg15
Nsg16
I3
sbag2
(g3
g4
NtRp2993
(dp2994
g7
Nsg8
Nsg9
V\u307f\u3069\u308a\u306e\u65e5
p2995
sg11
Nsg12
I2032
sg13
I5
sg14
Nsg15
Nsg16
I4
sbag2
(g3
g4
NtRp2996
(dp2997
g7
Nsg8
Nsg9
V\u3053\u3069\u3082\u306e\u65e5
p2998
sg11
Nsg12
I2032
sg13
I5
sg14
Nsg15
Nsg16
I5
sbag2
(g3
g4
NtRp2999
(dp3000
g7
Nsg8
Nsg9
V\u6d77\u306e\u65e5
p3001
sg11
Nsg12
I2032
sg13
I7
sg14
Nsg15
Nsg16
I19
sbag2
(g3
g4
NtRp3002
(dp3003
g7
Nsg8
Nsg9
V\u5c71\u306e\u65e5
p3004
sg11
Nsg12
I2032
sg13
I8
sg14
Nsg15
Nsg16
I11
sbag2
(g3
g4
NtRp3005
(dp3006
g7
Nsg8
Nsg9
V\u656c\u8001\u306e\u65e5
p3007
sg11
Nsg12
I2032
sg13
I9
sg14
Nsg15
Nsg16
I20
sbag2
(g3
g4
NtRp3008
(dp3009
g7
Nsg8
Nsg9
V\u56fd\u6c11\u306e\u4f11\u65e5
p3010
sg11
Nsg12
I2032
sg13
I9
sg14
Nsg15
Nsg16
I21
sbag2
(g3
g4
NtRp3011
(dp3012
g7
Nsg8
Nsg9
V\u79cb\u5206\u306e\u65e5
p3013
sg11
Nsg12
I2032
sg13
I9
sg14
Nsg15
Nsg16
I22
sbag2
(g3
g4
NtRp3014
(dp3015
g7
Nsg8
Nsg9
V\u4f53\u80b2\u306e\u65e5
p3016
sg11
Nsg12
I2032
sg13
I10
sg14
Nsg15
Nsg16
I11
sbag2
(g3
g4
NtRp3017
(dp3018
g7
Nsg8
Nsg9
V\u6587\u5316\u306e\u65e5
p3019
sg11
Nsg12
I2032
sg13
I11
sg14
Nsg15
Nsg16
I3
sbag2
(g3
g4
NtRp3020
(dp3021
g7
Nsg8
Nsg9
V\u52e4\u52b4\u611f\u8b1d\u306e\u65e5
p3022
sg11
Nsg12
I2032
sg13
I11
sg14
Nsg15
Nsg16
I23
sbag2
(g3
g4
NtRp3023
(dp3024
g7
Nsg8
Nsg9
V\u5929\u7687\u8a95\u751f\u65e5
p3025
sg11
Nsg12
I2032
sg13
I12
sg14
Nsg15
Nsg16
I23
sbag2
(g3
g4
NtRp3026
(dp3027
g7
Nsg8
Nsg9
V\u5143\u65e5
p3028
sg11
Nsg12
I2033
sg13
I1
sg14
Nsg15
Nsg16
I1
sbag2
(g3
g4
NtRp3029
(dp3030
g7
Nsg8
Nsg9
V\u6210\u4eba\u306e\u65e5
p3031
sg11
Nsg12
I2033
sg13
I1
sg14
Nsg15
Nsg16
I10
sbag2
(g3
g4
NtRp3032
(dp3033
g7
Nsg8
Nsg9
V\u5efa\u56fd\u8a18\u5ff5\u306e\u65e5
p3034
sg11
Nsg12
I2033
sg13
I2
sg14
Nsg15
Nsg16
I11
sbag2
(g3
g4
NtRp3035
(dp3036
g7
Nsg8
Nsg9
V\u6625\u5206\u306e\u65e5
p3037
sg11
Nsg12
I2033
sg13
I3
sg14
Nsg15
Nsg16
I20
sbag2
(g3
g4
NtRp3038
(dp3039
g7
Nsg8
Nsg9
V\u632f\u66ff\u4f11\u65e5
p3040
sg11
Nsg12
I2033
sg13
I3
sg14
Nsg15
Nsg16
I21
sbag2
(g3
g4
NtRp3041
(dp3042
g7
Nsg8
Nsg9
V\u662d\u548c\u306e\u65e5
p3043
sg11
Nsg12
I2033
sg13
I4
sg14
Nsg15
Nsg16
I29
sbag2
(g3
g4
NtRp3044
(dp3045
g7
Nsg8
Nsg9
V\u61b2\u6cd5\u8a18\u5ff5\u65e5
p3046
sg11
Nsg12
I2033
sg13
I5
sg14
Nsg15
Nsg16
I3
sbag2
(g3
g4
NtRp3047
(dp3048
g7
Nsg8
Nsg9
V\u307f\u3069\u308a\u306e\u65e5
p3049
sg11
Nsg12
I2033
sg13
I5
sg14
Nsg15
Nsg16
I4
sbag2
(g3
g4
NtRp3050
(dp3051
g7
Nsg8
Nsg9
V\u3053\u3069\u3082\u306e\u65e5
p3052
sg11
Nsg12
I2033
sg13
I5
sg14
Nsg15
Nsg16
I5
sbag2
(g3
g4
NtRp3053
(dp3054
g7
Nsg8
Nsg9
V\u6d77\u306e\u65e5
p3055
sg11
Nsg12
I2033
sg13
I7
sg14
Nsg15
Nsg16
I18
sbag2
(g3
g4
NtRp3056
(dp3057
g7
Nsg8
Nsg9
V\u5c71\u306e\u65e5
p3058
sg11
Nsg12
I2033
sg13
I8
sg14
Nsg15
Nsg16
I11
sbag2
(g3
g4
NtRp3059
(dp3060
g7
Nsg8
Nsg9
V\u656c\u8001\u306e\u65e5
p3061
sg11
Nsg12
I2033
sg13
I9
sg14
Nsg15
Nsg16
I19
sbag2
(g3
g4
NtRp3062
(dp3063
g7
Nsg8
Nsg9
V\u79cb\u5206\u306e\u65e5
p3064
sg11
Nsg12
I2033
sg13
I9
sg14
Nsg15
Nsg16
I23
sbag2
(g3
g4
NtRp3065
(dp3066
g7
Nsg8
Nsg9
V\u4f53\u80b2\u306e\u65e5
p3067
sg11
Nsg12
I2033
sg13
I10
sg14
Nsg15
Nsg16
I10
sbag2
(g3
g4
NtRp3068
(dp3069
g7
Nsg8
Nsg9
V\u6587\u5316\u306e\u65e5
p3070
sg11
Nsg12
I2033
sg13
I11
sg14
Nsg15
Nsg16
I3
sbag2
(g3
g4
NtRp3071
(dp3072
g7
Nsg8
Nsg9
V\u52e4\u52b4\u611f\u8b1d\u306e\u65e5
p3073
sg11
Nsg12
I2033
sg13
I11
sg14
Nsg15
Nsg16
I23
sbag2
(g3
g4
NtRp3074
(dp3075
g7
Nsg8
Nsg9
V\u5929\u7687\u8a95\u751f\u65e5
p3076
sg11
Nsg12
I2033
sg13
I12
sg14
Nsg15
Nsg16
I23
sbag2
(g3
g4
NtRp3077
(dp3078
g7
Nsg8
Nsg9
V\u5143\u65e5
p3079
sg11
Nsg12
I2034
sg13
I1
sg14
Nsg15
Nsg16
I1
sbag2
(g3
g4
NtRp3080
(dp3081
g7
Nsg8
Nsg9
V\u632f\u66ff\u4f11\u65e5
p3082
sg11
Nsg12
I2034
sg13
I1
sg14
Nsg15
Nsg16
I2
sbag2
(g3
g4
NtRp3083
(dp3084
g7
Nsg8
Nsg9
V\u6210\u4eba\u306e\u65e5
p3085
sg11
Nsg12
I2034
sg13
I1
sg14
Nsg15
Nsg16
I9
sbag2
(g3
g4
NtRp3086
(dp3087
g7
Nsg8
Nsg9
V\u5efa\u56fd\u8a18\u5ff5\u306e\u65e5
p3088
sg11
Nsg12
I2034
sg13
I2
sg14
Nsg15
Nsg16
I11
sbag2
(g3
g4
NtRp3089
(dp3090
g7
Nsg8
Nsg9
V\u6625\u5206\u306e\u65e5
p3091
sg11
Nsg12
I2034
sg13
I3
sg14
Nsg15
Nsg16
I20
sbag2
(g3
g4
NtRp3092
(dp3093
g7
Nsg8
Nsg9
V\u662d\u548c\u306e\u65e5
p3094
sg11
Nsg12
I2034
sg13
I4
sg14
Nsg15
Nsg16
I29
sbag2
(g3
g4
NtRp3095
(dp3096
g7
Nsg8
Nsg9
V\u61b2\u6cd5\u8a18\u5ff5\u65e5
p3097
sg11
Nsg12
I2034
sg13
I5
sg14
Nsg15
Nsg16
I3
sbag2
(g3
g4
NtRp3098
(dp3099
g7
Nsg8
Nsg9
V\u307f\u3069\u308a\u306e\u65e5
p3100
sg11
Nsg12
I2034
sg13
I5
sg14
Nsg15
Nsg16
I4
sbag2
(g3
g4
NtRp3101
(dp3102
g7
Nsg8
Nsg9
V\u3053\u3069\u3082\u306e\u65e5
p3103
sg11
Nsg12
I2034
sg13
I5
sg14
Nsg15
Nsg16
I5
sbag2
(g3
g4
NtRp3104
(dp3105
g7
Nsg8
Nsg9
V\u6d77\u306e\u65e5
p3106
sg11
Nsg12
I2034
sg13
I7
sg14
Nsg15
Nsg16
I17
sbag2
(g3
g4
NtRp3107
(dp3108
g7
Nsg8
Nsg9
V\u5c71\u306e\u65e5
p3109
sg11
Nsg12
I2034
sg13
I8
sg14
Nsg15
Nsg16
I11
sbag2
(g3
g4
NtRp3110
(dp3111
g7
Nsg8
Nsg9
V\u656c\u8001\u306e\u65e5
p3112
sg11
Nsg12
I2034
sg13
I9
sg14
Nsg15
Nsg16
I18
sbag2
(g3
g4
NtRp3113
(dp3114
g7
Nsg8
Nsg9
V\u79cb\u5206\u306e\u65e5
p3115
sg11
Nsg12
I2034
sg13
I9
sg14
Nsg15
Nsg16
I23
sbag2
(g3
g4
NtRp3116
(dp3117
g7
Nsg8
Nsg9
V\u4f53\u80b2\u306e\u65e5
p3118
sg11
Nsg12
I2034
sg13
I10
sg14
Nsg15
Nsg16
I9
sbag2
(g3
g4
NtRp3119
(dp3120
g7
Nsg8
Nsg9
V\u6587\u5316\u306e\u65e5
p3121
sg11
Nsg12
I2034
sg13
I11
sg14
Nsg15
Nsg16
I3
sbag2
(g3
g4
NtRp3122
(dp3123
g7
Nsg8
Nsg9
V\u52e4\u52b4\u611f\u8b1d\u306e\u65e5
p3124
sg11
Nsg12
I2034
sg13
I11
sg14
Nsg15
Nsg16
I23
sbag2
(g3
g4
NtRp3125
(dp3126
g7
Nsg8
Nsg9
V\u5929\u7687\u8a95\u751f\u65e5
p3127
sg11
Nsg12
I2034
sg13
I12
sg14
Nsg15
Nsg16
I23
sbag2
(g3
g4
NtRp3128
(dp3129
g7
Nsg8
Nsg9
V\u5143\u65e5
p3130
sg11
Nsg12
I2035
sg13
I1
sg14
Nsg15
Nsg16
I1
sbag2
(g3
g4
NtRp3131
(dp3132
g7
Nsg8
Nsg9
V\u6210\u4eba\u306e\u65e5
p3133
sg11
Nsg12
I2035
sg13
I1
sg14
Nsg15
Nsg16
I8
sbag2
(g3
g4
NtRp3134
(dp3135
g7
Nsg8
Nsg9
V\u5efa\u56fd\u8a18\u5ff5\u306e\u65e5
p3136
sg11
Nsg12
I2035
sg13
I2
sg14
Nsg15
Nsg16
I11
sbag2
(g3
g4
NtRp3137
(dp3138
g7
Nsg8
Nsg9
V\u632f\u66ff\u4f11\u65e5
p3139
sg11
Nsg12
I2035
sg13
I2
sg14
Nsg15
Nsg16
I12
sbag2
(g3
g4
NtRp3140
(dp3141
g7
Nsg8
Nsg9
V\u6625\u5206\u306e\u65e5
p3142
sg11
Nsg12
I2035
sg13
I3
sg14
Nsg15
Nsg16
I21
sbag2
(g3
g4
NtRp3143
(dp3144
g7
Nsg8
Nsg9
V\u662d\u548c\u306e\u65e5
p3145
sg11
Nsg12
I2035
sg13
I4
sg14
Nsg15
Nsg16
I29
sbag2
(g3
g4
NtRp3146
(dp3147
g7
Nsg8
Nsg9
V\u632f\u66ff\u4f11\u65e5
p3148
sg11
Nsg12
I2035
sg13
I4
sg14
Nsg15
Nsg16
I30
sbag2
(g3
g4
NtRp3149
(dp3150
g7
Nsg8
Nsg9
V\u61b2\u6cd5\u8a18\u5ff5\u65e5
p3151
sg11
Nsg12
I2035
sg13
I5
sg14
Nsg15
Nsg16
I3
sbag2
(g3
g4
NtRp3152
(dp3153
g7
Nsg8
Nsg9
V\u307f\u3069\u308a\u306e\u65e5
p3154
sg11
Nsg12
I2035
sg13
I5
sg14
Nsg15
Nsg16
I4
sbag2
(g3
g4
NtRp3155
(dp3156
g7
Nsg8
Nsg9
V\u3053\u3069\u3082\u306e\u65e5
p3157
sg11
Nsg12
I2035
sg13
I5
sg14
Nsg15
Nsg16
I5
sbag2
(g3
g4
NtRp3158
(dp3159
g7
Nsg8
Nsg9
V\u6d77\u306e\u65e5
p3160
sg11
Nsg12
I2035
sg13
I7
sg14
Nsg15
Nsg16
I16
sbag2
(g3
g4
NtRp3161
(dp3162
g7
Nsg8
Nsg9
V\u5c71\u306e\u65e5
p3163
sg11
Nsg12
I2035
sg13
I8
sg14
Nsg15
Nsg16
I11
sbag2
(g3
g4
NtRp3164
(dp3165
g7
Nsg8
Nsg9
V\u656c\u8001\u306e\u65e5
p3166
sg11
Nsg12
I2035
sg13
I9
sg14
Nsg15
Nsg16
I17
sbag2
(g3
g4
NtRp3167
(dp3168
g7
Nsg8
Nsg9
V\u79cb\u5206\u306e\u65e5
p3169
sg11
Nsg12
I2035
sg13
I9
sg14
Nsg15
Nsg16
I23
sbag2
(g3
g4
NtRp3170
(dp3171
g7
Nsg8
Nsg9
V\u632f\u66ff\u4f11\u65e5
p3172
sg11
Nsg12
I2035
sg13
I9
sg14
Nsg15
Nsg16
I24
sbag2
(g3
g4
NtRp3173
(dp3174
g7
Nsg8
Nsg9
V\u4f53\u80b2\u306e\u65e5
p3175
sg11
Nsg12
I2035
sg13
I10
sg14
Nsg15
Nsg16
I8
sbag2
(g3
g4
NtRp3176
(dp3177
g7
Nsg8
Nsg9
V\u6587\u5316\u306e\u65e5
p3178
sg11
Nsg12
I2035
sg13
I11
sg14
Nsg15
Nsg16
I3
sbag2
(g3
g4
NtRp3179
(dp3180
g7
Nsg8
Nsg9
V\u52e4\u52b4\u611f\u8b1d\u306e\u65e5
p3181
sg11
Nsg12
I2035
sg13
I11
sg14
Nsg15
Nsg16
I23
sbag2
(g3
g4
NtRp3182
(dp3183
g7
Nsg8
Nsg9
V\u5929\u7687\u8a95\u751f\u65e5
p3184
sg11
Nsg12
I2035
sg13
I12
sg14
Nsg15
Nsg16
I23
sbag2
(g3
g4
NtRp3185
(dp3186
g7
Nsg8
Nsg9
V\u632f\u66ff\u4f11\u65e5
p3187
sg11
Nsg12
I2035
sg13
I12
sg14
Nsg15
Nsg16
I24
sbag2
(g3
g4
NtRp3188
(dp3189
g7
Nsg8
Nsg9
V\u5143\u65e5
p3190
sg11
Nsg12
I2036
sg13
I1
sg14
Nsg15
Nsg16
I1
sbag2
(g3
g4
NtRp3191
(dp3192
g7
Nsg8
Nsg9
V\u6210\u4eba\u306e\u65e5
p3193
sg11
Nsg12
I2036
sg13
I1
sg14
Nsg15
Nsg16
I14
sbag2
(g3
g4
NtRp3194
(dp3195
g7
Nsg8
Nsg9
V\u5efa\u56fd\u8a18\u5ff5\u306e\u65e5
p3196
sg11
Nsg12
I2036
sg13
I2
sg14
Nsg15
Nsg16
I11
sbag2
(g3
g4
NtRp3197
(dp3198
g7
Nsg8
Nsg9
V\u6625\u5206\u306e\u65e5
p3199
sg11
Nsg12
I2036
sg13
I3
sg14
Nsg15
Nsg16
I20
sbag2
(g3
g4
NtRp3200
(dp3201
g7
Nsg8
Nsg9
V\u662d\u548c\u306e\u65e5
p3202
sg11
Nsg12
I2036
sg13
I4
sg14
Nsg15
Nsg16
I29
sbag2
(g3
g4
NtRp3203
(dp3204
g7
Nsg8
Nsg9
V\u61b2\u6cd5\u8a18\u5ff5\u65e5
p3205
sg11
Nsg12
I2036
sg13
I5
sg14
Nsg15
Nsg16
I3
sbag2
(g3
g4
NtRp3206
(dp3207
g7
Nsg8
Nsg9
V\u307f\u3069\u308a\u306e\u65e5
p3208
sg11
Nsg12
I2036
sg13
I5
sg14
Nsg15
Nsg16
I4
sbag2
(g3
g4
NtRp3209
(dp3210
g7
Nsg8
Nsg9
V\u3053\u3069\u3082\u306e\u65e5
p3211
sg11
Nsg12
I2036
sg13
I5
sg14
Nsg15
Nsg16
I5
sbag2
(g3
g4
NtRp3212
(dp3213
g7
Nsg8
Nsg9
V\u632f\u66ff\u4f11\u65e5
p3214
sg11
Nsg12
I2036
sg13
I5
sg14
Nsg15
Nsg16
I6
sbag2
(g3
g4
NtRp3215
(dp3216
g7
Nsg8
Nsg9
V\u6d77\u306e\u65e5
p3217
sg11
Nsg12
I2036
sg13
I7
sg14
Nsg15
Nsg16
I21
sbag2
(g3
g4
NtRp3218
(dp3219
g7
Nsg8
Nsg9
V\u5c71\u306e\u65e5
p3220
sg11
Nsg12
I2036
sg13
I8
sg14
Nsg15
Nsg16
I11
sbag2
(g3
g4
NtRp3221
(dp3222
g7
Nsg8
Nsg9
V\u656c\u8001\u306e\u65e5
p3223
sg11
Nsg12
I2036
sg13
I9
sg14
Nsg15
Nsg16
I15
sbag2
(g3
g4
NtRp3224
(dp3225
g7
Nsg8
Nsg9
V\u79cb\u5206\u306e\u65e5
p3226
sg11
Nsg12
I2036
sg13
I9
sg14
Nsg15
Nsg16
I22
sbag2
(g3
g4
NtRp3227
(dp3228
g7
Nsg8
Nsg9
V\u4f53\u80b2\u306e\u65e5
p3229
sg11
Nsg12
I2036
sg13
I10
sg14
Nsg15
Nsg16
I13
sbag2
(g3
g4
NtRp3230
(dp3231
g7
Nsg8
Nsg9
V\u6587\u5316\u306e\u65e5
p3232
sg11
Nsg12
I2036
sg13
I11
sg14
Nsg15
Nsg16
I3
sbag2
(g3
g4
NtRp3233
(dp3234
g7
Nsg8
Nsg9
V\u52e4\u52b4\u611f\u8b1d\u306e\u65e5
p3235
sg11
Nsg12
I2036
sg13
I11
sg14
Nsg15
Nsg16
I23
sbag2
(g3
g4
NtRp3236
(dp3237
g7
Nsg8
Nsg9
V\u632f\u66ff\u4f11\u65e5
p3238
sg11
Nsg12
I2036
sg13
I11
sg14
Nsg15
Nsg16
I24
sbag2
(g3
g4
NtRp3239
(dp3240
g7
Nsg8
Nsg9
V\u5929\u7687\u8a95\u751f\u65e5
p3241
sg11
Nsg12
I2036
sg13
I12
sg14
Nsg15
Nsg16
I23
sbag2
(g3
g4
NtRp3242
(dp3243
g7
Nsg8
Nsg9
V\u5143\u65e5
p3244
sg11
Nsg12
I2037
sg13
I1
sg14
Nsg15
Nsg16
I1
sbag2
(g3
g4
NtRp3245
(dp3246
g7
Nsg8
Nsg9
V\u6210\u4eba\u306e\u65e5
p3247
sg11
Nsg12
I2037
sg13
I1
sg14
Nsg15
Nsg16
I12
sbag2
(g3
g4
NtRp3248
(dp3249
g7
Nsg8
Nsg9
V\u5efa\u56fd\u8a18\u5ff5\u306e\u65e5
p3250
sg11
Nsg12
I2037
sg13
I2
sg14
Nsg15
Nsg16
I11
sbag2
(g3
g4
NtRp3251
(dp3252
g7
Nsg8
Nsg9
V\u6625\u5206\u306e\u65e5
p3253
sg11
Nsg12
I2037
sg13
I3
sg14
Nsg15
Nsg16
I20
sbag2
(g3
g4
NtRp3254
(dp3255
g7
Nsg8
Nsg9
V\u662d\u548c\u306e\u65e5
p3256
sg11
Nsg12
I2037
sg13
I4
sg14
Nsg15
Nsg16
I29
sbag2
(g3
g4
NtRp3257
(dp3258
g7
Nsg8
Nsg9
V\u61b2\u6cd5\u8a18\u5ff5\u65e5
p3259
sg11
Nsg12
I2037
sg13
I5
sg14
Nsg15
Nsg16
I3
sbag2
(g3
g4
NtRp3260
(dp3261
g7
Nsg8
Nsg9
V\u307f\u3069\u308a\u306e\u65e5
p3262
sg11
Nsg12
I2037
sg13
I5
sg14
Nsg15
Nsg16
I4
sbag2
(g3
g4
NtRp3263
(dp3264
g7
Nsg8
Nsg9
V\u3053\u3069\u3082\u306e\u65e5
p3265
sg11
Nsg12
I2037
sg13
I5
sg14
Nsg15
Nsg16
I5
sbag2
(g3
g4
NtRp3266
(dp3267
g7
Nsg8
Nsg9
V\u632f\u66ff\u4f11\u65e5
p3268
sg11
Nsg12
I2037
sg13
I5
sg14
Nsg15
Nsg16
I6
sbag2
(g3
g4
NtRp3269
(dp3270
g7
Nsg8
Nsg9
V\u6d77\u306e\u65e5
p3271
sg11
Nsg12
I2037
sg13
I7
sg14
Nsg15
Nsg16
I20
sbag2
(g3
g4
NtRp3272
(dp3273
g7
Nsg8
Nsg9
V\u5c71\u306e\u65e5
p3274
sg11
Nsg12
I2037
sg13
I8
sg14
Nsg15
Nsg16
I11
sbag2
(g3
g4
NtRp3275
(dp3276
g7
Nsg8
Nsg9
V\u656c\u8001\u306e\u65e5
p3277
sg11
Nsg12
I2037
sg13
I9
sg14
Nsg15
Nsg16
I21
sbag2
(g3
g4
NtRp3278
(dp3279
g7
Nsg8
Nsg9
V\u56fd\u6c11\u306e\u4f11\u65e5
p3280
sg11
Nsg12
I2037
sg13
I9
sg14
Nsg15
Nsg16
I22
sbag2
(g3
g4
NtRp3281
(dp3282
g7
Nsg8
Nsg9
V\u79cb\u5206\u306e\u65e5
p3283
sg11
Nsg12
I2037
sg13
I9
sg14
Nsg15
Nsg16
I23
sbag2
(g3
g4
NtRp3284
(dp3285
g7
Nsg8
Nsg9
V\u4f53\u80b2\u306e\u65e5
p3286
sg11
Nsg12
I2037
sg13
I10
sg14
Nsg15
Nsg16
I12
sbag2
(g3
g4
NtRp3287
(dp3288
g7
Nsg8
Nsg9
V\u6587\u5316\u306e\u65e5
p3289
sg11
Nsg12
I2037
sg13
I11
sg14
Nsg15
Nsg16
I3
sbag2
(g3
g4
NtRp3290
(dp3291
g7
Nsg8
Nsg9
V\u52e4\u52b4\u611f\u8b1d\u306e\u65e5
p3292
sg11
Nsg12
I2037
sg13
I11
sg14
Nsg15
Nsg16
I23
sbag2
(g3
g4
NtRp3293
(dp3294
g7
Nsg8
Nsg9
V\u5929\u7687\u8a95\u751f\u65e5
p3295
sg11
Nsg12
I2037
sg13
I12
sg14
Nsg15
Nsg16
I23
sbag2
(g3
g4
NtRp3296
(dp3297
g7
Nsg8
Nsg9
V\u5143\u65e5
p3298
sg11
Nsg12
I2038
sg13
I1
sg14
Nsg15
Nsg16
I1
sbag2
(g3
g4
NtRp3299
(dp3300
g7
Nsg8
Nsg9
V\u6210\u4eba\u306e\u65e5
p3301
sg11
Nsg12
I2038
sg13
I1
sg14
Nsg15
Nsg16
I11
sbag2
(g3
g4
NtRp3302
(dp3303
g7
Nsg8
Nsg9
V\u5efa\u56fd\u8a18\u5ff5\u306e\u65e5
p3304
sg11
Nsg12
I2038
sg13
I2
sg14
Nsg15
Nsg16
I11
sbag2
(g3
g4
NtRp3305
(dp3306
g7
Nsg8
Nsg9
V\u6625\u5206\u306e\u65e5
p3307
sg11
Nsg12
I2038
sg13
I3
sg14
Nsg15
Nsg16
I20
sbag2
(g3
g4
NtRp3308
(dp3309
g7
Nsg8
Nsg9
V\u662d\u548c\u306e\u65e5
p3310
sg11
Nsg12
I2038
sg13
I4
sg14
Nsg15
Nsg16
I29
sbag2
(g3
g4
NtRp3311
(dp3312
g7
Nsg8
Nsg9
V\u61b2\u6cd5\u8a18\u5ff5\u65e5
p3313
sg11
Nsg12
I2038
sg13
I5
sg14
Nsg15
Nsg16
I3
sbag2
(g3
g4
NtRp3314
(dp3315
g7
Nsg8
Nsg9
V\u307f\u3069\u308a\u306e\u65e5
p3316
sg11
Nsg12
I2038
sg13
I5
sg14
Nsg15
Nsg16
I4
sbag2
(g3
g4
NtRp3317
(dp3318
g7
Nsg8
Nsg9
V\u3053\u3069\u3082\u306e\u65e5
p3319
sg11
Nsg12
I2038
sg13
I5
sg14
Nsg15
Nsg16
I5
sbag2
(g3
g4
NtRp3320
(dp3321
g7
Nsg8
Nsg9
V\u6d77\u306e\u65e5
p3322
sg11
Nsg12
I2038
sg13
I7
sg14
Nsg15
Nsg16
I19
sbag2
(g3
g4
NtRp3323
(dp3324
g7
Nsg8
Nsg9
V\u5c71\u306e\u65e5
p3325
sg11
Nsg12
I2038
sg13
I8
sg14
Nsg15
Nsg16
I11
sbag2
(g3
g4
NtRp3326
(dp3327
g7
Nsg8
Nsg9
V\u656c\u8001\u306e\u65e5
p3328
sg11
Nsg12
I2038
sg13
I9
sg14
Nsg15
Nsg16
I20
sbag2
(g3
g4
NtRp3329
(dp3330
g7
Nsg8
Nsg9
V\u79cb\u5206\u306e\u65e5
p3331
sg11
Nsg12
I2038
sg13
I9
sg14
Nsg15
Nsg16
I23
sbag2
(g3
g4
NtRp3332
(dp3333
g7
Nsg8
Nsg9
V\u4f53\u80b2\u306e\u65e5
p3334
sg11
Nsg12
I2038
sg13
I10
sg14
Nsg15
Nsg16
I11
sbag2
(g3
g4
NtRp3335
(dp3336
g7
Nsg8
Nsg9
V\u6587\u5316\u306e\u65e5
p3337
sg11
Nsg12
I2038
sg13
I11
sg14
Nsg15
Nsg16
I3
sbag2
(g3
g4
NtRp3338
(dp3339
g7
Nsg8
Nsg9
V\u52e4\u52b4\u611f\u8b1d\u306e\u65e5
p3340
sg11
Nsg12
I2038
sg13
I11
sg14
Nsg15
Nsg16
I23
sbag2
(g3
g4
NtRp3341
(dp3342
g7
Nsg8
Nsg9
V\u5929\u7687\u8a95\u751f\u65e5
p3343
sg11
Nsg12
I2038
sg13
I12
sg14
Nsg15
Nsg16
I23
sbag2
(g3
g4
NtRp3344
(dp3345
g7
Nsg8
Nsg9
V\u5143\u65e5
p3346
sg11
Nsg12
I2039
sg13
I1
sg14
Nsg15
Nsg16
I1
sbag2
(g3
g4
NtRp3347
(dp3348
g7
Nsg8
Nsg9
V\u6210\u4eba\u306e\u65e5
p3349
sg11
Nsg12
I2039
sg13
I1
sg14
Nsg15
Nsg16
I10
sbag2
(g3
g4
NtRp3350
(dp3351
g7
Nsg8
Nsg9
V\u5efa\u56fd\u8a18\u5ff5\u306e\u65e5
p3352
sg11
Nsg12
I2039
sg13
I2
sg14
Nsg15
Nsg16
I11
sbag2
(g3
g4
NtRp3353
(dp3354
g7
Nsg8
Nsg9
V\u6625\u5206\u306e\u65e5
p3355
sg11
Nsg12
I2039
sg13
I3
sg14
Nsg15
Nsg16
I21
sbag2
(g3
g4
NtRp3356
(dp3357
g7
Nsg8
Nsg9
V\u662d\u548c\u306e\u65e5
p3358
sg11
Nsg12
I2039
sg13
I4
sg14
Nsg15
Nsg16
I29
sbag2
(g3
g4
NtRp3359
(dp3360
g7
Nsg8
Nsg9
V\u61b2\u6cd5\u8a18\u5ff5\u65e5
p3361
sg11
Nsg12
I2039
sg13
I5
sg14
Nsg15
Nsg16
I3
sbag2
(g3
g4
NtRp3362
(dp3363
g7
Nsg8
Nsg9
V\u307f\u3069\u308a\u306e\u65e5
p3364
sg11
Nsg12
I2039
sg13
I5
sg14
Nsg15
Nsg16
I4
sbag2
(g3
g4
NtRp3365
(dp3366
g7
Nsg8
Nsg9
V\u3053\u3069\u3082\u306e\u65e5
p3367
sg11
Nsg12
I2039
sg13
I5
sg14
Nsg15
Nsg16
I5
sbag2
(g3
g4
NtRp3368
(dp3369
g7
Nsg8
Nsg9
V\u6d77\u306e\u65e5
p3370
sg11
Nsg12
I2039
sg13
I7
sg14
Nsg15
Nsg16
I18
sbag2
(g3
g4
NtRp3371
(dp3372
g7
Nsg8
Nsg9
V\u5c71\u306e\u65e5
p3373
sg11
Nsg12
I2039
sg13
I8
sg14
Nsg15
Nsg16
I11
sbag2
(g3
g4
NtRp3374
(dp3375
g7
Nsg8
Nsg9
V\u656c\u8001\u306e\u65e5
p3376
sg11
Nsg12
I2039
sg13
I9
sg14
Nsg15
Nsg16
I19
sbag2
(g3
g4
NtRp3377
(dp3378
g7
Nsg8
Nsg9
V\u79cb\u5206\u306e\u65e5
p3379
sg11
Nsg12
I2039
sg13
I9
sg14
Nsg15
Nsg16
I23
sbag2
(g3
g4
NtRp3380
(dp3381
g7
Nsg8
Nsg9
V\u4f53\u80b2\u306e\u65e5
p3382
sg11
Nsg12
I2039
sg13
I10
sg14
Nsg15
Nsg16
I10
sbag2
(g3
g4
NtRp3383
(dp3384
g7
Nsg8
Nsg9
V\u6587\u5316\u306e\u65e5
p3385
sg11
Nsg12
I2039
sg13
I11
sg14
Nsg15
Nsg16
I3
sbag2
(g3
g4
NtRp3386
(dp3387
g7
Nsg8
Nsg9
V\u52e4\u52b4\u611f\u8b1d\u306e\u65e5
p3388
sg11
Nsg12
I2039
sg13
I11
sg14
Nsg15
Nsg16
I23
sbag2
(g3
g4
NtRp3389
(dp3390
g7
Nsg8
Nsg9
V\u5929\u7687\u8a95\u751f\u65e5
p3391
sg11
Nsg12
I2039
sg13
I12
sg14
Nsg15
Nsg16
I23
sbag2
(g3
g4
NtRp3392
(dp3393
g7
Nsg8
Nsg9
V\u5143\u65e5
p3394
sg11
Nsg12
I2040
sg13
I1
sg14
Nsg15
Nsg16
I1
sbag2
(g3
g4
NtRp3395
(dp3396
g7
Nsg8
Nsg9
V\u632f\u66ff\u4f11\u65e5
p3397
sg11
Nsg12
I2040
sg13
I1
sg14
Nsg15
Nsg16
I2
sbag2
(g3
g4
NtRp3398
(dp3399
g7
Nsg8
Nsg9
V\u6210\u4eba\u306e\u65e5
p3400
sg11
Nsg12
I2040
sg13
I1
sg14
Nsg15
Nsg16
I9
sbag2
(g3
g4
NtRp3401
(dp3402
g7
Nsg8
Nsg9
V\u5efa\u56fd\u8a18\u5ff5\u306e\u65e5
p3403
sg11
Nsg12
I2040
sg13
I2
sg14
Nsg15
Nsg16
I11
sbag2
(g3
g4
NtRp3404
(dp3405
g7
Nsg8
Nsg9
V\u6625\u5206\u306e\u65e5
p3406
sg11
Nsg12
I2040
sg13
I3
sg14
Nsg15
Nsg16
I20
sbag2
(g3
g4
NtRp3407
(dp3408
g7
Nsg8
Nsg9
V\u662d\u548c\u306e\u65e5
p3409
sg11
Nsg12
I2040
sg13
I4
sg14
Nsg15
Nsg16
I29
sbag2
(g3
g4
NtRp3410
(dp3411
g7
Nsg8
Nsg9
V\u632f\u66ff\u4f11\u65e5
p3412
sg11
Nsg12
I2040
sg13
I4
sg14
Nsg15
Nsg16
I30
sbag2
(g3
g4
NtRp3413
(dp3414
g7
Nsg8
Nsg9
V\u61b2\u6cd5\u8a18\u5ff5\u65e5
p3415
sg11
Nsg12
I2040
sg13
I5
sg14
Nsg15
Nsg16
I3
sbag2
(g3
g4
NtRp3416
(dp3417
g7
Nsg8
Nsg9
V\u307f\u3069\u308a\u306e\u65e5
p3418
sg11
Nsg12
I2040
sg13
I5
sg14
Nsg15
Nsg16
I4
sbag2
(g3
g4
NtRp3419
(dp3420
g7
Nsg8
Nsg9
V\u3053\u3069\u3082\u306e\u65e5
p3421
sg11
Nsg12
I2040
sg13
I5
sg14
Nsg15
Nsg16
I5
sbag2
(g3
g4
NtRp3422
(dp3423
g7
Nsg8
Nsg9
V\u6d77\u306e\u65e5
p3424
sg11
Nsg12
I2040
sg13
I7
sg14
Nsg15
Nsg16
I16
sbag2
(g3
g4
NtRp3425
(dp3426
g7
Nsg8
Nsg9
V\u5c71\u306e\u65e5
p3427
sg11
Nsg12
I2040
sg13
I8
sg14
Nsg15
Nsg16
I11
sbag2
(g3
g4
NtRp3428
(dp3429
g7
Nsg8
Nsg9
V\u656c\u8001\u306e\u65e5
p3430
sg11
Nsg12
I2040
sg13
I9
sg14
Nsg15
Nsg16
I17
sbag2
(g3
g4
NtRp3431
(dp3432
g7
Nsg8
Nsg9
V\u79cb\u5206\u306e\u65e5
p3433
sg11
Nsg12
I2040
sg13
I9
sg14
Nsg15
Nsg16
I22
sbag2
(g3
g4
NtRp3434
(dp3435
g7
Nsg8
Nsg9
V\u4f53\u80b2\u306e\u65e5
p3436
sg11
Nsg12
I2040
sg13
I10
sg14
Nsg15
Nsg16
I8
sbag2
(g3
g4
NtRp3437
(dp3438
g7
Nsg8
Nsg9
V\u6587\u5316\u306e\u65e5
p3439
sg11
Nsg12
I2040
sg13
I11
sg14
Nsg15
Nsg16
I3
sbag2
(g3
g4
NtRp3440
(dp3441
g7
Nsg8
Nsg9
V\u52e4\u52b4\u611f\u8b1d\u306e\u65e5
p3442
sg11
Nsg12
I2040
sg13
I11
sg14
Nsg15
Nsg16
I23
sbag2
(g3
g4
NtRp3443
(dp3444
g7
Nsg8
Nsg9
V\u5929\u7687\u8a95\u751f\u65e5
p3445
sg11
Nsg12
I2040
sg13
I12
sg14
Nsg15
Nsg16
I23
sbag2
(g3
g4
NtRp3446
(dp3447
g7
Nsg8
Nsg9
V\u632f\u66ff\u4f11\u65e5
p3448
sg11
Nsg12
I2040
sg13
I12
sg14
Nsg15
Nsg16
I24
sbag2
(g3
g4
NtRp3449
(dp3450
g7
Nsg8
Nsg9
V\u5143\u65e5
p3451
sg11
Nsg12
I2041
sg13
I1
sg14
Nsg15
Nsg16
I1
sbag2
(g3
g4
NtRp3452
(dp3453
g7
Nsg8
Nsg9
V\u6210\u4eba\u306e\u65e5
p3454
sg11
Nsg12
I2041
sg13
I1
sg14
Nsg15
Nsg16
I14
sbag2
(g3
g4
NtRp3455
(dp3456
g7
Nsg8
Nsg9
V\u5efa\u56fd\u8a18\u5ff5\u306e\u65e5
p3457
sg11
Nsg12
I2041
sg13
I2
sg14
Nsg15
Nsg16
I11
sbag2
(g3
g4
NtRp3458
(dp3459
g7
Nsg8
Nsg9
V\u6625\u5206\u306e\u65e5
p3460
sg11
Nsg12
I2041
sg13
I3
sg14
Nsg15
Nsg16
I20
sbag2
(g3
g4
NtRp3461
(dp3462
g7
Nsg8
Nsg9
V\u662d\u548c\u306e\u65e5
p3463
sg11
Nsg12
I2041
sg13
I4
sg14
Nsg15
Nsg16
I29
sbag2
(g3
g4
NtRp3464
(dp3465
g7
Nsg8
Nsg9
V\u61b2\u6cd5\u8a18\u5ff5\u65e5
p3466
sg11
Nsg12
I2041
sg13
I5
sg14
Nsg15
Nsg16
I3
sbag2
(g3
g4
NtRp3467
(dp3468
g7
Nsg8
Nsg9
V\u307f\u3069\u308a\u306e\u65e5
p3469
sg11
Nsg12
I2041
sg13
I5
sg14
Nsg15
Nsg16
I4
sbag2
(g3
g4
NtRp3470
(dp3471
g7
Nsg8
Nsg9
V\u3053\u3069\u3082\u306e\u65e5
p3472
sg11
Nsg12
I2041
sg13
I5
sg14
Nsg15
Nsg16
I5
sbag2
(g3
g4
NtRp3473
(dp3474
g7
Nsg8
Nsg9
V\u632f\u66ff\u4f11\u65e5
p3475
sg11
Nsg12
I2041
sg13
I5
sg14
Nsg15
Nsg16
I6
sbag2
(g3
g4
NtRp3476
(dp3477
g7
Nsg8
Nsg9
V\u6d77\u306e\u65e5
p3478
sg11
Nsg12
I2041
sg13
I7
sg14
Nsg15
Nsg16
I15
sbag2
(g3
g4
NtRp3479
(dp3480
g7
Nsg8
Nsg9
V\u5c71\u306e\u65e5
p3481
sg11
Nsg12
I2041
sg13
I8
sg14
Nsg15
Nsg16
I11
sbag2
(g3
g4
NtRp3482
(dp3483
g7
Nsg8
Nsg9
V\u632f\u66ff\u4f11\u65e5
p3484
sg11
Nsg12
I2041
sg13
I8
sg14
Nsg15
Nsg16
I12
sbag2
(g3
g4
NtRp3485
(dp3486
g7
Nsg8
Nsg9
V\u656c\u8001\u306e\u65e5
p3487
sg11
Nsg12
I2041
sg13
I9
sg14
Nsg15
Nsg16
I16
sbag2
(g3
g4
NtRp3488
(dp3489
g7
Nsg8
Nsg9
V\u79cb\u5206\u306e\u65e5
p3490
sg11
Nsg12
I2041
sg13
I9
sg14
Nsg15
Nsg16
I23
sbag2
(g3
g4
NtRp3491
(dp3492
g7
Nsg8
Nsg9
V\u4f53\u80b2\u306e\u65e5
p3493
sg11
Nsg12
I2041
sg13
I10
sg14
Nsg15
Nsg16
I14
sbag2
(g3
g4
NtRp3494
(dp3495
g7
Nsg8
Nsg9
V\u6587\u5316\u306e\u65e5
p3496
sg11
Nsg12
I2041
sg13
I11
sg14
Nsg15
Nsg16
I3
sbag2
(g3
g4
NtRp3497
(dp3498
g7
Nsg8
Nsg9
V\u632f\u66ff\u4f11\u65e5
p3499
sg11
Nsg12
I2041
sg13
I11
sg14
Nsg15
Nsg16
I4
sbag2
(g3
g4
NtRp3500
(dp3501
g7
Nsg8
Nsg9
V\u52e4\u52b4\u611f\u8b1d\u306e\u65e5
p3502
sg11
Nsg12
I2041
sg13
I11
sg14
Nsg15
Nsg16
I23
sbag2
(g3
g4
NtRp3503
(dp3504
g7
Nsg8
Nsg9
V\u5929\u7687\u8a95\u751f\u65e5
p3505
sg11
Nsg12
I2041
sg13
I12
sg14
Nsg15
Nsg16
I23
sbag2
(g3
g4
NtRp3506
(dp3507
g7
Nsg8
Nsg9
V\u5143\u65e5
p3508
sg11
Nsg12
I2042
sg13
I1
sg14
Nsg15
Nsg16
I1
sbag2
(g3
g4
NtRp3509
(dp3510
g7
Nsg8
Nsg9
V\u6210\u4eba\u306e\u65e5
p3511
sg11
Nsg12
I2042
sg13
I1
sg14
Nsg15
Nsg16
I13
sbag2
(g3
g4
NtRp3512
(dp3513
g7
Nsg8
Nsg9
V\u5efa\u56fd\u8a18\u5ff5\u306e\u65e5
p3514
sg11
Nsg12
I2042
sg13
I2
sg14
Nsg15
Nsg16
I11
sbag2
(g3
g4
NtRp3515
(dp3516
g7
Nsg8
Nsg9
V\u6625\u5206\u306e\u65e5
p3517
sg11
Nsg12
I2042
sg13
I3
sg14
Nsg15
Nsg16
I20
sbag2
(g3
g4
NtRp3518
(dp3519
g7
Nsg8
Nsg9
V\u662d\u548c\u306e\u65e5
p3520
sg11
Nsg12
I2042
sg13
I4
sg14
Nsg15
Nsg16
I29
sbag2
(g3
g4
NtRp3521
(dp3522
g7
Nsg8
Nsg9
V\u61b2\u6cd5\u8a18\u5ff5\u65e5
p3523
sg11
Nsg12
I2042
sg13
I5
sg14
Nsg15
Nsg16
I3
sbag2
(g3
g4
NtRp3524
(dp3525
g7
Nsg8
Nsg9
V\u307f\u3069\u308a\u306e\u65e5
p3526
sg11
Nsg12
I2042
sg13
I5
sg14
Nsg15
Nsg16
I4
sbag2
(g3
g4
NtRp3527
(dp3528
g7
Nsg8
Nsg9
V\u3053\u3069\u3082\u306e\u65e5
p3529
sg11
Nsg12
I2042
sg13
I5
sg14
Nsg15
Nsg16
I5
sbag2
(g3
g4
NtRp3530
(dp3531
g7
Nsg8
Nsg9
V\u632f\u66ff\u4f11\u65e5
p3532
sg11
Nsg12
I2042
sg13
I5
sg14
Nsg15
Nsg16
I6
sbag2
(g3
g4
NtRp3533
(dp3534
g7
Nsg8
Nsg9
V\u6d77\u306e\u65e5
p3535
sg11
Nsg12
I2042
sg13
I7
sg14
Nsg15
Nsg16
I21
sbag2
(g3
g4
NtRp3536
(dp3537
g7
Nsg8
Nsg9
V\u5c71\u306e\u65e5
p3538
sg11
Nsg12
I2042
sg13
I8
sg14
Nsg15
Nsg16
I11
sbag2
(g3
g4
NtRp3539
(dp3540
g7
Nsg8
Nsg9
V\u656c\u8001\u306e\u65e5
p3541
sg11
Nsg12
I2042
sg13
I9
sg14
Nsg15
Nsg16
I15
sbag2
(g3
g4
NtRp3542
(dp3543
g7
Nsg8
Nsg9
V\u79cb\u5206\u306e\u65e5
p3544
sg11
Nsg12
I2042
sg13
I9
sg14
Nsg15
Nsg16
I23
sbag2
(g3
g4
NtRp3545
(dp3546
g7
Nsg8
Nsg9
V\u4f53\u80b2\u306e\u65e5
p3547
sg11
Nsg12
I2042
sg13
I10
sg14
Nsg15
Nsg16
I13
sbag2
(g3
g4
NtRp3548
(dp3549
g7
Nsg8
Nsg9
V\u6587\u5316\u306e\u65e5
p3550
sg11
Nsg12
I2042
sg13
I11
sg14
Nsg15
Nsg16
I3
sbag2
(g3
g4
NtRp3551
(dp3552
g7
Nsg8
Nsg9
V\u52e4\u52b4\u611f\u8b1d\u306e\u65e5
p3553
sg11
Nsg12
I2042
sg13
I11
sg14
Nsg15
Nsg16
I23
sbag2
(g3
g4
NtRp3554
(dp3555
g7
Nsg8
Nsg9
V\u632f\u66ff\u4f11\u65e5
p3556
sg11
Nsg12
I2042
sg13
I11
sg14
Nsg15
Nsg16
I24
sbag2
(g3
g4
NtRp3557
(dp3558
g7
Nsg8
Nsg9
V\u5929\u7687\u8a95\u751f\u65e5
p3559
sg11
Nsg12
I2042
sg13
I12
sg14
Nsg15
Nsg16
I23
sbag2
(g3
g4
NtRp3560
(dp3561
g7
Nsg8
Nsg9
V\u5143\u65e5
p3562
sg11
Nsg12
I2043
sg13
I1
sg14
Nsg15
Nsg16
I1
sbag2
(g3
g4
NtRp3563
(dp3564
g7
Nsg8
Nsg9
V\u6210\u4eba\u306e\u65e5
p3565
sg11
Nsg12
I2043
sg13
I1
sg14
Nsg15
Nsg16
I12
sbag2
(g3
g4
NtRp3566
(dp3567
g7
Nsg8
Nsg9
V\u5efa\u56fd\u8a18\u5ff5\u306e\u65e5
p3568
sg11
Nsg12
I2043
sg13
I2
sg14
Nsg15
Nsg16
I11
sbag2
(g3
g4
NtRp3569
(dp3570
g7
Nsg8
Nsg9
V\u6625\u5206\u306e\u65e5
p3571
sg11
Nsg12
I2043
sg13
I3
sg14
Nsg15
Nsg16
I21
sbag2
(g3
g4
NtRp3572
(dp3573
g7
Nsg8
Nsg9
V\u662d\u548c\u306e\u65e5
p3574
sg11
Nsg12
I2043
sg13
I4
sg14
Nsg15
Nsg16
I29
sbag2
(g3
g4
NtRp3575
(dp3576
g7
Nsg8
Nsg9
V\u61b2\u6cd5\u8a18\u5ff5\u65e5
p3577
sg11
Nsg12
I2043
sg13
I5
sg14
Nsg15
Nsg16
I3
sbag2
(g3
g4
NtRp3578
(dp3579
g7
Nsg8
Nsg9
V\u307f\u3069\u308a\u306e\u65e5
p3580
sg11
Nsg12
I2043
sg13
I5
sg14
Nsg15
Nsg16
I4
sbag2
(g3
g4
NtRp3581
(dp3582
g7
Nsg8
Nsg9
V\u3053\u3069\u3082\u306e\u65e5
p3583
sg11
Nsg12
I2043
sg13
I5
sg14
Nsg15
Nsg16
I5
sbag2
(g3
g4
NtRp3584
(dp3585
g7
Nsg8
Nsg9
V\u632f\u66ff\u4f11\u65e5
p3586
sg11
Nsg12
I2043
sg13
I5
sg14
Nsg15
Nsg16
I6
sbag2
(g3
g4
NtRp3587
(dp3588
g7
Nsg8
Nsg9
V\u6d77\u306e\u65e5
p3589
sg11
Nsg12
I2043
sg13
I7
sg14
Nsg15
Nsg16
I20
sbag2
(g3
g4
NtRp3590
(dp3591
g7
Nsg8
Nsg9
V\u5c71\u306e\u65e5
p3592
sg11
Nsg12
I2043
sg13
I8
sg14
Nsg15
Nsg16
I11
sbag2
(g3
g4
NtRp3593
(dp3594
g7
Nsg8
Nsg9
V\u656c\u8001\u306e\u65e5
p3595
sg11
Nsg12
I2043
sg13
I9
sg14
Nsg15
Nsg16
I21
sbag2
(g3
g4
NtRp3596
(dp3597
g7
Nsg8
Nsg9
V\u56fd\u6c11\u306e\u4f11\u65e5
p3598
sg11
Nsg12
I2043
sg13
I9
sg14
Nsg15
Nsg16
I22
sbag2
(g3
g4
NtRp3599
(dp3600
g7
Nsg8
Nsg9
V\u79cb\u5206\u306e\u65e5
p3601
sg11
Nsg12
I2043
sg13
I9
sg14
Nsg15
Nsg16
I23
sbag2
(g3
g4
NtRp3602
(dp3603
g7
Nsg8
Nsg9
V\u4f53\u80b2\u306e\u65e5
p3604
sg11
Nsg12
I2043
sg13
I10
sg14
Nsg15
Nsg16
I12
sbag2
(g3
g4
NtRp3605
(dp3606
g7
Nsg8
Nsg9
V\u6587\u5316\u306e\u65e5
p3607
sg11
Nsg12
I2043
sg13
I11
sg14
Nsg15
Nsg16
I3
sbag2
(g3
g4
NtRp3608
(dp3609
g7
Nsg8
Nsg9
V\u52e4\u52b4\u611f\u8b1d\u306e\u65e5
p3610
sg11
Nsg12
I2043
sg13
I11
sg14
Nsg15
Nsg16
I23
sbag2
(g3
g4
NtRp3611
(dp3612
g7
Nsg8
Nsg9
V\u5929\u7687\u8a95\u751f\u65e5
p3613
sg11
Nsg12
I2043
sg13
I12
sg14
Nsg15
Nsg16
I23
sbag2
(g3
g4
NtRp3614
(dp3615
g7
Nsg8
Nsg9
V\u5143\u65e5
p3616
sg11
Nsg12
I2044
sg13
I1
sg14
Nsg15
Nsg16
I1
sbag2
(g3
g4
NtRp3617
(dp3618
g7
Nsg8
Nsg9
V\u6210\u4eba\u306e\u65e5
p3619
sg11
Nsg12
I2044
sg13
I1
sg14
Nsg15
Nsg16
I11
sbag2
(g3
g4
NtRp3620
(dp3621
g7
Nsg8
Nsg9
V\u5efa\u56fd\u8a18\u5ff5\u306e\u65e5
p3622
sg11
Nsg12
I2044
sg13
I2
sg14
Nsg15
Nsg16
I11
sbag2
(g3
g4
NtRp3623
(dp3624
g7
Nsg8
Nsg9
V\u6625\u5206\u306e\u65e5
p3625
sg11
Nsg12
I2044
sg13
I3
sg14
Nsg15
Nsg16
I20
sbag2
(g3
g4
NtRp3626
(dp3627
g7
Nsg8
Nsg9
V\u632f\u66ff\u4f11\u65e5
p3628
sg11
Nsg12
I2044
sg13
I3
sg14
Nsg15
Nsg16
I21
sbag2
(g3
g4
NtRp3629
(dp3630
g7
Nsg8
Nsg9
V\u662d\u548c\u306e\u65e5
p3631
sg11
Nsg12
I2044
sg13
I4
sg14
Nsg15
Nsg16
I29
sbag2
(g3
g4
NtRp3632
(dp3633
g7
Nsg8
Nsg9
V\u61b2\u6cd5\u8a18\u5ff5\u65e5
p3634
sg11
Nsg12
I2044
sg13
I5
sg14
Nsg15
Nsg16
I3
sbag2
(g3
g4
NtRp3635
(dp3636
g7
Nsg8
Nsg9
V\u307f\u3069\u308a\u306e\u65e5
p3637
sg11
Nsg12
I2044
sg13
I5
sg14
Nsg15
Nsg16
I4
sbag2
(g3
g4
NtRp3638
(dp3639
g7
Nsg8
Nsg9
V\u3053\u3069\u3082\u306e\u65e5
p3640
sg11
Nsg12
I2044
sg13
I5
sg14
Nsg15
Nsg16
I5
sbag2
(g3
g4
NtRp3641
(dp3642
g7
Nsg8
Nsg9
V\u6d77\u306e\u65e5
p3643
sg11
Nsg12
I2044
sg13
I7
sg14
Nsg15
Nsg16
I18
sbag2
(g3
g4
NtRp3644
(dp3645
g7
Nsg8
Nsg9
V\u5c71\u306e\u65e5
p3646
sg11
Nsg12
I2044
sg13
I8
sg14
Nsg15
Nsg16
I11
sbag2
(g3
g4
NtRp3647
(dp3648
g7
Nsg8
Nsg9
V\u656c\u8001\u306e\u65e5
p3649
sg11
Nsg12
I2044
sg13
I9
sg14
Nsg15
Nsg16
I19
sbag2
(g3
g4
NtRp3650
(dp3651
g7
Nsg8
Nsg9
V\u79cb\u5206\u306e\u65e5
p3652
sg11
Nsg12
I2044
sg13
I9
sg14
Nsg15
Nsg16
I22
sbag2
(g3
g4
NtRp3653
(dp3654
g7
Nsg8
Nsg9
V\u4f53\u80b2\u306e\u65e5
p3655
sg11
Nsg12
I2044
sg13
I10
sg14
Nsg15
Nsg16
I10
sbag2
(g3
g4
NtRp3656
(dp3657
g7
Nsg8
Nsg9
V\u6587\u5316\u306e\u65e5
p3658
sg11
Nsg12
I2044
sg13
I11
sg14
Nsg15
Nsg16
I3
sbag2
(g3
g4
NtRp3659
(dp3660
g7
Nsg8
Nsg9
V\u52e4\u52b4\u611f\u8b1d\u306e\u65e5
p3661
sg11
Nsg12
I2044
sg13
I11
sg14
Nsg15
Nsg16
I23
sbag2
(g3
g4
NtRp3662
(dp3663
g7
Nsg8
Nsg9
V\u5929\u7687\u8a95\u751f\u65e5
p3664
sg11
Nsg12
I2044
sg13
I12
sg14
Nsg15
Nsg16
I23
sbag2
(g3
g4
NtRp3665
(dp3666
g7
Nsg8
Nsg9
V\u5143\u65e5
p3667
sg11
Nsg12
I2045
sg13
I1
sg14
Nsg15
Nsg16
I1
sbag2
(g3
g4
NtRp3668
(dp3669
g7
Nsg8
Nsg9
V\u632f\u66ff\u4f11\u65e5
p3670
sg11
Nsg12
I2045
sg13
I1
sg14
Nsg15
Nsg16
I2
sbag2
(g3
g4
NtRp3671
(dp3672
g7
Nsg8
Nsg9
V\u6210\u4eba\u306e\u65e5
p3673
sg11
Nsg12
I2045
sg13
I1
sg14
Nsg15
Nsg16
I9
sbag2
(g3
g4
NtRp3674
(dp3675
g7
Nsg8
Nsg9
V\u5efa\u56fd\u8a18\u5ff5\u306e\u65e5
p3676
sg11
Nsg12
I2045
sg13
I2
sg14
Nsg15
Nsg16
I11
sbag2
(g3
g4
NtRp3677
(dp3678
g7
Nsg8
Nsg9
V\u6625\u5206\u306e\u65e5
p3679
sg11
Nsg12
I2045
sg13
I3
sg14
Nsg15
Nsg16
I20
sbag2
(g3
g4
NtRp3680
(dp3681
g7
Nsg8
Nsg9
V\u662d\u548c\u306e\u65e5
p3682
sg11
Nsg12
I2045
sg13
I4
sg14
Nsg15
Nsg16
I29
sbag2
(g3
g4
NtRp3683
(dp3684
g7
Nsg8
Nsg9
V\u61b2\u6cd5\u8a18\u5ff5\u65e5
p3685
sg11
Nsg12
I2045
sg13
I5
sg14
Nsg15
Nsg16
I3
sbag2
(g3
g4
NtRp3686
(dp3687
g7
Nsg8
Nsg9
V\u307f\u3069\u308a\u306e\u65e5
p3688
sg11
Nsg12
I2045
sg13
I5
sg14
Nsg15
Nsg16
I4
sbag2
(g3
g4
NtRp3689
(dp3690
g7
Nsg8
Nsg9
V\u3053\u3069\u3082\u306e\u65e5
p3691
sg11
Nsg12
I2045
sg13
I5
sg14
Nsg15
Nsg16
I5
sbag2
(g3
g4
NtRp3692
(dp3693
g7
Nsg8
Nsg9
V\u6d77\u306e\u65e5
p3694
sg11
Nsg12
I2045
sg13
I7
sg14
Nsg15
Nsg16
I17
sbag2
(g3
g4
NtRp3695
(dp3696
g7
Nsg8
Nsg9
V\u5c71\u306e\u65e5
p3697
sg11
Nsg12
I2045
sg13
I8
sg14
Nsg15
Nsg16
I11
sbag2
(g3
g4
NtRp3698
(dp3699
g7
Nsg8
Nsg9
V\u656c\u8001\u306e\u65e5
p3700
sg11
Nsg12
I2045
sg13
I9
sg14
Nsg15
Nsg16
I18
sbag2
(g3
g4
NtRp3701
(dp3702
g7
Nsg8
Nsg9
V\u79cb\u5206\u306e\u65e5
p3703
sg11
Nsg12
I2045
sg13
I9
sg14
Nsg15
Nsg16
I22
sbag2
(g3
g4
NtRp3704
(dp3705
g7
Nsg8
Nsg9
V\u4f53\u80b2\u306e\u65e5
p3706
sg11
Nsg12
I2045
sg13
I10
sg14
Nsg15
Nsg16
I9
sbag2
(g3
g4
NtRp3707
(dp3708
g7
Nsg8
Nsg9
V\u6587\u5316\u306e\u65e5
p3709
sg11
Nsg12
I2045
sg13
I11
sg14
Nsg15
Nsg16
I3
sbag2
(g3
g4
NtRp3710
(dp3711
g7
Nsg8
Nsg9
V\u52e4\u52b4\u611f\u8b1d\u306e\u65e5
p3712
sg11
Nsg12
I2045
sg13
I11
sg14
Nsg15
Nsg16
I23
sbag2
(g3
g4
NtRp3713
(dp3714
g7
Nsg8
Nsg9
V\u5929\u7687\u8a95\u751f\u65e5
p3715
sg11
Nsg12
I2045
sg13
I12
sg14
Nsg15
Nsg16
I23
sbag2
(g3
g4
NtRp3716
(dp3717
g7
Nsg8
Nsg9
V\u5143\u65e5
p3718
sg11
Nsg12
I2046
sg13
I1
sg14
Nsg15
Nsg16
I1
sbag2
(g3
g4
NtRp3719
(dp3720
g7
Nsg8
Nsg9
V\u6210\u4eba\u306e\u65e5
p3721
sg11
Nsg12
I2046
sg13
I1
sg14
Nsg15
Nsg16
I8
sbag2
(g3
g4
NtRp3722
(dp3723
g7
Nsg8
Nsg9
V\u5efa\u56fd\u8a18\u5ff5\u306e\u65e5
p3724
sg11
Nsg12
I2046
sg13
I2
sg14
Nsg15
Nsg16
I11
sbag2
(g3
g4
NtRp3725
(dp3726
g7
Nsg8
Nsg9
V\u632f\u66ff\u4f11\u65e5
p3727
sg11
Nsg12
I2046
sg13
I2
sg14
Nsg15
Nsg16
I12
sbag2
(g3
g4
NtRp3728
(dp3729
g7
Nsg8
Nsg9
V\u6625\u5206\u306e\u65e5
p3730
sg11
Nsg12
I2046
sg13
I3
sg14
Nsg15
Nsg16
I20
sbag2
(g3
g4
NtRp3731
(dp3732
g7
Nsg8
Nsg9
V\u662d\u548c\u306e\u65e5
p3733
sg11
Nsg12
I2046
sg13
I4
sg14
Nsg15
Nsg16
I29
sbag2
(g3
g4
NtRp3734
(dp3735
g7
Nsg8
Nsg9
V\u632f\u66ff\u4f11\u65e5
p3736
sg11
Nsg12
I2046
sg13
I4
sg14
Nsg15
Nsg16
I30
sbag2
(g3
g4
NtRp3737
(dp3738
g7
Nsg8
Nsg9
V\u61b2\u6cd5\u8a18\u5ff5\u65e5
p3739
sg11
Nsg12
I2046
sg13
I5
sg14
Nsg15
Nsg16
I3
sbag2
(g3
g4
NtRp3740
(dp3741
g7
Nsg8
Nsg9
V\u307f\u3069\u308a\u306e\u65e5
p3742
sg11
Nsg12
I2046
sg13
I5
sg14
Nsg15
Nsg16
I4
sbag2
(g3
g4
NtRp3743
(dp3744
g7
Nsg8
Nsg9
V\u3053\u3069\u3082\u306e\u65e5
p3745
sg11
Nsg12
I2046
sg13
I5
sg14
Nsg15
Nsg16
I5
sbag2
(g3
g4
NtRp3746
(dp3747
g7
Nsg8
Nsg9
V\u6d77\u306e\u65e5
p3748
sg11
Nsg12
I2046
sg13
I7
sg14
Nsg15
Nsg16
I16
sbag2
(g3
g4
NtRp3749
(dp3750
g7
Nsg8
Nsg9
V\u5c71\u306e\u65e5
p3751
sg11
Nsg12
I2046
sg13
I8
sg14
Nsg15
Nsg16
I11
sbag2
(g3
g4
NtRp3752
(dp3753
g7
Nsg8
Nsg9
V\u656c\u8001\u306e\u65e5
p3754
sg11
Nsg12
I2046
sg13
I9
sg14
Nsg15
Nsg16
I17
sbag2
(g3
g4
NtRp3755
(dp3756
g7
Nsg8
Nsg9
V\u79cb\u5206\u306e\u65e5
p3757
sg11
Nsg12
I2046
sg13
I9
sg14
Nsg15
Nsg16
I23
sbag2
(g3
g4
NtRp3758
(dp3759
g7
Nsg8
Nsg9
V\u632f\u66ff\u4f11\u65e5
p3760
sg11
Nsg12
I2046
sg13
I9
sg14
Nsg15
Nsg16
I24
sbag2
(g3
g4
NtRp3761
(dp3762
g7
Nsg8
Nsg9
V\u4f53\u80b2\u306e\u65e5
p3763
sg11
Nsg12
I2046
sg13
I10
sg14
Nsg15
Nsg16
I8
sbag2
(g3
g4
NtRp3764
(dp3765
g7
Nsg8
Nsg9
V\u6587\u5316\u306e\u65e5
p3766
sg11
Nsg12
I2046
sg13
I11
sg14
Nsg15
Nsg16
I3
sbag2
(g3
g4
NtRp3767
(dp3768
g7
Nsg8
Nsg9
V\u52e4\u52b4\u611f\u8b1d\u306e\u65e5
p3769
sg11
Nsg12
I2046
sg13
I11
sg14
Nsg15
Nsg16
I23
sbag2
(g3
g4
NtRp3770
(dp3771
g7
Nsg8
Nsg9
V\u5929\u7687\u8a95\u751f\u65e5
p3772
sg11
Nsg12
I2046
sg13
I12
sg14
Nsg15
Nsg16
I23
sbag2
(g3
g4
NtRp3773
(dp3774
g7
Nsg8
Nsg9
V\u632f\u66ff\u4f11\u65e5
p3775
sg11
Nsg12
I2046
sg13
I12
sg14
Nsg15
Nsg16
I24
sbag2
(g3
g4
NtRp3776
(dp3777
g7
Nsg8
Nsg9
V\u5143\u65e5
p3778
sg11
Nsg12
I2047
sg13
I1
sg14
Nsg15
Nsg16
I1
sbag2
(g3
g4
NtRp3779
(dp3780
g7
Nsg8
Nsg9
V\u6210\u4eba\u306e\u65e5
p3781
sg11
Nsg12
I2047
sg13
I1
sg14
Nsg15
Nsg16
I14
sbag2
(g3
g4
NtRp3782
(dp3783
g7
Nsg8
Nsg9
V\u5efa\u56fd\u8a18\u5ff5\u306e\u65e5
p3784
sg11
Nsg12
I2047
sg13
I2
sg14
Nsg15
Nsg16
I11
sbag2
(g3
g4
NtRp3785
(dp3786
g7
Nsg8
Nsg9
V\u6625\u5206\u306e\u65e5
p3787
sg11
Nsg12
I2047
sg13
I3
sg14
Nsg15
Nsg16
I21
sbag2
(g3
g4
NtRp3788
(dp3789
g7
Nsg8
Nsg9
V\u662d\u548c\u306e\u65e5
p3790
sg11
Nsg12
I2047
sg13
I4
sg14
Nsg15
Nsg16
I29
sbag2
(g3
g4
NtRp3791
(dp3792
g7
Nsg8
Nsg9
V\u61b2\u6cd5\u8a18\u5ff5\u65e5
p3793
sg11
Nsg12
I2047
sg13
I5
sg14
Nsg15
Nsg16
I3
sbag2
(g3
g4
NtRp3794
(dp3795
g7
Nsg8
Nsg9
V\u307f\u3069\u308a\u306e\u65e5
p3796
sg11
Nsg12
I2047
sg13
I5
sg14
Nsg15
Nsg16
I4
sbag2
(g3
g4
NtRp3797
(dp3798
g7
Nsg8
Nsg9
V\u3053\u3069\u3082\u306e\u65e5
p3799
sg11
Nsg12
I2047
sg13
I5
sg14
Nsg15
Nsg16
I5
sbag2
(g3
g4
NtRp3800
(dp3801
g7
Nsg8
Nsg9
V\u632f\u66ff\u4f11\u65e5
p3802
sg11
Nsg12
I2047
sg13
I5
sg14
Nsg15
Nsg16
I6
sbag2
(g3
g4
NtRp3803
(dp3804
g7
Nsg8
Nsg9
V\u6d77\u306e\u65e5
p3805
sg11
Nsg12
I2047
sg13
I7
sg14
Nsg15
Nsg16
I15
sbag2
(g3
g4
NtRp3806
(dp3807
g7
Nsg8
Nsg9
V\u5c71\u306e\u65e5
p3808
sg11
Nsg12
I2047
sg13
I8
sg14
Nsg15
Nsg16
I11
sbag2
(g3
g4
NtRp3809
(dp3810
g7
Nsg8
Nsg9
V\u632f\u66ff\u4f11\u65e5
p3811
sg11
Nsg12
I2047
sg13
I8
sg14
Nsg15
Nsg16
I12
sbag2
(g3
g4
NtRp3812
(dp3813
g7
Nsg8
Nsg9
V\u656c\u8001\u306e\u65e5
p3814
sg11
Nsg12
I2047
sg13
I9
sg14
Nsg15
Nsg16
I16
sbag2
(g3
g4
NtRp3815
(dp3816
g7
Nsg8
Nsg9
V\u79cb\u5206\u306e\u65e5
p3817
sg11
Nsg12
I2047
sg13
I9
sg14
Nsg15
Nsg16
I23
sbag2
(g3
g4
NtRp3818
(dp3819
g7
Nsg8
Nsg9
V\u4f53\u80b2\u306e\u65e5
p3820
sg11
Nsg12
I2047
sg13
I10
sg14
Nsg15
Nsg16
I14
sbag2
(g3
g4
NtRp3821
(dp3822
g7
Nsg8
Nsg9
V\u6587\u5316\u306e\u65e5
p3823
sg11
Nsg12
I2047
sg13
I11
sg14
Nsg15
Nsg16
I3
sbag2
(g3
g4
NtRp3824
(dp3825
g7
Nsg8
Nsg9
V\u632f\u66ff\u4f11\u65e5
p3826
sg11
Nsg12
I2047
sg13
I11
sg14
Nsg15
Nsg16
I4
sbag2
(g3
g4
NtRp3827
(dp3828
g7
Nsg8
Nsg9
V\u52e4\u52b4\u611f\u8b1d\u306e\u65e5
p3829
sg11
Nsg12
I2047
sg13
I11
sg14
Nsg15
Nsg16
I23
sbag2
(g3
g4
NtRp3830
(dp3831
g7
Nsg8
Nsg9
V\u5929\u7687\u8a95\u751f\u65e5
p3832
sg11
Nsg12
I2047
sg13
I12
sg14
Nsg15
Nsg16
I23
sbag2
(g3
g4
NtRp3833
(dp3834
g7
Nsg8
Nsg9
V\u5143\u65e5
p3835
sg11
Nsg12
I2048
sg13
I1
sg14
Nsg15
Nsg16
I1
sbag2
(g3
g4
NtRp3836
(dp3837
g7
Nsg8
Nsg9
V\u6210\u4eba\u306e\u65e5
p3838
sg11
Nsg12
I2048
sg13
I1
sg14
Nsg15
Nsg16
I13
sbag2
(g3
g4
NtRp3839
(dp3840
g7
Nsg8
Nsg9
V\u5efa\u56fd\u8a18\u5ff5\u306e\u65e5
p3841
sg11
Nsg12
I2048
sg13
I2
sg14
Nsg15
Nsg16
I11
sbag2
(g3
g4
NtRp3842
(dp3843
g7
Nsg8
Nsg9
V\u6625\u5206\u306e\u65e5
p3844
sg11
Nsg12
I2048
sg13
I3
sg14
Nsg15
Nsg16
I20
sbag2
(g3
g4
NtRp3845
(dp3846
g7
Nsg8
Nsg9
V\u662d\u548c\u306e\u65e5
p3847
sg11
Nsg12
I2048
sg13
I4
sg14
Nsg15
Nsg16
I29
sbag2
(g3
g4
NtRp3848
(dp3849
g7
Nsg8
Nsg9
V\u61b2\u6cd5\u8a18\u5ff5\u65e5
p3850
sg11
Nsg12
I2048
sg13
I5
sg14
Nsg15
Nsg16
I3
sbag2
(g3
g4
NtRp3851
(dp3852
g7
Nsg8
Nsg9
V\u307f\u3069\u308a\u306e\u65e5
p3853
sg11
Nsg12
I2048
sg13
I5
sg14
Nsg15
Nsg16
I4
sbag2
(g3
g4
NtRp3854
(dp3855
g7
Nsg8
Nsg9
V\u3053\u3069\u3082\u306e\u65e5
p3856
sg11
Nsg12
I2048
sg13
I5
sg14
Nsg15
Nsg16
I5
sbag2
(g3
g4
NtRp3857
(dp3858
g7
Nsg8
Nsg9
V\u632f\u66ff\u4f11\u65e5
p3859
sg11
Nsg12
I2048
sg13
I5
sg14
Nsg15
Nsg16
I6
sbag2
(g3
g4
NtRp3860
(dp3861
g7
Nsg8
Nsg9
V\u6d77\u306e\u65e5
p3862
sg11
Nsg12
I2048
sg13
I7
sg14
Nsg15
Nsg16
I20
sbag2
(g3
g4
NtRp3863
(dp3864
g7
Nsg8
Nsg9
V\u5c71\u306e\u65e5
p3865
sg11
Nsg12
I2048
sg13
I8
sg14
Nsg15
Nsg16
I11
sbag2
(g3
g4
NtRp3866
(dp3867
g7
Nsg8
Nsg9
V\u656c\u8001\u306e\u65e5
p3868
sg11
Nsg12
I2048
sg13
I9
sg14
Nsg15
Nsg16
I21
sbag2
(g3
g4
NtRp3869
(dp3870
g7
Nsg8
Nsg9
V\u79cb\u5206\u306e\u65e5
p3871
sg11
Nsg12
I2048
sg13
I9
sg14
Nsg15
Nsg16
I22
sbag2
(g3
g4
NtRp3872
(dp3873
g7
Nsg8
Nsg9
V\u4f53\u80b2\u306e\u65e5
p3874
sg11
Nsg12
I2048
sg13
I10
sg14
Nsg15
Nsg16
I12
sbag2
(g3
g4
NtRp3875
(dp3876
g7
Nsg8
Nsg9
V\u6587\u5316\u306e\u65e5
p3877
sg11
Nsg12
I2048
sg13
I11
sg14
Nsg15
Nsg16
I3
sbag2
(g3
g4
NtRp3878
(dp3879
g7
Nsg8
Nsg9
V\u52e4\u52b4\u611f\u8b1d\u306e\u65e5
p3880
sg11
Nsg12
I2048
sg13
I11
sg14
Nsg15
Nsg16
I23
sbag2
(g3
g4
NtRp3881
(dp3882
g7
Nsg8
Nsg9
V\u5929\u7687\u8a95\u751f\u65e5
p3883
sg11
Nsg12
I2048
sg13
I12
sg14
Nsg15
Nsg16
I23
sbag2
(g3
g4
NtRp3884
(dp3885
g7
Nsg8
Nsg9
V\u5143\u65e5
p3886
sg11
Nsg12
I2049
sg13
I1
sg14
Nsg15
Nsg16
I1
sbag2
(g3
g4
NtRp3887
(dp3888
g7
Nsg8
Nsg9
V\u6210\u4eba\u306e\u65e5
p3889
sg11
Nsg12
I2049
sg13
I1
sg14
Nsg15
Nsg16
I11
sbag2
(g3
g4
NtRp3890
(dp3891
g7
Nsg8
Nsg9
V\u5efa\u56fd\u8a18\u5ff5\u306e\u65e5
p3892
sg11
Nsg12
I2049
sg13
I2
sg14
Nsg15
Nsg16
I11
sbag2
(g3
g4
NtRp3893
(dp3894
g7
Nsg8
Nsg9
V\u6625\u5206\u306e\u65e5
p3895
sg11
Nsg12
I2049
sg13
I3
sg14
Nsg15
Nsg16
I20
sbag2
(g3
g4
NtRp3896
(dp3897
g7
Nsg8
Nsg9
V\u662d\u548c\u306e\u65e5
p3898
sg11
Nsg12
I2049
sg13
I4
sg14
Nsg15
Nsg16
I29
sbag2
(g3
g4
NtRp3899
(dp3900
g7
Nsg8
Nsg9
V\u61b2\u6cd5\u8a18\u5ff5\u65e5
p3901
sg11
Nsg12
I2049
sg13
I5
sg14
Nsg15
Nsg16
I3
sbag2
(g3
g4
NtRp3902
(dp3903
g7
Nsg8
Nsg9
V\u307f\u3069\u308a\u306e\u65e5
p3904
sg11
Nsg12
I2049
sg13
I5
sg14
Nsg15
Nsg16
I4
sbag2
(g3
g4
NtRp3905
(dp3906
g7
Nsg8
Nsg9
V\u3053\u3069\u3082\u306e\u65e5
p3907
sg11
Nsg12
I2049
sg13
I5
sg14
Nsg15
Nsg16
I5
sbag2
(g3
g4
NtRp3908
(dp3909
g7
Nsg8
Nsg9
V\u6d77\u306e\u65e5
p3910
sg11
Nsg12
I2049
sg13
I7
sg14
Nsg15
Nsg16
I19
sbag2
(g3
g4
NtRp3911
(dp3912
g7
Nsg8
Nsg9
V\u5c71\u306e\u65e5
p3913
sg11
Nsg12
I2049
sg13
I8
sg14
Nsg15
Nsg16
I11
sbag2
(g3
g4
NtRp3914
(dp3915
g7
Nsg8
Nsg9
V\u656c\u8001\u306e\u65e5
p3916
sg11
Nsg12
I2049
sg13
I9
sg14
Nsg15
Nsg16
I20
sbag2
(g3
g4
NtRp3917
(dp3918
g7
Nsg8
Nsg9
V\u56fd\u6c11\u306e\u4f11\u65e5
p3919
sg11
Nsg12
I2049
sg13
I9
sg14
Nsg15
Nsg16
I21
sbag2
(g3
g4
NtRp3920
(dp3921
g7
Nsg8
Nsg9
V\u79cb\u5206\u306e\u65e5
p3922
sg11
Nsg12
I2049
sg13
I9
sg14
Nsg15
Nsg16
I22
sbag2
(g3
g4
NtRp3923
(dp3924
g7
Nsg8
Nsg9
V\u4f53\u80b2\u306e\u65e5
p3925
sg11
Nsg12
I2049
sg13
I10
sg14
Nsg15
Nsg16
I11
sbag2
(g3
g4
NtRp3926
(dp3927
g7
Nsg8
Nsg9
V\u6587\u5316\u306e\u65e5
p3928
sg11
Nsg12
I2049
sg13
I11
sg14
Nsg15
Nsg16
I3
sbag2
(g3
g4
NtRp3929
(dp3930
g7
Nsg8
Nsg9
V\u52e4\u52b4\u611f\u8b1d\u306e\u65e5
p3931
sg11
Nsg12
I2049
sg13
I11
sg14
Nsg15
Nsg16
I23
sbag2
(g3
g4
NtRp3932
(dp3933
g7
Nsg8
Nsg9
V\u5929\u7687\u8a95\u751f\u65e5
p3934
sg11
Nsg12
I2049
sg13
I12
sg14
Nsg15
Nsg16
I23
sbag2
(g3
g4
NtRp3935
(dp3936
g7
Nsg8
Nsg9
V\u5143\u65e5
p3937
sg11
Nsg12
I2050
sg13
I1
sg14
Nsg15
Nsg16
I1
sbag2
(g3
g4
NtRp3938
(dp3939
g7
Nsg8
Nsg9
V\u6210\u4eba\u306e\u65e5
p3940
sg11
Nsg12
I2050
sg13
I1
sg14
Nsg15
Nsg16
I10
sbag2
(g3
g4
NtRp3941
(dp3942
g7
Nsg8
Nsg9
V\u5efa\u56fd\u8a18\u5ff5\u306e\u65e5
p3943
sg11
Nsg12
I2050
sg13
I2
sg14
Nsg15
Nsg16
I11
sbag2
(g3
g4
NtRp3944
(dp3945
g7
Nsg8
Nsg9
V\u6625\u5206\u306e\u65e5
p3946
sg11
Nsg12
I2050
sg13
I3
sg14
Nsg15
Nsg16
I20
sbag2
(g3
g4
NtRp3947
(dp3948
g7
Nsg8
Nsg9
V\u632f\u66ff\u4f11\u65e5
p3949
sg11
Nsg12
I2050
sg13
I3
sg14
Nsg15
Nsg16
I21
sbag2
(g3
g4
NtRp3950
(dp3951
g7
Nsg8
Nsg9
V\u662d\u548c\u306e\u65e5
p3952
sg11
Nsg12
I2050
sg13
I4
sg14
Nsg15
Nsg16
I29
sbag2
(g3
g4
NtRp3953
(dp3954
g7
Nsg8
Nsg9
V\u61b2\u6cd5\u8a18\u5ff5\u65e5
p3955
sg11
Nsg12
I2050
sg13
I5
sg14
Nsg15
Nsg16
I3
sbag2
(g3
g4
NtRp3956
(dp3957
g7
Nsg8
Nsg9
V\u307f\u3069\u308a\u306e\u65e5
p3958
sg11
Nsg12
I2050
sg13
I5
sg14
Nsg15
Nsg16
I4
sbag2
(g3
g4
NtRp3959
(dp3960
g7
Nsg8
Nsg9
V\u3053\u3069\u3082\u306e\u65e5
p3961
sg11
Nsg12
I2050
sg13
I5
sg14
Nsg15
Nsg16
I5
sbag2
(g3
g4
NtRp3962
(dp3963
g7
Nsg8
Nsg9
V\u6d77\u306e\u65e5
p3964
sg11
Nsg12
I2050
sg13
I7
sg14
Nsg15
Nsg16
I18
sbag2
(g3
g4
NtRp3965
(dp3966
g7
Nsg8
Nsg9
V\u5c71\u306e\u65e5
p3967
sg11
Nsg12
I2050
sg13
I8
sg14
Nsg15
Nsg16
I11
sbag2
(g3
g4
NtRp3968
(dp3969
g7
Nsg8
Nsg9
V\u656c\u8001\u306e\u65e5
p3970
sg11
Nsg12
I2050
sg13
I9
sg14
Nsg15
Nsg16
I19
sbag2
(g3
g4
NtRp3971
(dp3972
g7
Nsg8
Nsg9
V\u79cb\u5206\u306e\u65e5
p3973
sg11
Nsg12
I2050
sg13
I9
sg14
Nsg15
Nsg16
I23
sbag2
(g3
g4
NtRp3974
(dp3975
g7
Nsg8
Nsg9
V\u4f53\u80b2\u306e\u65e5
p3976
sg11
Nsg12
I2050
sg13
I10
sg14
Nsg15
Nsg16
I10
sbag2
(g3
g4
NtRp3977
(dp3978
g7
Nsg8
Nsg9
V\u6587\u5316\u306e\u65e5
p3979
sg11
Nsg12
I2050
sg13
I11
sg14
Nsg15
Nsg16
I3
sbag2
(g3
g4
NtRp3980
(dp3981
g7
Nsg8
Nsg9
V\u52e4\u52b4\u611f\u8b1d\u306e\u65e5
p3982
sg11
Nsg12
I2050
sg13
I11
sg14
Nsg15
Nsg16
I23
sbag2
(g3
g4
NtRp3983
(dp3984
g7
Nsg8
Nsg9
V\u5929\u7687\u8a95\u751f\u65e5
p3985
sg11
Nsg12
I2050
sg13
I12
sg14
Nsg15
Nsg16
I23
sba.