(lp1
ccopy_reg
_reconstructor
p2
(cpandas.tseries.holiday
Holiday
p3
c__builtin__
object
p4
NtRp5
(dp6
S'days_of_week'
p7
NsS'observance'
p8
NsS'name'
p9
V\u5143\u65e5
p10
sS'end_date'
p11
NsS'year'
p12
I1970
sS'month'
p13
I1
sS'offset'
p14
NsS'start_date'
p15
NsS'day'
p16
I1
sbag2
(g3
g4
NtRp17
(dp18
g7
Nsg8
Nsg9
V\u5e74\u672b\u5e74\u59cb\u4f11\u696d\u65e5
p19
sg11
Nsg12
I1970
sg13
I1
sg14
Nsg15
Nsg16
I2
sbag2
(g3
g4
NtRp20
(dp21
g7
Nsg8
Nsg9
g19
sg11
Nsg12
I1970
sg13
I1
sg14
Nsg15
Nsg16
I3
sbag2
(g3
g4
NtRp22
(dp23
g7
Nsg8
Nsg9
V\u6210\u4eba\u306e\u65e5
p24
sg11
Nsg12
I1970
sg13
I1
sg14
Nsg15
Nsg16
I15
sbag2
(g3
g4
NtRp25
(dp26
g7
Nsg8
Nsg9
V\u5efa\u56fd\u8a18\u5ff5\u306e\u65e5
p27
sg11
Nsg12
I1970
sg13
I2
sg14
Nsg15
Nsg16
I11
sbag2
(g3
g4
NtRp28
(dp29
g7
Nsg8
Nsg9
V\u6625\u5206\u306e\u65e5
p30
sg11
Nsg12
I1970
sg13
I3
sg14
Nsg15
Nsg16
I21
sbag2
(g3
g4
NtRp31
(dp32
g7
Nsg8
Nsg9
V\u5929\u7687\u8a95\u751f\u65e5
p33
sg11
Nsg12
I1970
sg13
I4
sg14
Nsg15
Nsg16
I29
sbag2
(g3
g4
NtRp34
(dp35
g7
Nsg8
Nsg9
V\u61b2\u6cd5\u8a18\u5ff5\u65e5
p36
sg11
Nsg12
I1970
sg13
I5
sg14
Nsg15
Nsg16
I3
sbag2
(g3
g4
NtRp37
(dp38
g7
Nsg8
Nsg9
V\u3053\u3069\u3082\u306e\u65e5
p39
sg11
Nsg12
I1970
sg13
I5
sg14
Nsg15
Nsg16
I5
sbag2
(g3
g4
NtRp40
(dp41
g7
Nsg8
Nsg9
V\u656c\u8001\u306e\u65e5
p42
sg11
Nsg12
I1970
sg13
I9
sg14
Nsg15
Nsg16
I15
sbag2
(g3
g4
NtRp43
(dp44
g7
Nsg8
Nsg9
V\u79cb\u5206\u306e\u65e5
p45
sg11
Nsg12
I1970
sg13
I9
sg14
Nsg15
Nsg16
I23
sbag2
(g3
g4
NtRp46
(dp47
g7
Nsg8
Nsg9
V\u4f53\u80b2\u306e\u65e5
p48
sg11
Nsg12
I1970
sg13
I10
sg14
Nsg15
Nsg16
I10
sbag2
(g3
g4
NtRp49
(dp50
g7
Nsg8
Nsg9
V\u6587\u5316\u306e\u65e5
p51
sg11
Nsg12
I1970
sg13
I11
sg14
Nsg15
Nsg16
I3
sbag2
(g3
g4
NtRp52
(dp53
g7
Nsg8
Nsg9
V\u52e4\u52b4\u611f\u8b1d\u306e\u65e5
p54
sg11
Nsg12
I1970
sg13
I11
sg14
Nsg15
Nsg16
I23
sbag2
(g3
g4
NtRp55
(dp56
g7
Nsg8
Nsg9
g19
sg11
Nsg12
I1970
sg13
I12
sg14
Nsg15
Nsg16
I31
sbag2
(g3
g4
NtRp57
(dp58
g7
Nsg8
Nsg9
V\u5143\u65e5
p59
sg11
Nsg12
I1971
sg13
I1
sg14
Nsg15
Nsg16
I1
sbag2
(g3
g4
NtRp60
(dp61
g7
Nsg8
Nsg9
g19
sg11
Nsg12
I1971
sg13
I1
sg14
Nsg15
Nsg16
I2
sbag2
(g3
g4
NtRp62
(dp63
g7
Nsg8
Nsg9
g19
sg11
Nsg12
I1971
sg13
I1
sg14
Nsg15
Nsg16
I3
sbag2
(g3
g4
NtRp64
(dp65
g7
Nsg8
Nsg9
V\u6210\u4eba\u306e\u65e5
p66
sg11
Nsg12
I1971
sg13
I1
sg14
Nsg15
Nsg16
I15
sbag2
(g3
g4
NtRp67
(dp68
g7
Nsg8
Nsg9
V\u5efa\u56fd\u8a18\u5ff5\u306e\u65e5
p69
sg11
Nsg12
I1971
sg13
I2
sg14
Nsg15
Nsg16
I11
sbag2
(g3
g4
NtRp70
(dp71
g7
Nsg8
Nsg9
V\u6625\u5206\u306e\u65e5
p72
sg11
Nsg12
I1971
sg13
I3
sg14
Nsg15
Nsg16
I21
sbag2
(g3
g4
NtRp73
(dp74
g7
Nsg8
Nsg9
V\u5929\u7687\u8a95\u751f\u65e5
p75
sg11
Nsg12
I1971
sg13
I4
sg14
Nsg15
Nsg16
I29
sbag2
(g3
g4
NtRp76
(dp77
g7
Nsg8
Nsg9
V\u61b2\u6cd5\u8a18\u5ff5\u65e5
p78
sg11
Nsg12
I1971
sg13
I5
sg14
Nsg15
Nsg16
I3
sbag2
(g3
g4
NtRp79
(dp80
g7
Nsg8
Nsg9
V\u3053\u3069\u3082\u306e\u65e5
p81
sg11
Nsg12
I1971
sg13
I5
sg14
Nsg15
Nsg16
I5
sbag2
(g3
g4
NtRp82
(dp83
g7
Nsg8
Nsg9
V\u656c\u8001\u306e\u65e5
p84
sg11
Nsg12
I1971
sg13
I9
sg14
Nsg15
Nsg16
I15
sbag2
(g3
g4
NtRp85
(dp86
g7
Nsg8
Nsg9
V\u79cb\u5206\u306e\u65e5
p87
sg11
Nsg12
I1971
sg13
I9
sg14
Nsg15
Nsg16
I24
sbag2
(g3
g4
NtRp88
(dp89
g7
Nsg8
Nsg9
V\u4f53\u80b2\u306e\u65e5
p90
sg11
Nsg12
I1971
sg13
I10
sg14
Nsg15
Nsg16
I10
sbag2
(g3
g4
NtRp91
(dp92
g7
Nsg8
Nsg9
V\u6587\u5316\u306e\u65e5
p93
sg11
Nsg12
I1971
sg13
I11
sg14
Nsg15
Nsg16
I3
sbag2
(g3
g4
NtRp94
(dp95
g7
Nsg8
Nsg9
V\u52e4\u52b4\u611f\u8b1d\u306e\u65e5
p96
sg11
Nsg12
I1971
sg13
I11
sg14
Nsg15
Nsg16
I23
sbag2
(g3
g4
NtRp97
(dp98
g7
Nsg8
Nsg9
g19
sg11
Nsg12
I1971
sg13
I12
sg14
Nsg15
Nsg16
I31
sbag2
(g3
g4
NtRp99
(dp100
g7
Nsg8
Nsg9
V\u5143\u65e5
p101
sg11
Nsg12
I1972
sg13
I1
sg14
Nsg15
Nsg16
I1
sbag2
(g3
g4
NtRp102
(dp103
g7
Nsg8
Nsg9
g19
sg11
Nsg12
I1972
sg13
I1
sg14
Nsg15
Nsg16
I2
sbag2
(g3
g4
NtRp104
(dp105
g7
Nsg8
Nsg9
g19
sg11
Nsg12
I1972
sg13
I1
sg14
Nsg15
Nsg16
I3
sbag2
(g3
g4
NtRp106
(dp107
g7
Nsg8
Nsg9
V\u6210\u4eba\u306e\u65e5
p108
sg11
Nsg12
I1972
sg13
I1
sg14
Nsg15
Nsg16
I15
sbag2
(g3
g4
NtRp109
(dp110
g7
Nsg8
Nsg9
V\u5efa\u56fd\u8a18\u5ff5\u306e\u65e5
p111
sg11
Nsg12
I1972
sg13
I2
sg14
Nsg15
Nsg16
I11
sbag2
(g3
g4
NtRp112
(dp113
g7
Nsg8
Nsg9
V\u6625\u5206\u306e\u65e5
p114
sg11
Nsg12
I1972
sg13
I3
sg14
Nsg15
Nsg16
I20
sbag2
(g3
g4
NtRp115
(dp116
g7
Nsg8
Nsg9
V\u5929\u7687\u8a95\u751f\u65e5
p117
sg11
Nsg12
I1972
sg13
I4
sg14
Nsg15
Nsg16
I29
sbag2
(g3
g4
NtRp118
(dp119
g7
Nsg8
Nsg9
V\u61b2\u6cd5\u8a18\u5ff5\u65e5
p120
sg11
Nsg12
I1972
sg13
I5
sg14
Nsg15
Nsg16
I3
sbag2
(g3
g4
NtRp121
(dp122
g7
Nsg8
Nsg9
V\u3053\u3069\u3082\u306e\u65e5
p123
sg11
Nsg12
I1972
sg13
I5
sg14
Nsg15
Nsg16
I5
sbag2
(g3
g4
NtRp124
(dp125
g7
Nsg8
Nsg9
V\u656c\u8001\u306e\u65e5
p126
sg11
Nsg12
I1972
sg13
I9
sg14
Nsg15
Nsg16
I15
sbag2
(g3
g4
NtRp127
(dp128
g7
Nsg8
Nsg9
V\u79cb\u5206\u306e\u65e5
p129
sg11
Nsg12
I1972
sg13
I9
sg14
Nsg15
Nsg16
I23
sbag2
(g3
g4
NtRp130
(dp131
g7
Nsg8
Nsg9
V\u4f53\u80b2\u306e\u65e5
p132
sg11
Nsg12
I1972
sg13
I10
sg14
Nsg15
Nsg16
I10
sbag2
(g3
g4
NtRp133
(dp134
g7
Nsg8
Nsg9
V\u6587\u5316\u306e\u65e5
p135
sg11
Nsg12
I1972
sg13
I11
sg14
Nsg15
Nsg16
I3
sbag2
(g3
g4
NtRp136
(dp137
g7
Nsg8
Nsg9
V\u52e4\u52b4\u611f\u8b1d\u306e\u65e5
p138
sg11
Nsg12
I1972
sg13
I11
sg14
Nsg15
Nsg16
I23
sbag2
(g3
g4
NtRp139
(dp140
g7
Nsg8
Nsg9
g19
sg11
Nsg12
I1972
sg13
I12
sg14
Nsg15
Nsg16
I31
sbag2
(g3
g4
NtRp141
(dp142
g7
Nsg8
Nsg9
V\u5143\u65e5
p143
sg11
Nsg12
I1973
sg13
I1
sg14
Nsg15
Nsg16
I1
sbag2
(g3
g4
NtRp144
(dp145
g7
Nsg8
Nsg9
g19
sg11
Nsg12
I1973
sg13
I1
sg14
Nsg15
Nsg16
I2
sbag2
(g3
g4
NtRp146
(dp147
g7
Nsg8
Nsg9
g19
sg11
Nsg12
I1973
sg13
I1
sg14
Nsg15
Nsg16
I3
sbag2
(g3
g4
NtRp148
(dp149
g7
Nsg8
Nsg9
V\u6210\u4eba\u306e\u65e5
p150
sg11
Nsg12
I1973
sg13
I1
sg14
Nsg15
Nsg16
I15
sbag2
(g3
g4
NtRp151
(dp152
g7
Nsg8
Nsg9
V\u5efa\u56fd\u8a18\u5ff5\u306e\u65e5
p153
sg11
Nsg12
I1973
sg13
I2
sg14
Nsg15
Nsg16
I11
sbag2
(g3
g4
NtRp154
(dp155
g7
Nsg8
Nsg9
V\u6625\u5206\u306e\u65e5
p156
sg11
Nsg12
I1973
sg13
I3
sg14
Nsg15
Nsg16
I21
sbag2
(g3
g4
NtRp157
(dp158
g7
Nsg8
Nsg9
V\u5929\u7687\u8a95\u751f\u65e5
p159
sg11
Nsg12
I1973
sg13
I4
sg14
Nsg15
Nsg16
I29
sbag2
(g3
g4
NtRp160
(dp161
g7
Nsg8
Nsg9
V\u632f\u66ff\u4f11\u65e5
p162
sg11
Nsg12
I1973
sg13
I4
sg14
Nsg15
Nsg16
I30
sbag2
(g3
g4
NtRp163
(dp164
g7
Nsg8
Nsg9
V\u61b2\u6cd5\u8a18\u5ff5\u65e5
p165
sg11
Nsg12
I1973
sg13
I5
sg14
Nsg15
Nsg16
I3
sbag2
(g3
g4
NtRp166
(dp167
g7
Nsg8
Nsg9
V\u3053\u3069\u3082\u306e\u65e5
p168
sg11
Nsg12
I1973
sg13
I5
sg14
Nsg15
Nsg16
I5
sbag2
(g3
g4
NtRp169
(dp170
g7
Nsg8
Nsg9
V\u656c\u8001\u306e\u65e5
p171
sg11
Nsg12
I1973
sg13
I9
sg14
Nsg15
Nsg16
I15
sbag2
(g3
g4
NtRp172
(dp173
g7
Nsg8
Nsg9
V\u79cb\u5206\u306e\u65e5
p174
sg11
Nsg12
I1973
sg13
I9
sg14
Nsg15
Nsg16
I23
sbag2
(g3
g4
NtRp175
(dp176
g7
Nsg8
Nsg9
V\u632f\u66ff\u4f11\u65e5
p177
sg11
Nsg12
I1973
sg13
I9
sg14
Nsg15
Nsg16
I24
sbag2
(g3
g4
NtRp178
(dp179
g7
Nsg8
Nsg9
V\u4f53\u80b2\u306e\u65e5
p180
sg11
Nsg12
I1973
sg13
I10
sg14
Nsg15
Nsg16
I10
sbag2
(g3
g4
NtRp181
(dp182
g7
Nsg8
Nsg9
V\u6587\u5316\u306e\u65e5
p183
sg11
Nsg12
I1973
sg13
I11
sg14
Nsg15
Nsg16
I3
sbag2
(g3
g4
NtRp184
(dp185
g7
Nsg8
Nsg9
V\u52e4\u52b4\u611f\u8b1d\u306e\u65e5
p186
sg11
Nsg12
I1973
sg13
I11
sg14
Nsg15
Nsg16
I23
sbag2
(g3
g4
NtRp187
(dp188
g7
Nsg8
Nsg9
g19
sg11
Nsg12
I1973
sg13
I12
sg14
Nsg15
Nsg16
I31
sbag2
(g3
g4
NtRp189
(dp190
g7
Nsg8
Nsg9
V\u5143\u65e5
p191
sg11
Nsg12
I1974
sg13
I1
sg14
Nsg15
Nsg16
I1
sbag2
(g3
g4
NtRp192
(dp193
g7
Nsg8
Nsg9
g19
sg11
Nsg12
I1974
sg13
I1
sg14
Nsg15
Nsg16
I2
sbag2
(g3
g4
NtRp194
(dp195
g7
Nsg8
Nsg9
g19
sg11
Nsg12
I1974
sg13
I1
sg14
Nsg15
Nsg16
I3
sbag2
(g3
g4
NtRp196
(dp197
g7
Nsg8
Nsg9
V\u6210\u4eba\u306e\u65e5
p198
sg11
Nsg12
I1974
sg13
I1
sg14
Nsg15
Nsg16
I15
sbag2
(g3
g4
NtRp199
(dp200
g7
Nsg8
Nsg9
V\u5efa\u56fd\u8a18\u5ff5\u306e\u65e5
p201
sg11
Nsg12
I1974
sg13
I2
sg14
Nsg15
Nsg16
I11
sbag2
(g3
g4
NtRp202
(dp203
g7
Nsg8
Nsg9
V\u6625\u5206\u306e\u65e5
p204
sg11
Nsg12
I1974
sg13
I3
sg14
Nsg15
Nsg16
I21
sbag2
(g3
g4
NtRp205
(dp206
g7
Nsg8
Nsg9
V\u5929\u7687\u8a95\u751f\u65e5
p207
sg11
Nsg12
I1974
sg13
I4
sg14
Nsg15
Nsg16
I29
sbag2
(g3
g4
NtRp208
(dp209
g7
Nsg8
Nsg9
V\u61b2\u6cd5\u8a18\u5ff5\u65e5
p210
sg11
Nsg12
I1974
sg13
I5
sg14
Nsg15
Nsg16
I3
sbag2
(g3
g4
NtRp211
(dp212
g7
Nsg8
Nsg9
V\u3053\u3069\u3082\u306e\u65e5
p213
sg11
Nsg12
I1974
sg13
I5
sg14
Nsg15
Nsg16
I5
sbag2
(g3
g4
NtRp214
(dp215
g7
Nsg8
Nsg9
V\u632f\u66ff\u4f11\u65e5
p216
sg11
Nsg12
I1974
sg13
I5
sg14
Nsg15
Nsg16
I6
sbag2
(g3
g4
NtRp217
(dp218
g7
Nsg8
Nsg9
V\u656c\u8001\u306e\u65e5
p219
sg11
Nsg12
I1974
sg13
I9
sg14
Nsg15
Nsg16
I15
sbag2
(g3
g4
NtRp220
(dp221
g7
Nsg8
Nsg9
V\u632f\u66ff\u4f11\u65e5
p222
sg11
Nsg12
I1974
sg13
I9
sg14
Nsg15
Nsg16
I16
sbag2
(g3
g4
NtRp223
(dp224
g7
Nsg8
Nsg9
V\u79cb\u5206\u306e\u65e5
p225
sg11
Nsg12
I1974
sg13
I9
sg14
Nsg15
Nsg16
I23
sbag2
(g3
g4
NtRp226
(dp227
g7
Nsg8
Nsg9
V\u4f53\u80b2\u306e\u65e5
p228
sg11
Nsg12
I1974
sg13
I10
sg14
Nsg15
Nsg16
I10
sbag2
(g3
g4
NtRp229
(dp230
g7
Nsg8
Nsg9
V\u6587\u5316\u306e\u65e5
p231
sg11
Nsg12
I1974
sg13
I11
sg14
Nsg15
Nsg16
I3
sbag2
(g3
g4
NtRp232
(dp233
g7
Nsg8
Nsg9
V\u632f\u66ff\u4f11\u65e5
p234
sg11
Nsg12
I1974
sg13
I11
sg14
Nsg15
Nsg16
I4
sbag2
(g3
g4
NtRp235
(dp236
g7
Nsg8
Nsg9
V\u52e4\u52b4\u611f\u8b1d\u306e\u65e5
p237
sg11
Nsg12
I1974
sg13
I11
sg14
Nsg15
Nsg16
I23
sbag2
(g3
g4
NtRp238
(dp239
g7
Nsg8
Nsg9
g19
sg11
Nsg12
I1974
sg13
I12
sg14
Nsg15
Nsg16
I31
sbag2
(g3
g4
NtRp240
(dp241
g7
Nsg8
Nsg9
V\u5143\u65e5
p242
sg11
Nsg12
I1975
sg13
I1
sg14
Nsg15
Nsg16
I1
sbag2
(g3
g4
NtRp243
(dp244
g7
Nsg8
Nsg9
g19
sg11
Nsg12
I1975
sg13
I1
sg14
Nsg15
Nsg16
I2
sbag2
(g3
g4
NtRp245
(dp246
g7
Nsg8
Nsg9
g19
sg11
Nsg12
I1975
sg13
I1
sg14
Nsg15
Nsg16
I3
sbag2
(g3
g4
NtRp247
(dp248
g7
Nsg8
Nsg9
V\u6210\u4eba\u306e\u65e5
p249
sg11
Nsg12
I1975
sg13
I1
sg14
Nsg15
Nsg16
I15
sbag2
(g3
g4
NtRp250
(dp251
g7
Nsg8
Nsg9
V\u5efa\u56fd\u8a18\u5ff5\u306e\u65e5
p252
sg11
Nsg12
I1975
sg13
I2
sg14
Nsg15
Nsg16
I11
sbag2
(g3
g4
NtRp253
(dp254
g7
Nsg8
Nsg9
V\u6625\u5206\u306e\u65e5
p255
sg11
Nsg12
I1975
sg13
I3
sg14
Nsg15
Nsg16
I21
sbag2
(g3
g4
NtRp256
(dp257
g7
Nsg8
Nsg9
V\u5929\u7687\u8a95\u751f\u65e5
p258
sg11
Nsg12
I1975
sg13
I4
sg14
Nsg15
Nsg16
I29
sbag2
(g3
g4
NtRp259
(dp260
g7
Nsg8
Nsg9
V\u61b2\u6cd5\u8a18\u5ff5\u65e5
p261
sg11
Nsg12
I1975
sg13
I5
sg14
Nsg15
Nsg16
I3
sbag2
(g3
g4
NtRp262
(dp263
g7
Nsg8
Nsg9
V\u3053\u3069\u3082\u306e\u65e5
p264
sg11
Nsg12
I1975
sg13
I5
sg14
Nsg15
Nsg16
I5
sbag2
(g3
g4
NtRp265
(dp266
g7
Nsg8
Nsg9
V\u656c\u8001\u306e\u65e5
p267
sg11
Nsg12
I1975
sg13
I9
sg14
Nsg15
Nsg16
I15
sbag2
(g3
g4
NtRp268
(dp269
g7
Nsg8
Nsg9
V\u79cb\u5206\u306e\u65e5
p270
sg11
Nsg12
I1975
sg13
I9
sg14
Nsg15
Nsg16
I24
sbag2
(g3
g4
NtRp271
(dp272
g7
Nsg8
Nsg9
V\u4f53\u80b2\u306e\u65e5
p273
sg11
Nsg12
I1975
sg13
I10
sg14
Nsg15
Nsg16
I10
sbag2
(g3
g4
NtRp274
(dp275
g7
Nsg8
Nsg9
V\u6587\u5316\u306e\u65e5
p276
sg11
Nsg12
I1975
sg13
I11
sg14
Nsg15
Nsg16
I3
sbag2
(g3
g4
NtRp277
(dp278
g7
Nsg8
Nsg9
V\u52e4\u52b4\u611f\u8b1d\u306e\u65e5
p279
sg11
Nsg12
I1975
sg13
I11
sg14
Nsg15
Nsg16
I23
sbag2
(g3
g4
NtRp280
(dp281
g7
Nsg8
Nsg9
V\u632f\u66ff\u4f11\u65e5
p282
sg11
Nsg12
I1975
sg13
I11
sg14
Nsg15
Nsg16
I24
sbag2
(g3
g4
NtRp283
(dp284
g7
Nsg8
Nsg9
g19
sg11
Nsg12
I1975
sg13
I12
sg14
Nsg15
Nsg16
I31
sbag2
(g3
g4
NtRp285
(dp286
g7
Nsg8
Nsg9
V\u5143\u65e5
p287
sg11
Nsg12
I1976
sg13
I1
sg14
Nsg15
Nsg16
I1
sbag2
(g3
g4
NtRp288
(dp289
g7
Nsg8
Nsg9
g19
sg11
Nsg12
I1976
sg13
I1
sg14
Nsg15
Nsg16
I2
sbag2
(g3
g4
NtRp290
(dp291
g7
Nsg8
Nsg9
g19
sg11
Nsg12
I1976
sg13
I1
sg14
Nsg15
Nsg16
I3
sbag2
(g3
g4
NtRp292
(dp293
g7
Nsg8
Nsg9
V\u6210\u4eba\u306e\u65e5
p294
sg11
Nsg12
I1976
sg13
I1
sg14
Nsg15
Nsg16
I15
sbag2
(g3
g4
NtRp295
(dp296
g7
Nsg8
Nsg9
V\u5efa\u56fd\u8a18\u5ff5\u306e\u65e5
p297
sg11
Nsg12
I1976
sg13
I2
sg14
Nsg15
Nsg16
I11
sbag2
(g3
g4
NtRp298
(dp299
g7
Nsg8
Nsg9
V\u6625\u5206\u306e\u65e5
p300
sg11
Nsg12
I1976
sg13
I3
sg14
Nsg15
Nsg16
I20
sbag2
(g3
g4
NtRp301
(dp302
g7
Nsg8
Nsg9
V\u5929\u7687\u8a95\u751f\u65e5
p303
sg11
Nsg12
I1976
sg13
I4
sg14
Nsg15
Nsg16
I29
sbag2
(g3
g4
NtRp304
(dp305
g7
Nsg8
Nsg9
V\u61b2\u6cd5\u8a18\u5ff5\u65e5
p306
sg11
Nsg12
I1976
sg13
I5
sg14
Nsg15
Nsg16
I3
sbag2
(g3
g4
NtRp307
(dp308
g7
Nsg8
Nsg9
V\u3053\u3069\u3082\u306e\u65e5
p309
sg11
Nsg12
I1976
sg13
I5
sg14
Nsg15
Nsg16
I5
sbag2
(g3
g4
NtRp310
(dp311
g7
Nsg8
Nsg9
V\u656c\u8001\u306e\u65e5
p312
sg11
Nsg12
I1976
sg13
I9
sg14
Nsg15
Nsg16
I15
sbag2
(g3
g4
NtRp313
(dp314
g7
Nsg8
Nsg9
V\u79cb\u5206\u306e\u65e5
p315
sg11
Nsg12
I1976
sg13
I9
sg14
Nsg15
Nsg16
I23
sbag2
(g3
g4
NtRp316
(dp317
g7
Nsg8
Nsg9
V\u4f53\u80b2\u306e\u65e5
p318
sg11
Nsg12
I1976
sg13
I10
sg14
Nsg15
Nsg16
I10
sbag2
(g3
g4
NtRp319
(dp320
g7
Nsg8
Nsg9
V\u632f\u66ff\u4f11\u65e5
p321
sg11
Nsg12
I1976
sg13
I10
sg14
Nsg15
Nsg16
I11
sbag2
(g3
g4
NtRp322
(dp323
g7
Nsg8
Nsg9
V\u6587\u5316\u306e\u65e5
p324
sg11
Nsg12
I1976
sg13
I11
sg14
Nsg15
Nsg16
I3
sbag2
(g3
g4
NtRp325
(dp326
g7
Nsg8
Nsg9
V\u52e4\u52b4\u611f\u8b1d\u306e\u65e5
p327
sg11
Nsg12
I1976
sg13
I11
sg14
Nsg15
Nsg16
I23
sbag2
(g3
g4
NtRp328
(dp329
g7
Nsg8
Nsg9
g19
sg11
Nsg12
I1976
sg13
I12
sg14
Nsg15
Nsg16
I31
sbag2
(g3
g4
NtRp330
(dp331
g7
Nsg8
Nsg9
V\u5143\u65e5
p332
sg11
Nsg12
I1977
sg13
I1
sg14
Nsg15
Nsg16
I1
sbag2
(g3
g4
NtRp333
(dp334
g7
Nsg8
Nsg9
g19
sg11
Nsg12
I1977
sg13
I1
sg14
Nsg15
Nsg16
I2
sbag2
(g3
g4
NtRp335
(dp336
g7
Nsg8
Nsg9
g19
sg11
Nsg12
I1977
sg13
I1
sg14
Nsg15
Nsg16
I3
sbag2
(g3
g4
NtRp337
(dp338
g7
Nsg8
Nsg9
V\u6210\u4eba\u306e\u65e5
p339
sg11
Nsg12
I1977
sg13
I1
sg14
Nsg15
Nsg16
I15
sbag2
(g3
g4
NtRp340
(dp341
g7
Nsg8
Nsg9
V\u5efa\u56fd\u8a18\u5ff5\u306e\u65e5
p342
sg11
Nsg12
I1977
sg13
I2
sg14
Nsg15
Nsg16
I11
sbag2
(g3
g4
NtRp343
(dp344
g7
Nsg8
Nsg9
V\u6625\u5206\u306e\u65e5
p345
sg11
Nsg12
I1977
sg13
I3
sg14
Nsg15
Nsg16
I21
sbag2
(g3
g4
NtRp346
(dp347
g7
Nsg8
Nsg9
V\u5929\u7687\u8a95\u751f\u65e5
p348
sg11
Nsg12
I1977
sg13
I4
sg14
Nsg15
Nsg16
I29
sbag2
(g3
g4
NtRp349
(dp350
g7
Nsg8
Nsg9
V\u61b2\u6cd5\u8a18\u5ff5\u65e5
p351
sg11
Nsg12
I1977
sg13
I5
sg14
Nsg15
Nsg16
I3
sbag2
(g3
g4
NtRp352
(dp353
g7
Nsg8
Nsg9
V\u3053\u3069\u3082\u306e\u65e5
p354
sg11
Nsg12
I1977
sg13
I5
sg14
Nsg15
Nsg16
I5
sbag2
(g3
g4
NtRp355
(dp356
g7
Nsg8
Nsg9
V\u656c\u8001\u306e\u65e5
p357
sg11
Nsg12
I1977
sg13
I9
sg14
Nsg15
Nsg16
I15
sbag2
(g3
g4
NtRp358
(dp359
g7
Nsg8
Nsg9
V\u79cb\u5206\u306e\u65e5
p360
sg11
Nsg12
I1977
sg13
I9
sg14
Nsg15
Nsg16
I23
sbag2
(g3
g4
NtRp361
(dp362
g7
Nsg8
Nsg9
V\u4f53\u80b2\u306e\u65e5
p363
sg11
Nsg12
I1977
sg13
I10
sg14
Nsg15
Nsg16
I10
sbag2
(g3
g4
NtRp364
(dp365
g7
Nsg8
Nsg9
V\u6587\u5316\u306e\u65e5
p366
sg11
Nsg12
I1977
sg13
I11
sg14
Nsg15
Nsg16
I3
sbag2
(g3
g4
NtRp367
(dp368
g7
Nsg8
Nsg9
V\u52e4\u52b4\u611f\u8b1d\u306e\u65e5
p369
sg11
Nsg12
I1977
sg13
I11
sg14
Nsg15
Nsg16
I23
sbag2
(g3
g4
NtRp370
(dp371
g7
Nsg8
Nsg9
g19
sg11
Nsg12
I1977
sg13
I12
sg14
Nsg15
Nsg16
I31
sbag2
(g3
g4
NtRp372
(dp373
g7
Nsg8
Nsg9
V\u5143\u65e5
p374
sg11
Nsg12
I1978
sg13
I1
sg14
Nsg15
Nsg16
I1
sbag2
(g3
g4
NtRp375
(dp376
g7
Nsg8
Nsg9
V\u632f\u66ff\u4f11\u65e5
p377
sg11
Nsg12
I1978
sg13
I1
sg14
Nsg15
Nsg16
I2
sbag2
(g3
g4
NtRp378
(dp379
g7
Nsg8
Nsg9
g19
sg11
Nsg12
I1978
sg13
I1
sg14
Nsg15
Nsg16
I3
sbag2
(g3
g4
NtRp380
(dp381
g7
Nsg8
Nsg9
V\u6210\u4eba\u306e\u65e5
p382
sg11
Nsg12
I1978
sg13
I1
sg14
Nsg15
Nsg16
I15
sbag2
(g3
g4
NtRp383
(dp384
g7
Nsg8
Nsg9
V\u632f\u66ff\u4f11\u65e5
p385
sg11
Nsg12
I1978
sg13
I1
sg14
Nsg15
Nsg16
I16
sbag2
(g3
g4
NtRp386
(dp387
g7
Nsg8
Nsg9
V\u5efa\u56fd\u8a18\u5ff5\u306e\u65e5
p388
sg11
Nsg12
I1978
sg13
I2
sg14
Nsg15
Nsg16
I11
sbag2
(g3
g4
NtRp389
(dp390
g7
Nsg8
Nsg9
V\u6625\u5206\u306e\u65e5
p391
sg11
Nsg12
I1978
sg13
I3
sg14
Nsg15
Nsg16
I21
sbag2
(g3
g4
NtRp392
(dp393
g7
Nsg8
Nsg9
V\u5929\u7687\u8a95\u751f\u65e5
p394
sg11
Nsg12
I1978
sg13
I4
sg14
Nsg15
Nsg16
I29
sbag2
(g3
g4
NtRp395
(dp396
g7
Nsg8
Nsg9
V\u61b2\u6cd5\u8a18\u5ff5\u65e5
p397
sg11
Nsg12
I1978
sg13
I5
sg14
Nsg15
Nsg16
I3
sbag2
(g3
g4
NtRp398
(dp399
g7
Nsg8
Nsg9
V\u3053\u3069\u3082\u306e\u65e5
p400
sg11
Nsg12
I1978
sg13
I5
sg14
Nsg15
Nsg16
I5
sbag2
(g3
g4
NtRp401
(dp402
g7
Nsg8
Nsg9
V\u656c\u8001\u306e\u65e5
p403
sg11
Nsg12
I1978
sg13
I9
sg14
Nsg15
Nsg16
I15
sbag2
(g3
g4
NtRp404
(dp405
g7
Nsg8
Nsg9
V\u79cb\u5206\u306e\u65e5
p406
sg11
Nsg12
I1978
sg13
I9
sg14
Nsg15
Nsg16
I23
sbag2
(g3
g4
NtRp407
(dp408
g7
Nsg8
Nsg9
V\u4f53\u80b2\u306e\u65e5
p409
sg11
Nsg12
I1978
sg13
I10
sg14
Nsg15
Nsg16
I10
sbag2
(g3
g4
NtRp410
(dp411
g7
Nsg8
Nsg9
V\u6587\u5316\u306e\u65e5
p412
sg11
Nsg12
I1978
sg13
I11
sg14
Nsg15
Nsg16
I3
sbag2
(g3
g4
NtRp413
(dp414
g7
Nsg8
Nsg9
V\u52e4\u52b4\u611f\u8b1d\u306e\u65e5
p415
sg11
Nsg12
I1978
sg13
I11
sg14
Nsg15
Nsg16
I23
sbag2
(g3
g4
NtRp416
(dp417
g7
Nsg8
Nsg9
g19
sg11
Nsg12
I1978
sg13
I12
sg14
Nsg15
Nsg16
I31
sbag2
(g3
g4
NtRp418
(dp419
g7
Nsg8
Nsg9
V\u5143\u65e5
p420
sg11
Nsg12
I1979
sg13
I1
sg14
Nsg15
Nsg16
I1
sbag2
(g3
g4
NtRp421
(dp422
g7
Nsg8
Nsg9
g19
sg11
Nsg12
I1979
sg13
I1
sg14
Nsg15
Nsg16
I2
sbag2
(g3
g4
NtRp423
(dp424
g7
Nsg8
Nsg9
g19
sg11
Nsg12
I1979
sg13
I1
sg14
Nsg15
Nsg16
I3
sbag2
(g3
g4
NtRp425
(dp426
g7
Nsg8
Nsg9
V\u6210\u4eba\u306e\u65e5
p427
sg11
Nsg12
I1979
sg13
I1
sg14
Nsg15
Nsg16
I15
sbag2
(g3
g4
NtRp428
(dp429
g7
Nsg8
Nsg9
V\u5efa\u56fd\u8a18\u5ff5\u306e\u65e5
p430
sg11
Nsg12
I1979
sg13
I2
sg14
Nsg15
Nsg16
I11
sbag2
(g3
g4
NtRp431
(dp432
g7
Nsg8
Nsg9
V\u632f\u66ff\u4f11\u65e5
p433
sg11
Nsg12
I1979
sg13
I2
sg14
Nsg15
Nsg16
I12
sbag2
(g3
g4
NtRp434
(dp435
g7
Nsg8
Nsg9
V\u6625\u5206\u306e\u65e5
p436
sg11
Nsg12
I1979
sg13
I3
sg14
Nsg15
Nsg16
I21
sbag2
(g3
g4
NtRp437
(dp438
g7
Nsg8
Nsg9
V\u5929\u7687\u8a95\u751f\u65e5
p439
sg11
Nsg12
I1979
sg13
I4
sg14
Nsg15
Nsg16
I29
sbag2
(g3
g4
NtRp440
(dp441
g7
Nsg8
Nsg9
V\u632f\u66ff\u4f11\u65e5
p442
sg11
Nsg12
I1979
sg13
I4
sg14
Nsg15
Nsg16
I30
sbag2
(g3
g4
NtRp443
(dp444
g7
Nsg8
Nsg9
V\u61b2\u6cd5\u8a18\u5ff5\u65e5
p445
sg11
Nsg12
I1979
sg13
I5
sg14
Nsg15
Nsg16
I3
sbag2
(g3
g4
NtRp446
(dp447
g7
Nsg8
Nsg9
V\u3053\u3069\u3082\u306e\u65e5
p448
sg11
Nsg12
I1979
sg13
I5
sg14
Nsg15
Nsg16
I5
sbag2
(g3
g4
NtRp449
(dp450
g7
Nsg8
Nsg9
V\u656c\u8001\u306e\u65e5
p451
sg11
Nsg12
I1979
sg13
I9
sg14
Nsg15
Nsg16
I15
sbag2
(g3
g4
NtRp452
(dp453
g7
Nsg8
Nsg9
V\u79cb\u5206\u306e\u65e5
p454
sg11
Nsg12
I1979
sg13
I9
sg14
Nsg15
Nsg16
I24
sbag2
(g3
g4
NtRp455
(dp456
g7
Nsg8
Nsg9
V\u4f53\u80b2\u306e\u65e5
p457
sg11
Nsg12
I1979
sg13
I10
sg14
Nsg15
Nsg16
I10
sbag2
(g3
g4
NtRp458
(dp459
g7
Nsg8
Nsg9
V\u6587\u5316\u306e\u65e5
p460
sg11
Nsg12
I1979
sg13
I11
sg14
Nsg15
Nsg16
I3
sbag2
(g3
g4
NtRp461
(dp462
g7
Nsg8
Nsg9
V\u52e4\u52b4\u611f\u8b1d\u306e\u65e5
p463
sg11
Nsg12
I1979
sg13
I11
sg14
Nsg15
Nsg16
I23
sbag2
(g3
g4
NtRp464
(dp465
g7
Nsg8
Nsg9
g19
sg11
Nsg12
I1979
sg13
I12
sg14
Nsg15
Nsg16
I31
sbag2
(g3
g4
NtRp466
(dp467
g7
Nsg8
Nsg9
V\u5143\u65e5
p468
sg11
Nsg12
I1980
sg13
I1
sg14
Nsg15
Nsg16
I1
sbag2
(g3
g4
NtRp469
(dp470
g7
Nsg8
Nsg9
g19
sg11
Nsg12
I1980
sg13
I1
sg14
Nsg15
Nsg16
I2
sbag2
(g3
g4
NtRp471
(dp472
g7
Nsg8
Nsg9
g19
sg11
Nsg12
I1980
sg13
I1
sg14
Nsg15
Nsg16
I3
sbag2
(g3
g4
NtRp473
(dp474
g7
Nsg8
Nsg9
V\u6210\u4eba\u306e\u65e5
p475
sg11
Nsg12
I1980
sg13
I1
sg14
Nsg15
Nsg16
I15
sbag2
(g3
g4
NtRp476
(dp477
g7
Nsg8
Nsg9
V\u5efa\u56fd\u8a18\u5ff5\u306e\u65e5
p478
sg11
Nsg12
I1980
sg13
I2
sg14
Nsg15
Nsg16
I11
sbag2
(g3
g4
NtRp479
(dp480
g7
Nsg8
Nsg9
V\u6625\u5206\u306e\u65e5
p481
sg11
Nsg12
I1980
sg13
I3
sg14
Nsg15
Nsg16
I20
sbag2
(g3
g4
NtRp482
(dp483
g7
Nsg8
Nsg9
V\u5929\u7687\u8a95\u751f\u65e5
p484
sg11
Nsg12
I1980
sg13
I4
sg14
Nsg15
Nsg16
I29
sbag2
(g3
g4
NtRp485
(dp486
g7
Nsg8
Nsg9
V\u61b2\u6cd5\u8a18\u5ff5\u65e5
p487
sg11
Nsg12
I1980
sg13
I5
sg14
Nsg15
Nsg16
I3
sbag2
(g3
g4
NtRp488
(dp489
g7
Nsg8
Nsg9
V\u3053\u3069\u3082\u306e\u65e5
p490
sg11
Nsg12
I1980
sg13
I5
sg14
Nsg15
Nsg16
I5
sbag2
(g3
g4
NtRp491
(dp492
g7
Nsg8
Nsg9
V\u656c\u8001\u306e\u65e5
p493
sg11
Nsg12
I1980
sg13
I9
sg14
Nsg15
Nsg16
I15
sbag2
(g3
g4
NtRp494
(dp495
g7
Nsg8
Nsg9
V\u79cb\u5206\u306e\u65e5
p496
sg11
Nsg12
I1980
sg13
I9
sg14
Nsg15
Nsg16
I23
sbag2
(g3
g4
NtRp497
(dp498
g7
Nsg8
Nsg9
V\u4f53\u80b2\u306e\u65e5
p499
sg11
Nsg12
I1980
sg13
I10
sg14
Nsg15
Nsg16
I10
sbag2
(g3
g4
NtRp500
(dp501
g7
Nsg8
Nsg9
V\u6587\u5316\u306e\u65e5
p502
sg11
Nsg12
I1980
sg13
I11
sg14
Nsg15
Nsg16
I3
sbag2
(g3
g4
NtRp503
(dp504
g7
Nsg8
Nsg9
V\u52e4\u52b4\u611f\u8b1d\u306e\u65e5
p505
sg11
Nsg12
I1980
sg13
I11
sg14
Nsg15
Nsg16
I23
sbag2
(g3
g4
NtRp506
(dp507
g7
Nsg8
Nsg9
V\u632f\u66ff\u4f11\u65e5
p508
sg11
Nsg12
I1980
sg13
I11
sg14
Nsg15
Nsg16
I24
sbag2
(g3
g4
NtRp509
(dp510
g7
Nsg8
Nsg9
g19
sg11
Nsg12
I1980
sg13
I12
sg14
Nsg15
Nsg16
I31
sbag2
(g3
g4
NtRp511
(dp512
g7
Nsg8
Nsg9
V\u5143\u65e5
p513
sg11
Nsg12
I1981
sg13
I1
sg14
Nsg15
Nsg16
I1
sbag2
(g3
g4
NtRp514
(dp515
g7
Nsg8
Nsg9
g19
sg11
Nsg12
I1981
sg13
I1
sg14
Nsg15
Nsg16
I2
sbag2
(g3
g4
NtRp516
(dp517
g7
Nsg8
Nsg9
g19
sg11
Nsg12
I1981
sg13
I1
sg14
Nsg15
Nsg16
I3
sbag2
(g3
g4
NtRp518
(dp519
g7
Nsg8
Nsg9
V\u6210\u4eba\u306e\u65e5
p520
sg11
Nsg12
I1981
sg13
I1
sg14
Nsg15
Nsg16
I15
sbag2
(g3
g4
NtRp521
(dp522
g7
Nsg8
Nsg9
V\u5efa\u56fd\u8a18\u5ff5\u306e\u65e5
p523
sg11
Nsg12
I1981
sg13
I2
sg14
Nsg15
Nsg16
I11
sbag2
(g3
g4
NtRp524
(dp525
g7
Nsg8
Nsg9
V\u6625\u5206\u306e\u65e5
p526
sg11
Nsg12
I1981
sg13
I3
sg14
Nsg15
Nsg16
I21
sbag2
(g3
g4
NtRp527
(dp528
g7
Nsg8
Nsg9
V\u5929\u7687\u8a95\u751f\u65e5
p529
sg11
Nsg12
I1981
sg13
I4
sg14
Nsg15
Nsg16
I29
sbag2
(g3
g4
NtRp530
(dp531
g7
Nsg8
Nsg9
V\u61b2\u6cd5\u8a18\u5ff5\u65e5
p532
sg11
Nsg12
I1981
sg13
I5
sg14
Nsg15
Nsg16
I3
sbag2
(g3
g4
NtRp533
(dp534
g7
Nsg8
Nsg9
V\u632f\u66ff\u4f11\u65e5
p535
sg11
Nsg12
I1981
sg13
I5
sg14
Nsg15
Nsg16
I4
sbag2
(g3
g4
NtRp536
(dp537
g7
Nsg8
Nsg9
V\u3053\u3069\u3082\u306e\u65e5
p538
sg11
Nsg12
I1981
sg13
I5
sg14
Nsg15
Nsg16
I5
sbag2
(g3
g4
NtRp539
(dp540
g7
Nsg8
Nsg9
V\u656c\u8001\u306e\u65e5
p541
sg11
Nsg12
I1981
sg13
I9
sg14
Nsg15
Nsg16
I15
sbag2
(g3
g4
NtRp542
(dp543
g7
Nsg8
Nsg9
V\u79cb\u5206\u306e\u65e5
p544
sg11
Nsg12
I1981
sg13
I9
sg14
Nsg15
Nsg16
I23
sbag2
(g3
g4
NtRp545
(dp546
g7
Nsg8
Nsg9
V\u4f53\u80b2\u306e\u65e5
p547
sg11
Nsg12
I1981
sg13
I10
sg14
Nsg15
Nsg16
I10
sbag2
(g3
g4
NtRp548
(dp549
g7
Nsg8
Nsg9
V\u6587\u5316\u306e\u65e5
p550
sg11
Nsg12
I1981
sg13
I11
sg14
Nsg15
Nsg16
I3
sbag2
(g3
g4
NtRp551
(dp552
g7
Nsg8
Nsg9
V\u52e4\u52b4\u611f\u8b1d\u306e\u65e5
p553
sg11
Nsg12
I1981
sg13
I11
sg14
Nsg15
Nsg16
I23
sbag2
(g3
g4
NtRp554
(dp555
g7
Nsg8
Nsg9
g19
sg11
Nsg12
I1981
sg13
I12
sg14
Nsg15
Nsg16
I31
sbag2
(g3
g4
NtRp556
(dp557
g7
Nsg8
Nsg9
V\u5143\u65e5
p558
sg11
Nsg12
I1982
sg13
I1
sg14
Nsg15
Nsg16
I1
sbag2
(g3
g4
NtRp559
(dp560
g7
Nsg8
Nsg9
g19
sg11
Nsg12
I1982
sg13
I1
sg14
Nsg15
Nsg16
I2
sbag2
(g3
g4
NtRp561
(dp562
g7
Nsg8
Nsg9
g19
sg11
Nsg12
I1982
sg13
I1
sg14
Nsg15
Nsg16
I3
sbag2
(g3
g4
NtRp563
(dp564
g7
Nsg8
Nsg9
V\u6210\u4eba\u306e\u65e5
p565
sg11
Nsg12
I1982
sg13
I1
sg14
Nsg15
Nsg16
I15
sbag2
(g3
g4
NtRp566
(dp567
g7
Nsg8
Nsg9
V\u5efa\u56fd\u8a18\u5ff5\u306e\u65e5
p568
sg11
Nsg12
I1982
sg13
I2
sg14
Nsg15
Nsg16
I11
sbag2
(g3
g4
NtRp569
(dp570
g7
Nsg8
Nsg9
V\u6625\u5206\u306e\u65e5
p571
sg11
Nsg12
I1982
sg13
I3
sg14
Nsg15
Nsg16
I21
sbag2
(g3
g4
NtRp572
(dp573
g7
Nsg8
Nsg9
V\u632f\u66ff\u4f11\u65e5
p574
sg11
Nsg12
I1982
sg13
I3
sg14
Nsg15
Nsg16
I22
sbag2
(g3
g4
NtRp575
(dp576
g7
Nsg8
Nsg9
V\u5929\u7687\u8a95\u751f\u65e5
p577
sg11
Nsg12
I1982
sg13
I4
sg14
Nsg15
Nsg16
I29
sbag2
(g3
g4
NtRp578
(dp579
g7
Nsg8
Nsg9
V\u61b2\u6cd5\u8a18\u5ff5\u65e5
p580
sg11
Nsg12
I1982
sg13
I5
sg14
Nsg15
Nsg16
I3
sbag2
(g3
g4
NtRp581
(dp582
g7
Nsg8
Nsg9
V\u3053\u3069\u3082\u306e\u65e5
p583
sg11
Nsg12
I1982
sg13
I5
sg14
Nsg15
Nsg16
I5
sbag2
(g3
g4
NtRp584
(dp585
g7
Nsg8
Nsg9
V\u656c\u8001\u306e\u65e5
p586
sg11
Nsg12
I1982
sg13
I9
sg14
Nsg15
Nsg16
I15
sbag2
(g3
g4
NtRp587
(dp588
g7
Nsg8
Nsg9
V\u79cb\u5206\u306e\u65e5
p589
sg11
Nsg12
I1982
sg13
I9
sg14
Nsg15
Nsg16
I23
sbag2
(g3
g4
NtRp590
(dp591
g7
Nsg8
Nsg9
V\u4f53\u80b2\u306e\u65e5
p592
sg11
Nsg12
I1982
sg13
I10
sg14
Nsg15
Nsg16
I10
sbag2
(g3
g4
NtRp593
(dp594
g7
Nsg8
Nsg9
V\u632f\u66ff\u4f11\u65e5
p595
sg11
Nsg12
I1982
sg13
I10
sg14
Nsg15
Nsg16
I11
sbag2
(g3
g4
NtRp596
(dp597
g7
Nsg8
Nsg9
V\u6587\u5316\u306e\u65e5
p598
sg11
Nsg12
I1982
sg13
I11
sg14
Nsg15
Nsg16
I3
sbag2
(g3
g4
NtRp599
(dp600
g7
Nsg8
Nsg9
V\u52e4\u52b4\u611f\u8b1d\u306e\u65e5
p601
sg11
Nsg12
I1982
sg13
I11
sg14
Nsg15
Nsg16
I23
sbag2
(g3
g4
NtRp602
(dp603
g7
Nsg8
Nsg9
g19
sg11
Nsg12
I1982
sg13
I12
sg14
Nsg15
Nsg16
I31
sbag2
(g3
g4
NtRp604
(dp605
g7
Nsg8
Nsg9
V\u5143\u65e5
p606
sg11
Nsg12
I1983
sg13
I1
sg14
Nsg15
Nsg16
I1
sbag2
(g3
g4
NtRp607
(dp608
g7
Nsg8
Nsg9
g19
sg11
Nsg12
I1983
sg13
I1
sg14
Nsg15
Nsg16
I2
sbag2
(g3
g4
NtRp609
(dp610
g7
Nsg8
Nsg9
g19
sg11
Nsg12
I1983
sg13
I1
sg14
Nsg15
Nsg16
I3
sbag2
(g3
g4
NtRp611
(dp612
g7
Nsg8
Nsg9
V\u6210\u4eba\u306e\u65e5
p613
sg11
Nsg12
I1983
sg13
I1
sg14
Nsg15
Nsg16
I15
sbag2
(g3
g4
NtRp614
(dp615
g7
Nsg8
Nsg9
V\u5efa\u56fd\u8a18\u5ff5\u306e\u65e5
p616
sg11
Nsg12
I1983
sg13
I2
sg14
Nsg15
Nsg16
I11
sbag2
(g3
g4
NtRp617
(dp618
g7
Nsg8
Nsg9
V\u6625\u5206\u306e\u65e5
p619
sg11
Nsg12
I1983
sg13
I3
sg14
Nsg15
Nsg16
I21
sbag2
(g3
g4
NtRp620
(dp621
g7
Nsg8
Nsg9
V\u5929\u7687\u8a95\u751f\u65e5
p622
sg11
Nsg12
I1983
sg13
I4
sg14
Nsg15
Nsg16
I29
sbag2
(g3
g4
NtRp623
(dp624
g7
Nsg8
Nsg9
V\u61b2\u6cd5\u8a18\u5ff5\u65e5
p625
sg11
Nsg12
I1983
sg13
I5
sg14
Nsg15
Nsg16
I3
sbag2
(g3
g4
NtRp626
(dp627
g7
Nsg8
Nsg9
V\u3053\u3069\u3082\u306e\u65e5
p628
sg11
Nsg12
I1983
sg13
I5
sg14
Nsg15
Nsg16
I5
sbag2
(g3
g4
NtRp629
(dp630
g7
Nsg8
Nsg9
V\u656c\u8001\u306e\u65e5
p631
sg11
Nsg12
I1983
sg13
I9
sg14
Nsg15
Nsg16
I15
sbag2
(g3
g4
NtRp632
(dp633
g7
Nsg8
Nsg9
V\u79cb\u5206\u306e\u65e5
p634
sg11
Nsg12
I1983
sg13
I9
sg14
Nsg15
Nsg16
I23
sbag2
(g3
g4
NtRp635
(dp636
g7
Nsg8
Nsg9
V\u4f53\u80b2\u306e\u65e5
p637
sg11
Nsg12
I1983
sg13
I10
sg14
Nsg15
Nsg16
I10
sbag2
(g3
g4
NtRp638
(dp639
g7
Nsg8
Nsg9
V\u6587\u5316\u306e\u65e5
p640
sg11
Nsg12
I1983
sg13
I11
sg14
Nsg15
Nsg16
I3
sbag2
(g3
g4
NtRp641
(dp642
g7
Nsg8
Nsg9
V\u52e4\u52b4\u611f\u8b1d\u306e\u65e5
p643
sg11
Nsg12
I1983
sg13
I11
sg14
Nsg15
Nsg16
I23
sbag2
(g3
g4
NtRp644
(dp645
g7
Nsg8
Nsg9
g19
sg11
Nsg12
I1983
sg13
I12
sg14
Nsg15
Nsg16
I31
sbag2
(g3
g4
NtRp646
(dp647
g7
Nsg8
Nsg9
V\u5143\u65e5
p648
sg11
Nsg12
I1984
sg13
I1
sg14
Nsg15
Nsg16
I1
sbag2
(g3
g4
NtRp649
(dp650
g7
Nsg8
Nsg9
V\u632f\u66ff\u4f11\u65e5
p651
sg11
Nsg12
I1984
sg13
I1
sg14
Nsg15
Nsg16
I2
sbag2
(g3
g4
NtRp652
(dp653
g7
Nsg8
Nsg9
g19
sg11
Nsg12
I1984
sg13
I1
sg14
Nsg15
Nsg16
I3
sbag2
(g3
g4
NtRp654
(dp655
g7
Nsg8
Nsg9
V\u6210\u4eba\u306e\u65e5
p656
sg11
Nsg12
I1984
sg13
I1
sg14
Nsg15
Nsg16
I15
sbag2
(g3
g4
NtRp657
(dp658
g7
Nsg8
Nsg9
V\u632f\u66ff\u4f11\u65e5
p659
sg11
Nsg12
I1984
sg13
I1
sg14
Nsg15
Nsg16
I16
sbag2
(g3
g4
NtRp660
(dp661
g7
Nsg8
Nsg9
V\u5efa\u56fd\u8a18\u5ff5\u306e\u65e5
p662
sg11
Nsg12
I1984
sg13
I2
sg14
Nsg15
Nsg16
I11
sbag2
(g3
g4
NtRp663
(dp664
g7
Nsg8
Nsg9
V\u6625\u5206\u306e\u65e5
p665
sg11
Nsg12
I1984
sg13
I3
sg14
Nsg15
Nsg16
I20
sbag2
(g3
g4
NtRp666
(dp667
g7
Nsg8
Nsg9
V\u5929\u7687\u8a95\u751f\u65e5
p668
sg11
Nsg12
I1984
sg13
I4
sg14
Nsg15
Nsg16
I29
sbag2
(g3
g4
NtRp669
(dp670
g7
Nsg8
Nsg9
V\u632f\u66ff\u4f11\u65e5
p671
sg11
Nsg12
I1984
sg13
I4
sg14
Nsg15
Nsg16
I30
sbag2
(g3
g4
NtRp672
(dp673
g7
Nsg8
Nsg9
V\u61b2\u6cd5\u8a18\u5ff5\u65e5
p674
sg11
Nsg12
I1984
sg13
I5
sg14
Nsg15
Nsg16
I3
sbag2
(g3
g4
NtRp675
(dp676
g7
Nsg8
Nsg9
V\u3053\u3069\u3082\u306e\u65e5
p677
sg11
Nsg12
I1984
sg13
I5
sg14
Nsg15
Nsg16
I5
sbag2
(g3
g4
NtRp678
(dp679
g7
Nsg8
Nsg9
V\u656c\u8001\u306e\u65e5
p680
sg11
Nsg12
I1984
sg13
I9
sg14
Nsg15
Nsg16
I15
sbag2
(g3
g4
NtRp681
(dp682
g7
Nsg8
Nsg9
V\u79cb\u5206\u306e\u65e5
p683
sg11
Nsg12
I1984
sg13
I9
sg14
Nsg15
Nsg16
I23
sbag2
(g3
g4
NtRp684
(dp685
g7
Nsg8
Nsg9
V\u632f\u66ff\u4f11\u65e5
p686
sg11
Nsg12
I1984
sg13
I9
sg14
Nsg15
Nsg16
I24
sbag2
(g3
g4
NtRp687
(dp688
g7
Nsg8
Nsg9
V\u4f53\u80b2\u306e\u65e5
p689
sg11
Nsg12
I1984
sg13
I10
sg14
Nsg15
Nsg16
I10
sbag2
(g3
g4
NtRp690
(dp691
g7
Nsg8
Nsg9
V\u6587\u5316\u306e\u65e5
p692
sg11
Nsg12
I1984
sg13
I11
sg14
Nsg15
Nsg16
I3
sbag2
(g3
g4
NtRp693
(dp694
g7
Nsg8
Nsg9
V\u52e4\u52b4\u611f\u8b1d\u306e\u65e5
p695
sg11
Nsg12
I1984
sg13
I11
sg14
Nsg15
Nsg16
I23
sbag2
(g3
g4
NtRp696
(dp697
g7
Nsg8
Nsg9
g19
sg11
Nsg12
I1984
sg13
I12
sg14
Nsg15
Nsg16
I31
sbag2
(g3
g4
NtRp698
(dp699
g7
Nsg8
Nsg9
V\u5143\u65e5
p700
sg11
Nsg12
I1985
sg13
I1
sg14
Nsg15
Nsg16
I1
sbag2
(g3
g4
NtRp701
(dp702
g7
Nsg8
Nsg9
g19
sg11
Nsg12
I1985
sg13
I1
sg14
Nsg15
Nsg16
I2
sbag2
(g3
g4
NtRp703
(dp704
g7
Nsg8
Nsg9
g19
sg11
Nsg12
I1985
sg13
I1
sg14
Nsg15
Nsg16
I3
sbag2
(g3
g4
NtRp705
(dp706
g7
Nsg8
Nsg9
V\u6210\u4eba\u306e\u65e5
p707
sg11
Nsg12
I1985
sg13
I1
sg14
Nsg15
Nsg16
I15
sbag2
(g3
g4
NtRp708
(dp709
g7
Nsg8
Nsg9
V\u5efa\u56fd\u8a18\u5ff5\u306e\u65e5
p710
sg11
Nsg12
I1985
sg13
I2
sg14
Nsg15
Nsg16
I11
sbag2
(g3
g4
NtRp711
(dp712
g7
Nsg8
Nsg9
V\u6625\u5206\u306e\u65e5
p713
sg11
Nsg12
I1985
sg13
I3
sg14
Nsg15
Nsg16
I21
sbag2
(g3
g4
NtRp714
(dp715
g7
Nsg8
Nsg9
V\u5929\u7687\u8a95\u751f\u65e5
p716
sg11
Nsg12
I1985
sg13
I4
sg14
Nsg15
Nsg16
I29
sbag2
(g3
g4
NtRp717
(dp718
g7
Nsg8
Nsg9
V\u61b2\u6cd5\u8a18\u5ff5\u65e5
p719
sg11
Nsg12
I1985
sg13
I5
sg14
Nsg15
Nsg16
I3
sbag2
(g3
g4
NtRp720
(dp721
g7
Nsg8
Nsg9
V\u3053\u3069\u3082\u306e\u65e5
p722
sg11
Nsg12
I1985
sg13
I5
sg14
Nsg15
Nsg16
I5
sbag2
(g3
g4
NtRp723
(dp724
g7
Nsg8
Nsg9
V\u632f\u66ff\u4f11\u65e5
p725
sg11
Nsg12
I1985
sg13
I5
sg14
Nsg15
Nsg16
I6
sbag2
(g3
g4
NtRp726
(dp727
g7
Nsg8
Nsg9
V\u656c\u8001\u306e\u65e5
p728
sg11
Nsg12
I1985
sg13
I9
sg14
Nsg15
Nsg16
I15
sbag2
(g3
g4
NtRp729
(dp730
g7
Nsg8
Nsg9
V\u632f\u66ff\u4f11\u65e5
p731
sg11
Nsg12
I1985
sg13
I9
sg14
Nsg15
Nsg16
I16
sbag2
(g3
g4
NtRp732
(dp733
g7
Nsg8
Nsg9
V\u79cb\u5206\u306e\u65e5
p734
sg11
Nsg12
I1985
sg13
I9
sg14
Nsg15
Nsg16
I23
sbag2
(g3
g4
NtRp735
(dp736
g7
Nsg8
Nsg9
V\u4f53\u80b2\u306e\u65e5
p737
sg11
Nsg12
I1985
sg13
I10
sg14
Nsg15
Nsg16
I10
sbag2
(g3
g4
NtRp738
(dp739
g7
Nsg8
Nsg9
V\u6587\u5316\u306e\u65e5
p740
sg11
Nsg12
I1985
sg13
I11
sg14
Nsg15
Nsg16
I3
sbag2
(g3
g4
NtRp741
(dp742
g7
Nsg8
Nsg9
V\u632f\u66ff\u4f11\u65e5
p743
sg11
Nsg12
I1985
sg13
I11
sg14
Nsg15
Nsg16
I4
sbag2
(g3
g4
NtRp744
(dp745
g7
Nsg8
Nsg9
V\u52e4\u52b4\u611f\u8b1d\u306e\u65e5
p746
sg11
Nsg12
I1985
sg13
I11
sg14
Nsg15
Nsg16
I23
sbag2
(g3
g4
NtRp747
(dp748
g7
Nsg8
Nsg9
g19
sg11
Nsg12
I1985
sg13
I12
sg14
Nsg15
Nsg16
I31
sbag2
(g3
g4
NtRp749
(dp750
g7
Nsg8
Nsg9
V\u5143\u65e5
p751
sg11
Nsg12
I1986
sg13
I1
sg14
Nsg15
Nsg16
I1
sbag2
(g3
g4
NtRp752
(dp753
g7
Nsg8
Nsg9
g19
sg11
Nsg12
I1986
sg13
I1
sg14
Nsg15
Nsg16
I2
sbag2
(g3
g4
NtRp754
(dp755
g7
Nsg8
Nsg9
g19
sg11
Nsg12
I1986
sg13
I1
sg14
Nsg15
Nsg16
I3
sbag2
(g3
g4
NtRp756
(dp757
g7
Nsg8
Nsg9
V\u6210\u4eba\u306e\u65e5
p758
sg11
Nsg12
I1986
sg13
I1
sg14
Nsg15
Nsg16
I15
sbag2
(g3
g4
NtRp759
(dp760
g7
Nsg8
Nsg9
V\u5efa\u56fd\u8a18\u5ff5\u306e\u65e5
p761
sg11
Nsg12
I1986
sg13
I2
sg14
Nsg15
Nsg16
I11
sbag2
(g3
g4
NtRp762
(dp763
g7
Nsg8
Nsg9
V\u6625\u5206\u306e\u65e5
p764
sg11
Nsg12
I1986
sg13
I3
sg14
Nsg15
Nsg16
I21
sbag2
(g3
g4
NtRp765
(dp766
g7
Nsg8
Nsg9
V\u5929\u7687\u8a95\u751f\u65e5
p767
sg11
Nsg12
I1986
sg13
I4
sg14
Nsg15
Nsg16
I29
sbag2
(g3
g4
NtRp768
(dp769
g7
Nsg8
Nsg9
V\u61b2\u6cd5\u8a18\u5ff5\u65e5
p770
sg11
Nsg12
I1986
sg13
I5
sg14
Nsg15
Nsg16
I3
sbag2
(g3
g4
NtRp771
(dp772
g7
Nsg8
Nsg9
V\u3053\u3069\u3082\u306e\u65e5
p773
sg11
Nsg12
I1986
sg13
I5
sg14
Nsg15
Nsg16
I5
sbag2
(g3
g4
NtRp774
(dp775
g7
Nsg8
Nsg9
V\u656c\u8001\u306e\u65e5
p776
sg11
Nsg12
I1986
sg13
I9
sg14
Nsg15
Nsg16
I15
sbag2
(g3
g4
NtRp777
(dp778
g7
Nsg8
Nsg9
V\u79cb\u5206\u306e\u65e5
p779
sg11
Nsg12
I1986
sg13
I9
sg14
Nsg15
Nsg16
I23
sbag2
(g3
g4
NtRp780
(dp781
g7
Nsg8
Nsg9
V\u4f53\u80b2\u306e\u65e5
p782
sg11
Nsg12
I1986
sg13
I10
sg14
Nsg15
Nsg16
I10
sbag2
(g3
g4
NtRp783
(dp784
g7
Nsg8
Nsg9
V\u6587\u5316\u306e\u65e5
p785
sg11
Nsg12
I1986
sg13
I11
sg14
Nsg15
Nsg16
I3
sbag2
(g3
g4
NtRp786
(dp787
g7
Nsg8
Nsg9
V\u52e4\u52b4\u611f\u8b1d\u306e\u65e5
p788
sg11
Nsg12
I1986
sg13
I11
sg14
Nsg15
Nsg16
I23
sbag2
(g3
g4
NtRp789
(dp790
g7
Nsg8
Nsg9
V\u632f\u66ff\u4f11\u65e5
p791
sg11
Nsg12
I1986
sg13
I11
sg14
Nsg15
Nsg16
I24
sbag2
(g3
g4
NtRp792
(dp793
g7
Nsg8
Nsg9
g19
sg11
Nsg12
I1986
sg13
I12
sg14
Nsg15
Nsg16
I31
sbag2
(g3
g4
NtRp794
(dp795
g7
Nsg8
Nsg9
V\u5143\u65e5
p796
sg11
Nsg12
I1987
sg13
I1
sg14
Nsg15
Nsg16
I1
sbag2
(g3
g4
NtRp797
(dp798
g7
Nsg8
Nsg9
g19
sg11
Nsg12
I1987
sg13
I1
sg14
Nsg15
Nsg16
I2
sbag2
(g3
g4
NtRp799
(dp800
g7
Nsg8
Nsg9
g19
sg11
Nsg12
I1987
sg13
I1
sg14
Nsg15
Nsg16
I3
sbag2
(g3
g4
NtRp801
(dp802
g7
Nsg8
Nsg9
V\u6210\u4eba\u306e\u65e5
p803
sg11
Nsg12
I1987
sg13
I1
sg14
Nsg15
Nsg16
I15
sbag2
(g3
g4
NtRp804
(dp805
g7
Nsg8
Nsg9
V\u5efa\u56fd\u8a18\u5ff5\u306e\u65e5
p806
sg11
Nsg12
I1987
sg13
I2
sg14
Nsg15
Nsg16
I11
sbag2
(g3
g4
NtRp807
(dp808
g7
Nsg8
Nsg9
V\u6625\u5206\u306e\u65e5
p809
sg11
Nsg12
I1987
sg13
I3
sg14
Nsg15
Nsg16
I21
sbag2
(g3
g4
NtRp810
(dp811
g7
Nsg8
Nsg9
V\u5929\u7687\u8a95\u751f\u65e5
p812
sg11
Nsg12
I1987
sg13
I4
sg14
Nsg15
Nsg16
I29
sbag2
(g3
g4
NtRp813
(dp814
g7
Nsg8
Nsg9
V\u61b2\u6cd5\u8a18\u5ff5\u65e5
p815
sg11
Nsg12
I1987
sg13
I5
sg14
Nsg15
Nsg16
I3
sbag2
(g3
g4
NtRp816
(dp817
g7
Nsg8
Nsg9
V\u632f\u66ff\u4f11\u65e5
p818
sg11
Nsg12
I1987
sg13
I5
sg14
Nsg15
Nsg16
I4
sbag2
(g3
g4
NtRp819
(dp820
g7
Nsg8
Nsg9
V\u3053\u3069\u3082\u306e\u65e5
p821
sg11
Nsg12
I1987
sg13
I5
sg14
Nsg15
Nsg16
I5
sbag2
(g3
g4
NtRp822
(dp823
g7
Nsg8
Nsg9
V\u656c\u8001\u306e\u65e5
p824
sg11
Nsg12
I1987
sg13
I9
sg14
Nsg15
Nsg16
I15
sbag2
(g3
g4
NtRp825
(dp826
g7
Nsg8
Nsg9
V\u79cb\u5206\u306e\u65e5
p827
sg11
Nsg12
I1987
sg13
I9
sg14
Nsg15
Nsg16
I23
sbag2
(g3
g4
NtRp828
(dp829
g7
Nsg8
Nsg9
V\u4f53\u80b2\u306e\u65e5
p830
sg11
Nsg12
I1987
sg13
I10
sg14
Nsg15
Nsg16
I10
sbag2
(g3
g4
NtRp831
(dp832
g7
Nsg8
Nsg9
V\u6587\u5316\u306e\u65e5
p833
sg11
Nsg12
I1987
sg13
I11
sg14
Nsg15
Nsg16
I3
sbag2
(g3
g4
NtRp834
(dp835
g7
Nsg8
Nsg9
V\u52e4\u52b4\u611f\u8b1d\u306e\u65e5
p836
sg11
Nsg12
I1987
sg13
I11
sg14
Nsg15
Nsg16
I23
sbag2
(g3
g4
NtRp837
(dp838
g7
Nsg8
Nsg9
g19
sg11
Nsg12
I1987
sg13
I12
sg14
Nsg15
Nsg16
I31
sbag2
(g3
g4
NtRp839
(dp840
g7
Nsg8
Nsg9
V\u5143\u65e5
p841
sg11
Nsg12
I1988
sg13
I1
sg14
Nsg15
Nsg16
I1
sbag2
(g3
g4
NtRp842
(dp843
g7
Nsg8
Nsg9
g19
sg11
Nsg12
I1988
sg13
I1
sg14
Nsg15
Nsg16
I2
sbag2
(g3
g4
NtRp844
(dp845
g7
Nsg8
Nsg9
g19
sg11
Nsg12
I1988
sg13
I1
sg14
Nsg15
Nsg16
I3
sbag2
(g3
g4
NtRp846
(dp847
g7
Nsg8
Nsg9
V\u6210\u4eba\u306e\u65e5
p848
sg11
Nsg12
I1988
sg13
I1
sg14
Nsg15
Nsg16
I15
sbag2
(g3
g4
NtRp849
(dp850
g7
Nsg8
Nsg9
V\u5efa\u56fd\u8a18\u5ff5\u306e\u65e5
p851
sg11
Nsg12
I1988
sg13
I2
sg14
Nsg15
Nsg16
I11
sbag2
(g3
g4
NtRp852
(dp853
g7
Nsg8
Nsg9
V\u6625\u5206\u306e\u65e5
p854
sg11
Nsg12
I1988
sg13
I3
sg14
Nsg15
Nsg16
I20
sbag2
(g3
g4
NtRp855
(dp856
g7
Nsg8
Nsg9
V\u632f\u66ff\u4f11\u65e5
p857
sg11
Nsg12
I1988
sg13
I3
sg14
Nsg15
Nsg16
I21
sbag2
(g3
g4
NtRp858
(dp859
g7
Nsg8
Nsg9
V\u5929\u7687\u8a95\u751f\u65e5
p860
sg11
Nsg12
I1988
sg13
I4
sg14
Nsg15
Nsg16
I29
sbag2
(g3
g4
NtRp861
(dp862
g7
Nsg8
Nsg9
V\u61b2\u6cd5\u8a18\u5ff5\u65e5
p863
sg11
Nsg12
I1988
sg13
I5
sg14
Nsg15
Nsg16
I3
sbag2
(g3
g4
NtRp864
(dp865
g7
Nsg8
Nsg9
V\u56fd\u6c11\u306e\u4f11\u65e5
p866
sg11
Nsg12
I1988
sg13
I5
sg14
Nsg15
Nsg16
I4
sbag2
(g3
g4
NtRp867
(dp868
g7
Nsg8
Nsg9
V\u3053\u3069\u3082\u306e\u65e5
p869
sg11
Nsg12
I1988
sg13
I5
sg14
Nsg15
Nsg16
I5
sbag2
(g3
g4
NtRp870
(dp871
g7
Nsg8
Nsg9
V\u656c\u8001\u306e\u65e5
p872
sg11
Nsg12
I1988
sg13
I9
sg14
Nsg15
Nsg16
I15
sbag2
(g3
g4
NtRp873
(dp874
g7
Nsg8
Nsg9
V\u79cb\u5206\u306e\u65e5
p875
sg11
Nsg12
I1988
sg13
I9
sg14
Nsg15
Nsg16
I23
sbag2
(g3
g4
NtRp876
(dp877
g7
Nsg8
Nsg9
V\u4f53\u80b2\u306e\u65e5
p878
sg11
Nsg12
I1988
sg13
I10
sg14
Nsg15
Nsg16
I10
sbag2
(g3
g4
NtRp879
(dp880
g7
Nsg8
Nsg9
V\u6587\u5316\u306e\u65e5
p881
sg11
Nsg12
I1988
sg13
I11
sg14
Nsg15
Nsg16
I3
sbag2
(g3
g4
NtRp882
(dp883
g7
Nsg8
Nsg9
V\u52e4\u52b4\u611f\u8b1d\u306e\u65e5
p884
sg11
Nsg12
I1988
sg13
I11
sg14
Nsg15
Nsg16
I23
sbag2
(g3
g4
NtRp885
(dp886
g7
Nsg8
Nsg9
g19
sg11
Nsg12
I1988
sg13
I12
sg14
Nsg15
Nsg16
I31
sbag2
(g3
g4
NtRp887
(dp888
g7
Nsg8
Nsg9
V\u5143\u65e5
p889
sg11
Nsg12
I1989
sg13
I1
sg14
Nsg15
Nsg16
I1
sbag2
(g3
g4
NtRp890
(dp891
g7
Nsg8
Nsg9
V\u632f\u66ff\u4f11\u65e5
p892
sg11
Nsg12
I1989
sg13
I1
sg14
Nsg15
Nsg16
I2
sbag2
(g3
g4
NtRp893
(dp894
g7
Nsg8
Nsg9
g19
sg11
Nsg12
I1989
sg13
I1
sg14
Nsg15
Nsg16
I3
sbag2
(g3
g4
NtRp895
(dp896
g7
Nsg8
Nsg9
V\u6210\u4eba\u306e\u65e5
p897
sg11
Nsg12
I1989
sg13
I1
sg14
Nsg15
Nsg16
I15
sbag2
(g3
g4
NtRp898
(dp899
g7
Nsg8
Nsg9
V\u632f\u66ff\u4f11\u65e5
p900
sg11
Nsg12
I1989
sg13
I1
sg14
Nsg15
Nsg16
I16
sbag2
(g3
g4
NtRp901
(dp902
g7
Nsg8
Nsg9
V\u5efa\u56fd\u8a18\u5ff5\u306e\u65e5
p903
sg11
Nsg12
I1989
sg13
I2
sg14
Nsg15
Nsg16
I11
sbag2
(g3
g4
NtRp904
(dp905
g7
Nsg8
Nsg9
V\u662d\u548c\u5929\u7687\u306e\u5927\u55aa\u306e\u793c
p906
sg11
Nsg12
I1989
sg13
I2
sg14
Nsg15
Nsg16
I24
sbag2
(g3
g4
NtRp907
(dp908
g7
Nsg8
Nsg9
V\u6625\u5206\u306e\u65e5
p909
sg11
Nsg12
I1989
sg13
I3
sg14
Nsg15
Nsg16
I21
sbag2
(g3
g4
NtRp910
(dp911
g7
Nsg8
Nsg9
V\u307f\u3069\u308a\u306e\u65e5
p912
sg11
Nsg12
I1989
sg13
I4
sg14
Nsg15
Nsg16
I29
sbag2
(g3
g4
NtRp913
(dp914
g7
Nsg8
Nsg9
V\u61b2\u6cd5\u8a18\u5ff5\u65e5
p915
sg11
Nsg12
I1989
sg13
I5
sg14
Nsg15
Nsg16
I3
sbag2
(g3
g4
NtRp916
(dp917
g7
Nsg8
Nsg9
V\u56fd\u6c11\u306e\u4f11\u65e5
p918
sg11
Nsg12
I1989
sg13
I5
sg14
Nsg15
Nsg16
I4
sbag2
(g3
g4
NtRp919
(dp920
g7
Nsg8
Nsg9
V\u3053\u3069\u3082\u306e\u65e5
p921
sg11
Nsg12
I1989
sg13
I5
sg14
Nsg15
Nsg16
I5
sbag2
(g3
g4
NtRp922
(dp923
g7
Nsg8
Nsg9
V\u656c\u8001\u306e\u65e5
p924
sg11
Nsg12
I1989
sg13
I9
sg14
Nsg15
Nsg16
I15
sbag2
(g3
g4
NtRp925
(dp926
g7
Nsg8
Nsg9
V\u79cb\u5206\u306e\u65e5
p927
sg11
Nsg12
I1989
sg13
I9
sg14
Nsg15
Nsg16
I23
sbag2
(g3
g4
NtRp928
(dp929
g7
Nsg8
Nsg9
V\u4f53\u80b2\u306e\u65e5
p930
sg11
Nsg12
I1989
sg13
I10
sg14
Nsg15
Nsg16
I10
sbag2
(g3
g4
NtRp931
(dp932
g7
Nsg8
Nsg9
V\u6587\u5316\u306e\u65e5
p933
sg11
Nsg12
I1989
sg13
I11
sg14
Nsg15
Nsg16
I3
sbag2
(g3
g4
NtRp934
(dp935
g7
Nsg8
Nsg9
V\u52e4\u52b4\u611f\u8b1d\u306e\u65e5
p936
sg11
Nsg12
I1989
sg13
I11
sg14
Nsg15
Nsg16
I23
sbag2
(g3
g4
NtRp937
(dp938
g7
Nsg8
Nsg9
V\u5929\u7687\u8a95\u751f\u65e5
p939
sg11
Nsg12
I1989
sg13
I12
sg14
Nsg15
Nsg16
I23
sbag2
(g3
g4
NtRp940
(dp941
g7
Nsg8
Nsg9
g19
sg11
Nsg12
I1989
sg13
I12
sg14
Nsg15
Nsg16
I31
sbag2
(g3
g4
NtRp942
(dp943
g7
Nsg8
Nsg9
V\u5143\u65e5
p944
sg11
Nsg12
I1990
sg13
I1
sg14
Nsg15
Nsg16
I1
sbag2
(g3
g4
NtRp945
(dp946
g7
Nsg8
Nsg9
g19
sg11
Nsg12
I1990
sg13
I1
sg14
Nsg15
Nsg16
I2
sbag2
(g3
g4
NtRp947
(dp948
g7
Nsg8
Nsg9
g19
sg11
Nsg12
I1990
sg13
I1
sg14
Nsg15
Nsg16
I3
sbag2
(g3
g4
NtRp949
(dp950
g7
Nsg8
Nsg9
V\u6210\u4eba\u306e\u65e5
p951
sg11
Nsg12
I1990
sg13
I1
sg14
Nsg15
Nsg16
I15
sbag2
(g3
g4
NtRp952
(dp953
g7
Nsg8
Nsg9
V\u5efa\u56fd\u8a18\u5ff5\u306e\u65e5
p954
sg11
Nsg12
I1990
sg13
I2
sg14
Nsg15
Nsg16
I11
sbag2
(g3
g4
NtRp955
(dp956
g7
Nsg8
Nsg9
V\u632f\u66ff\u4f11\u65e5
p957
sg11
Nsg12
I1990
sg13
I2
sg14
Nsg15
Nsg16
I12
sbag2
(g3
g4
NtRp958
(dp959
g7
Nsg8
Nsg9
V\u6625\u5206\u306e\u65e5
p960
sg11
Nsg12
I1990
sg13
I3
sg14
Nsg15
Nsg16
I21
sbag2
(g3
g4
NtRp961
(dp962
g7
Nsg8
Nsg9
V\u307f\u3069\u308a\u306e\u65e5
p963
sg11
Nsg12
I1990
sg13
I4
sg14
Nsg15
Nsg16
I29
sbag2
(g3
g4
NtRp964
(dp965
g7
Nsg8
Nsg9
V\u632f\u66ff\u4f11\u65e5
p966
sg11
Nsg12
I1990
sg13
I4
sg14
Nsg15
Nsg16
I30
sbag2
(g3
g4
NtRp967
(dp968
g7
Nsg8
Nsg9
V\u61b2\u6cd5\u8a18\u5ff5\u65e5
p969
sg11
Nsg12
I1990
sg13
I5
sg14
Nsg15
Nsg16
I3
sbag2
(g3
g4
NtRp970
(dp971
g7
Nsg8
Nsg9
V\u56fd\u6c11\u306e\u4f11\u65e5
p972
sg11
Nsg12
I1990
sg13
I5
sg14
Nsg15
Nsg16
I4
sbag2
(g3
g4
NtRp973
(dp974
g7
Nsg8
Nsg9
V\u3053\u3069\u3082\u306e\u65e5
p975
sg11
Nsg12
I1990
sg13
I5
sg14
Nsg15
Nsg16
I5
sbag2
(g3
g4
NtRp976
(dp977
g7
Nsg8
Nsg9
V\u656c\u8001\u306e\u65e5
p978
sg11
Nsg12
I1990
sg13
I9
sg14
Nsg15
Nsg16
I15
sbag2
(g3
g4
NtRp979
(dp980
g7
Nsg8
Nsg9
V\u79cb\u5206\u306e\u65e5
p981
sg11
Nsg12
I1990
sg13
I9
sg14
Nsg15
Nsg16
I23
sbag2
(g3
g4
NtRp982
(dp983
g7
Nsg8
Nsg9
V\u632f\u66ff\u4f11\u65e5
p984
sg11
Nsg12
I1990
sg13
I9
sg14
Nsg15
Nsg16
I24
sbag2
(g3
g4
NtRp985
(dp986
g7
Nsg8
Nsg9
V\u4f53\u80b2\u306e\u65e5
p987
sg11
Nsg12
I1990
sg13
I10
sg14
Nsg15
Nsg16
I10
sbag2
(g3
g4
NtRp988
(dp989
g7
Nsg8
Nsg9
V\u6587\u5316\u306e\u65e5
p990
sg11
Nsg12
I1990
sg13
I11
sg14
Nsg15
Nsg16
I3
sbag2
(g3
g4
NtRp991
(dp992
g7
Nsg8
Nsg9
V\u5373\u4f4d\u793c\u6b63\u6bbf\u306e\u5100
p993
sg11
Nsg12
I1990
sg13
I11
sg14
Nsg15
Nsg16
I12
sbag2
(g3
g4
NtRp994
(dp995
g7
Nsg8
Nsg9
V\u52e4\u52b4\u611f\u8b1d\u306e\u65e5
p996
sg11
Nsg12
I1990
sg13
I11
sg14
Nsg15
Nsg16
I23
sbag2
(g3
g4
NtRp997
(dp998
g7
Nsg8
Nsg9
V\u5929\u7687\u8a95\u751f\u65e5
p999
sg11
Nsg12
I1990
sg13
I12
sg14
Nsg15
Nsg16
I23
sbag2
(g3
g4
NtRp1000
(dp1001
g7
Nsg8
Nsg9
V\u632f\u66ff\u4f11\u65e5
p1002
sg11
Nsg12
I1990
sg13
I12
sg14
Nsg15
Nsg16
I24
sbag2
(g3
g4
NtRp1003
(dp1004
g7
Nsg8
Nsg9
g19
sg11
Nsg12
I1990
sg13
I12
sg14
Nsg15
Nsg16
I31
sbag2
(g3
g4
NtRp1005
(dp1006
g7
Nsg8
Nsg9
V\u5143\u65e5
p1007
sg11
Nsg12
I1991
sg13
I1
sg14
Nsg15
Nsg16
I1
sbag2
(g3
g4
NtRp1008
(dp1009
g7
Nsg8
Nsg9
g19
sg11
Nsg12
I1991
sg13
I1
sg14
Nsg15
Nsg16
I2
sbag2
(g3
g4
NtRp1010
(dp1011
g7
Nsg8
Nsg9
g19
sg11
Nsg12
I1991
sg13
I1
sg14
Nsg15
Nsg16
I3
sbag2
(g3
g4
NtRp1012
(dp1013
g7
Nsg8
Nsg9
V\u6210\u4eba\u306e\u65e5
p1014
sg11
Nsg12
I1991
sg13
I1
sg14
Nsg15
Nsg16
I15
sbag2
(g3
g4
NtRp1015
(dp1016
g7
Nsg8
Nsg9
V\u5efa\u56fd\u8a18\u5ff5\u306e\u65e5
p1017
sg11
Nsg12
I1991
sg13
I2
sg14
Nsg15
Nsg16
I11
sbag2
(g3
g4
NtRp1018
(dp1019
g7
Nsg8
Nsg9
V\u6625\u5206\u306e\u65e5
p1020
sg11
Nsg12
I1991
sg13
I3
sg14
Nsg15
Nsg16
I21
sbag2
(g3
g4
NtRp1021
(dp1022
g7
Nsg8
Nsg9
V\u307f\u3069\u308a\u306e\u65e5
p1023
sg11
Nsg12
I1991
sg13
I4
sg14
Nsg15
Nsg16
I29
sbag2
(g3
g4
NtRp1024
(dp1025
g7
Nsg8
Nsg9
V\u61b2\u6cd5\u8a18\u5ff5\u65e5
p1026
sg11
Nsg12
I1991
sg13
I5
sg14
Nsg15
Nsg16
I3
sbag2
(g3
g4
NtRp1027
(dp1028
g7
Nsg8
Nsg9
V\u56fd\u6c11\u306e\u4f11\u65e5
p1029
sg11
Nsg12
I1991
sg13
I5
sg14
Nsg15
Nsg16
I4
sbag2
(g3
g4
NtRp1030
(dp1031
g7
Nsg8
Nsg9
V\u3053\u3069\u3082\u306e\u65e5
p1032
sg11
Nsg12
I1991
sg13
I5
sg14
Nsg15
Nsg16
I5
sbag2
(g3
g4
NtRp1033
(dp1034
g7
Nsg8
Nsg9
V\u632f\u66ff\u4f11\u65e5
p1035
sg11
Nsg12
I1991
sg13
I5
sg14
Nsg15
Nsg16
I6
sbag2
(g3
g4
NtRp1036
(dp1037
g7
Nsg8
Nsg9
V\u656c\u8001\u306e\u65e5
p1038
sg11
Nsg12
I1991
sg13
I9
sg14
Nsg15
Nsg16
I15
sbag2
(g3
g4
NtRp1039
(dp1040
g7
Nsg8
Nsg9
V\u632f\u66ff\u4f11\u65e5
p1041
sg11
Nsg12
I1991
sg13
I9
sg14
Nsg15
Nsg16
I16
sbag2
(g3
g4
NtRp1042
(dp1043
g7
Nsg8
Nsg9
V\u79cb\u5206\u306e\u65e5
p1044
sg11
Nsg12
I1991
sg13
I9
sg14
Nsg15
Nsg16
I23
sbag2
(g3
g4
NtRp1045
(dp1046
g7
Nsg8
Nsg9
V\u4f53\u80b2\u306e\u65e5
p1047
sg11
Nsg12
I1991
sg13
I10
sg14
Nsg15
Nsg16
I10
sbag2
(g3
g4
NtRp1048
(dp1049
g7
Nsg8
Nsg9
V\u6587\u5316\u306e\u65e5
p1050
sg11
Nsg12
I1991
sg13
I11
sg14
Nsg15
Nsg16
I3
sbag2
(g3
g4
NtRp1051
(dp1052
g7
Nsg8
Nsg9
V\u632f\u66ff\u4f11\u65e5
p1053
sg11
Nsg12
I1991
sg13
I11
sg14
Nsg15
Nsg16
I4
sbag2
(g3
g4
NtRp1054
(dp1055
g7
Nsg8
Nsg9
V\u52e4\u52b4\u611f\u8b1d\u306e\u65e5
p1056
sg11
Nsg12
I1991
sg13
I11
sg14
Nsg15
Nsg16
I23
sbag2
(g3
g4
NtRp1057
(dp1058
g7
Nsg8
Nsg9
V\u5929\u7687\u8a95\u751f\u65e5
p1059
sg11
Nsg12
I1991
sg13
I12
sg14
Nsg15
Nsg16
I23
sbag2
(g3
g4
NtRp1060
(dp1061
g7
Nsg8
Nsg9
g19
sg11
Nsg12
I1991
sg13
I12
sg14
Nsg15
Nsg16
I31
sbag2
(g3
g4
NtRp1062
(dp1063
g7
Nsg8
Nsg9
V\u5143\u65e5
p1064
sg11
Nsg12
I1992
sg13
I1
sg14
Nsg15
Nsg16
I1
sbag2
(g3
g4
NtRp1065
(dp1066
g7
Nsg8
Nsg9
g19
sg11
Nsg12
I1992
sg13
I1
sg14
Nsg15
Nsg16
I2
sbag2
(g3
g4
NtRp1067
(dp1068
g7
Nsg8
Nsg9
g19
sg11
Nsg12
I1992
sg13
I1
sg14
Nsg15
Nsg16
I3
sbag2
(g3
g4
NtRp1069
(dp1070
g7
Nsg8
Nsg9
V\u6210\u4eba\u306e\u65e5
p1071
sg11
Nsg12
I1992
sg13
I1
sg14
Nsg15
Nsg16
I15
sbag2
(g3
g4
NtRp1072
(dp1073
g7
Nsg8
Nsg9
V\u5efa\u56fd\u8a18\u5ff5\u306e\u65e5
p1074
sg11
Nsg12
I1992
sg13
I2
sg14
Nsg15
Nsg16
I11
sbag2
(g3
g4
NtRp1075
(dp1076
g7
Nsg8
Nsg9
V\u6625\u5206\u306e\u65e5
p1077
sg11
Nsg12
I1992
sg13
I3
sg14
Nsg15
Nsg16
I20
sbag2
(g3
g4
NtRp1078
(dp1079
g7
Nsg8
Nsg9
V\u307f\u3069\u308a\u306e\u65e5
p1080
sg11
Nsg12
I1992
sg13
I4
sg14
Nsg15
Nsg16
I29
sbag2
(g3
g4
NtRp1081
(dp1082
g7
Nsg8
Nsg9
V\u61b2\u6cd5\u8a18\u5ff5\u65e5
p1083
sg11
Nsg12
I1992
sg13
I5
sg14
Nsg15
Nsg16
I3
sbag2
(g3
g4
NtRp1084
(dp1085
g7
Nsg8
Nsg9
V\u632f\u66ff\u4f11\u65e5
p1086
sg11
Nsg12
I1992
sg13
I5
sg14
Nsg15
Nsg16
I4
sbag2
(g3
g4
NtRp1087
(dp1088
g7
Nsg8
Nsg9
V\u3053\u3069\u3082\u306e\u65e5
p1089
sg11
Nsg12
I1992
sg13
I5
sg14
Nsg15
Nsg16
I5
sbag2
(g3
g4
NtRp1090
(dp1091
g7
Nsg8
Nsg9
V\u656c\u8001\u306e\u65e5
p1092
sg11
Nsg12
I1992
sg13
I9
sg14
Nsg15
Nsg16
I15
sbag2
(g3
g4
NtRp1093
(dp1094
g7
Nsg8
Nsg9
V\u79cb\u5206\u306e\u65e5
p1095
sg11
Nsg12
I1992
sg13
I9
sg14
Nsg15
Nsg16
I23
sbag2
(g3
g4
NtRp1096
(dp1097
g7
Nsg8
Nsg9
V\u4f53\u80b2\u306e\u65e5
p1098
sg11
Nsg12
I1992
sg13
I10
sg14
Nsg15
Nsg16
I10
sbag2
(g3
g4
NtRp1099
(dp1100
g7
Nsg8
Nsg9
V\u6587\u5316\u306e\u65e5
p1101
sg11
Nsg12
I1992
sg13
I11
sg14
Nsg15
Nsg16
I3
sbag2
(g3
g4
NtRp1102
(dp1103
g7
Nsg8
Nsg9
V\u52e4\u52b4\u611f\u8b1d\u306e\u65e5
p1104
sg11
Nsg12
I1992
sg13
I11
sg14
Nsg15
Nsg16
I23
sbag2
(g3
g4
NtRp1105
(dp1106
g7
Nsg8
Nsg9
V\u5929\u7687\u8a95\u751f\u65e5
p1107
sg11
Nsg12
I1992
sg13
I12
sg14
Nsg15
Nsg16
I23
sbag2
(g3
g4
NtRp1108
(dp1109
g7
Nsg8
Nsg9
g19
sg11
Nsg12
I1992
sg13
I12
sg14
Nsg15
Nsg16
I31
sbag2
(g3
g4
NtRp1110
(dp1111
g7
Nsg8
Nsg9
V\u5143\u65e5
p1112
sg11
Nsg12
I1993
sg13
I1
sg14
Nsg15
Nsg16
I1
sbag2
(g3
g4
NtRp1113
(dp1114
g7
Nsg8
Nsg9
g19
sg11
Nsg12
I1993
sg13
I1
sg14
Nsg15
Nsg16
I2
sbag2
(g3
g4
NtRp1115
(dp1116
g7
Nsg8
Nsg9
g19
sg11
Nsg12
I1993
sg13
I1
sg14
Nsg15
Nsg16
I3
sbag2
(g3
g4
NtRp1117
(dp1118
g7
Nsg8
Nsg9
V\u6210\u4eba\u306e\u65e5
p1119
sg11
Nsg12
I1993
sg13
I1
sg14
Nsg15
Nsg16
I15
sbag2
(g3
g4
NtRp1120
(dp1121
g7
Nsg8
Nsg9
V\u5efa\u56fd\u8a18\u5ff5\u306e\u65e5
p1122
sg11
Nsg12
I1993
sg13
I2
sg14
Nsg15
Nsg16
I11
sbag2
(g3
g4
NtRp1123
(dp1124
g7
Nsg8
Nsg9
V\u6625\u5206\u306e\u65e5
p1125
sg11
Nsg12
I1993
sg13
I3
sg14
Nsg15
Nsg16
I20
sbag2
(g3
g4
NtRp1126
(dp1127
g7
Nsg8
Nsg9
V\u307f\u3069\u308a\u306e\u65e5
p1128
sg11
Nsg12
I1993
sg13
I4
sg14
Nsg15
Nsg16
I29
sbag2
(g3
g4
NtRp1129
(dp1130
g7
Nsg8
Nsg9
V\u61b2\u6cd5\u8a18\u5ff5\u65e5
p1131
sg11
Nsg12
I1993
sg13
I5
sg14
Nsg15
Nsg16
I3
sbag2
(g3
g4
NtRp1132
(dp1133
g7
Nsg8
Nsg9
V\u56fd\u6c11\u306e\u4f11\u65e5
p1134
sg11
Nsg12
I1993
sg13
I5
sg14
Nsg15
Nsg16
I4
sbag2
(g3
g4
NtRp1135
(dp1136
g7
Nsg8
Nsg9
V\u3053\u3069\u3082\u306e\u65e5
p1137
sg11
Nsg12
I1993
sg13
I5
sg14
Nsg15
Nsg16
I5
sbag2
(g3
g4
NtRp1138
(dp1139
g7
Nsg8
Nsg9
V\u7687\u592a\u5b50\u5fb3\u4ec1\u89aa\u738b\u306e\u7d50\u5a5a\u306e\u5100
p1140
sg11
Nsg12
I1993
sg13
I6
sg14
Nsg15
Nsg16
I9
sbag2
(g3
g4
NtRp1141
(dp1142
g7
Nsg8
Nsg9
V\u656c\u8001\u306e\u65e5
p1143
sg11
Nsg12
I1993
sg13
I9
sg14
Nsg15
Nsg16
I5
sbag2
(g3
g4
NtRp1144
(dp1145
g7
Nsg8
Nsg9
V\u79cb\u5206\u306e\u65e5
p1146
sg11
Nsg12
I1993
sg13
I9
sg14
Nsg15
Nsg16
I23
sbag2
(g3
g4
NtRp1147
(dp1148
g7
Nsg8
Nsg9
V\u4f53\u80b2\u306e\u65e5
p1149
sg11
Nsg12
I1993
sg13
I10
sg14
Nsg15
Nsg16
I10
sbag2
(g3
g4
NtRp1150
(dp1151
g7
Nsg8
Nsg9
V\u632f\u66ff\u4f11\u65e5
p1152
sg11
Nsg12
I1993
sg13
I10
sg14
Nsg15
Nsg16
I11
sbag2
(g3
g4
NtRp1153
(dp1154
g7
Nsg8
Nsg9
V\u6587\u5316\u306e\u65e5
p1155
sg11
Nsg12
I1993
sg13
I11
sg14
Nsg15
Nsg16
I3
sbag2
(g3
g4
NtRp1156
(dp1157
g7
Nsg8
Nsg9
V\u52e4\u52b4\u611f\u8b1d\u306e\u65e5
p1158
sg11
Nsg12
I1993
sg13
I11
sg14
Nsg15
Nsg16
I23
sbag2
(g3
g4
NtRp1159
(dp1160
g7
Nsg8
Nsg9
V\u5929\u7687\u8a95\u751f\u65e5
p1161
sg11
Nsg12
I1993
sg13
I12
sg14
Nsg15
Nsg16
I23
sbag2
(g3
g4
NtRp1162
(dp1163
g7
Nsg8
Nsg9
g19
sg11
Nsg12
I1993
sg13
I12
sg14
Nsg15
Nsg16
I31
sbag2
(g3
g4
NtRp1164
(dp1165
g7
Nsg8
Nsg9
V\u5143\u65e5
p1166
sg11
Nsg12
I1994
sg13
I1
sg14
Nsg15
Nsg16
I1
sbag2
(g3
g4
NtRp1167
(dp1168
g7
Nsg8
Nsg9
g19
sg11
Nsg12
I1994
sg13
I1
sg14
Nsg15
Nsg16
I2
sbag2
(g3
g4
NtRp1169
(dp1170
g7
Nsg8
Nsg9
g19
sg11
Nsg12
I1994
sg13
I1
sg14
Nsg15
Nsg16
I3
sbag2
(g3
g4
NtRp1171
(dp1172
g7
Nsg8
Nsg9
V\u6210\u4eba\u306e\u65e5
p1173
sg11
Nsg12
I1994
sg13
I1
sg14
Nsg15
Nsg16
I15
sbag2
(g3
g4
NtRp1174
(dp1175
g7
Nsg8
Nsg9
V\u5efa\u56fd\u8a18\u5ff5\u306e\u65e5
p1176
sg11
Nsg12
I1994
sg13
I2
sg14
Nsg15
Nsg16
I11
sbag2
(g3
g4
NtRp1177
(dp1178
g7
Nsg8
Nsg9
V\u6625\u5206\u306e\u65e5
p1179
sg11
Nsg12
I1994
sg13
I3
sg14
Nsg15
Nsg16
I21
sbag2
(g3
g4
NtRp1180
(dp1181
g7
Nsg8
Nsg9
V\u307f\u3069\u308a\u306e\u65e5
p1182
sg11
Nsg12
I1994
sg13
I4
sg14
Nsg15
Nsg16
I29
sbag2
(g3
g4
NtRp1183
(dp1184
g7
Nsg8
Nsg9
V\u61b2\u6cd5\u8a18\u5ff5\u65e5
p1185
sg11
Nsg12
I1994
sg13
I5
sg14
Nsg15
Nsg16
I3
sbag2
(g3
g4
NtRp1186
(dp1187
g7
Nsg8
Nsg9
V\u56fd\u6c11\u306e\u4f11\u65e5
p1188
sg11
Nsg12
I1994
sg13
I5
sg14
Nsg15
Nsg16
I4
sbag2
(g3
g4
NtRp1189
(dp1190
g7
Nsg8
Nsg9
V\u3053\u3069\u3082\u306e\u65e5
p1191
sg11
Nsg12
I1994
sg13
I5
sg14
Nsg15
Nsg16
I5
sbag2
(g3
g4
NtRp1192
(dp1193
g7
Nsg8
Nsg9
V\u656c\u8001\u306e\u65e5
p1194
sg11
Nsg12
I1994
sg13
I9
sg14
Nsg15
Nsg16
I15
sbag2
(g3
g4
NtRp1195
(dp1196
g7
Nsg8
Nsg9
V\u79cb\u5206\u306e\u65e5
p1197
sg11
Nsg12
I1994
sg13
I9
sg14
Nsg15
Nsg16
I23
sbag2
(g3
g4
NtRp1198
(dp1199
g7
Nsg8
Nsg9
V\u4f53\u80b2\u306e\u65e5
p1200
sg11
Nsg12
I1994
sg13
I10
sg14
Nsg15
Nsg16
I10
sbag2
(g3
g4
NtRp1201
(dp1202
g7
Nsg8
Nsg9
V\u6587\u5316\u306e\u65e5
p1203
sg11
Nsg12
I1994
sg13
I11
sg14
Nsg15
Nsg16
I3
sbag2
(g3
g4
NtRp1204
(dp1205
g7
Nsg8
Nsg9
V\u52e4\u52b4\u611f\u8b1d\u306e\u65e5
p1206
sg11
Nsg12
I1994
sg13
I11
sg14
Nsg15
Nsg16
I23
sbag2
(g3
g4
NtRp1207
(dp1208
g7
Nsg8
Nsg9
V\u5929\u7687\u8a95\u751f\u65e5
p1209
sg11
Nsg12
I1994
sg13
I12
sg14
Nsg15
Nsg16
I23
sbag2
(g3
g4
NtRp1210
(dp1211
g7
Nsg8
Nsg9
g19
sg11
Nsg12
I1994
sg13
I12
sg14
Nsg15
Nsg16
I31
sbag2
(g3
g4
NtRp1212
(dp1213
g7
Nsg8
Nsg9
V\u5143\u65e5
p1214
sg11
Nsg12
I1995
sg13
I1
sg14
Nsg15
Nsg16
I1
sbag2
(g3
g4
NtRp1215
(dp1216
g7
Nsg8
Nsg9
V\u632f\u66ff\u4f11\u65e5
p1217
sg11
Nsg12
I1995
sg13
I1
sg14
Nsg15
Nsg16
I2
sbag2
(g3
g4
NtRp1218
(dp1219
g7
Nsg8
Nsg9
g19
sg11
Nsg12
I1995
sg13
I1
sg14
Nsg15
Nsg16
I3
sbag2
(g3
g4
NtRp1220
(dp1221
g7
Nsg8
Nsg9
V\u6210\u4eba\u306e\u65e5
p1222
sg11
Nsg12
I1995
sg13
I1
sg14
Nsg15
Nsg16
I15
sbag2
(g3
g4
NtRp1223
(dp1224
g7
Nsg8
Nsg9
V\u632f\u66ff\u4f11\u65e5
p1225
sg11
Nsg12
I1995
sg13
I1
sg14
Nsg15
Nsg16
I16
sbag2
(g3
g4
NtRp1226
(dp1227
g7
Nsg8
Nsg9
V\u5efa\u56fd\u8a18\u5ff5\u306e\u65e5
p1228
sg11
Nsg12
I1995
sg13
I2
sg14
Nsg15
Nsg16
I11
sbag2
(g3
g4
NtRp1229
(dp1230
g7
Nsg8
Nsg9
V\u6625\u5206\u306e\u65e5
p1231
sg11
Nsg12
I1995
sg13
I3
sg14
Nsg15
Nsg16
I21
sbag2
(g3
g4
NtRp1232
(dp1233
g7
Nsg8
Nsg9
V\u307f\u3069\u308a\u306e\u65e5
p1234
sg11
Nsg12
I1995
sg13
I4
sg14
Nsg15
Nsg16
I29
sbag2
(g3
g4
NtRp1235
(dp1236
g7
Nsg8
Nsg9
V\u61b2\u6cd5\u8a18\u5ff5\u65e5
p1237
sg11
Nsg12
I1995
sg13
I5
sg14
Nsg15
Nsg16
I3
sbag2
(g3
g4
NtRp1238
(dp1239
g7
Nsg8
Nsg9
V\u56fd\u6c11\u306e\u4f11\u65e5
p1240
sg11
Nsg12
I1995
sg13
I5
sg14
Nsg15
Nsg16
I4
sbag2
(g3
g4
NtRp1241
(dp1242
g7
Nsg8
Nsg9
V\u3053\u3069\u3082\u306e\u65e5
p1243
sg11
Nsg12
I1995
sg13
I5
sg14
Nsg15
Nsg16
I5
sbag2
(g3
g4
NtRp1244
(dp1245
g7
Nsg8
Nsg9
V\u656c\u8001\u306e\u65e5
p1246
sg11
Nsg12
I1995
sg13
I9
sg14
Nsg15
Nsg16
I15
sbag2
(g3
g4
NtRp1247
(dp1248
g7
Nsg8
Nsg9
V\u79cb\u5206\u306e\u65e5
p1249
sg11
Nsg12
I1995
sg13
I9
sg14
Nsg15
Nsg16
I23
sbag2
(g3
g4
NtRp1250
(dp1251
g7
Nsg8
Nsg9
V\u4f53\u80b2\u306e\u65e5
p1252
sg11
Nsg12
I1995
sg13
I10
sg14
Nsg15
Nsg16
I10
sbag2
(g3
g4
NtRp1253
(dp1254
g7
Nsg8
Nsg9
V\u6587\u5316\u306e\u65e5
p1255
sg11
Nsg12
I1995
sg13
I11
sg14
Nsg15
Nsg16
I3
sbag2
(g3
g4
NtRp1256
(dp1257
g7
Nsg8
Nsg9
V\u52e4\u52b4\u611f\u8b1d\u306e\u65e5
p1258
sg11
Nsg12
I1995
sg13
I11
sg14
Nsg15
Nsg16
I23
sbag2
(g3
g4
NtRp1259
(dp1260
g7
Nsg8
Nsg9
V\u5929\u7687\u8a95\u751f\u65e5
p1261
sg11
Nsg12
I1995
sg13
I12
sg14
Nsg15
Nsg16
I23
sbag2
(g3
g4
NtRp1262
(dp1263
g7
Nsg8
Nsg9
g19
sg11
Nsg12
I1995
sg13
I12
sg14
Nsg15
Nsg16
I31
sbag2
(g3
g4
NtRp1264
(dp1265
g7
Nsg8
Nsg9
V\u5143\u65e5
p1266
sg11
Nsg12
I1996
sg13
I1
sg14
Nsg15
Nsg16
I1
sbag2
(g3
g4
NtRp1267
(dp1268
g7
Nsg8
Nsg9
g19
sg11
Nsg12
I1996
sg13
I1
sg14
Nsg15
Nsg16
I2
sbag2
(g3
g4
NtRp1269
(dp1270
g7
Nsg8
Nsg9
g19
sg11
Nsg12
I1996
sg13
I1
sg14
Nsg15
Nsg16
I3
sbag2
(g3
g4
NtRp1271
(dp1272
g7
Nsg8
Nsg9
V\u6210\u4eba\u306e\u65e5
p1273
sg11
Nsg12
I1996
sg13
I1
sg14
Nsg15
Nsg16
I15
sbag2
(g3
g4
NtRp1274
(dp1275
g7
Nsg8
Nsg9
V\u5efa\u56fd\u8a18\u5ff5\u306e\u65e5
p1276
sg11
Nsg12
I1996
sg13
I2
sg14
Nsg15
Nsg16
I11
sbag2
(g3
g4
NtRp1277
(dp1278
g7
Nsg8
Nsg9
V\u632f\u66ff\u4f11\u65e5
p1279
sg11
Nsg12
I1996
sg13
I2
sg14
Nsg15
Nsg16
I12
sbag2
(g3
g4
NtRp1280
(dp1281
g7
Nsg8
Nsg9
V\u6625\u5206\u306e\u65e5
p1282
sg11
Nsg12
I1996
sg13
I3
sg14
Nsg15
Nsg16
I20
sbag2
(g3
g4
NtRp1283
(dp1284
g7
Nsg8
Nsg9
V\u307f\u3069\u308a\u306e\u65e5
p1285
sg11
Nsg12
I1996
sg13
I4
sg14
Nsg15
Nsg16
I29
sbag2
(g3
g4
NtRp1286
(dp1287
g7
Nsg8
Nsg9
V\u61b2\u6cd5\u8a18\u5ff5\u65e5
p1288
sg11
Nsg12
I1996
sg13
I5
sg14
Nsg15
Nsg16
I3
sbag2
(g3
g4
NtRp1289
(dp1290
g7
Nsg8
Nsg9
V\u56fd\u6c11\u306e\u4f11\u65e5
p1291
sg11
Nsg12
I1996
sg13
I5
sg14
Nsg15
Nsg16
I4
sbag2
(g3
g4
NtRp1292
(dp1293
g7
Nsg8
Nsg9
V\u3053\u3069\u3082\u306e\u65e5
p1294
sg11
Nsg12
I1996
sg13
I5
sg14
Nsg15
Nsg16
I5
sbag2
(g3
g4
NtRp1295
(dp1296
g7
Nsg8
Nsg9
V\u632f\u66ff\u4f11\u65e5
p1297
sg11
Nsg12
I1996
sg13
I5
sg14
Nsg15
Nsg16
I6
sbag2
(g3
g4
NtRp1298
(dp1299
g7
Nsg8
Nsg9
V\u6d77\u306e\u65e5
p1300
sg11
Nsg12
I1996
sg13
I7
sg14
Nsg15
Nsg16
I20
sbag2
(g3
g4
NtRp1301
(dp1302
g7
Nsg8
Nsg9
V\u656c\u8001\u306e\u65e5
p1303
sg11
Nsg12
I1996
sg13
I9
sg14
Nsg15
Nsg16
I15
sbag2
(g3
g4
NtRp1304
(dp1305
g7
Nsg8
Nsg9
V\u632f\u66ff\u4f11\u65e5
p1306
sg11
Nsg12
I1996
sg13
I9
sg14
Nsg15
Nsg16
I16
sbag2
(g3
g4
NtRp1307
(dp1308
g7
Nsg8
Nsg9
V\u79cb\u5206\u306e\u65e5
p1309
sg11
Nsg12
I1996
sg13
I9
sg14
Nsg15
Nsg16
I23
sbag2
(g3
g4
NtRp1310
(dp1311
g7
Nsg8
Nsg9
V\u4f53\u80b2\u306e\u65e5
p1312
sg11
Nsg12
I1996
sg13
I10
sg14
Nsg15
Nsg16
I10
sbag2
(g3
g4
NtRp1313
(dp1314
g7
Nsg8
Nsg9
V\u6587\u5316\u306e\u65e5
p1315
sg11
Nsg12
I1996
sg13
I11
sg14
Nsg15
Nsg16
I3
sbag2
(g3
g4
NtRp1316
(dp1317
g7
Nsg8
Nsg9
V\u632f\u66ff\u4f11\u65e5
p1318
sg11
Nsg12
I1996
sg13
I11
sg14
Nsg15
Nsg16
I4
sbag2
(g3
g4
NtRp1319
(dp1320
g7
Nsg8
Nsg9
V\u52e4\u52b4\u611f\u8b1d\u306e\u65e5
p1321
sg11
Nsg12
I1996
sg13
I11
sg14
Nsg15
Nsg16
I23
sbag2
(g3
g4
NtRp1322
(dp1323
g7
Nsg8
Nsg9
V\u5929\u7687\u8a95\u751f\u65e5
p1324
sg11
Nsg12
I1996
sg13
I12
sg14
Nsg15
Nsg16
I23
sbag2
(g3
g4
NtRp1325
(dp1326
g7
Nsg8
Nsg9
g19
sg11
Nsg12
I1996
sg13
I12
sg14
Nsg15
Nsg16
I31
sbag2
(g3
g4
NtRp1327
(dp1328
g7
Nsg8
Nsg9
V\u5143\u65e5
p1329
sg11
Nsg12
I1997
sg13
I1
sg14
Nsg15
Nsg16
I1
sbag2
(g3
g4
NtRp1330
(dp1331
g7
Nsg8
Nsg9
g19
sg11
Nsg12
I1997
sg13
I1
sg14
Nsg15
Nsg16
I2
sbag2
(g3
g4
NtRp1332
(dp1333
g7
Nsg8
Nsg9
g19
sg11
Nsg12
I1997
sg13
I1
sg14
Nsg15
Nsg16
I3
sbag2
(g3
g4
NtRp1334
(dp1335
g7
Nsg8
Nsg9
V\u6210\u4eba\u306e\u65e5
p1336
sg11
Nsg12
I1997
sg13
I1
sg14
Nsg15
Nsg16
I15
sbag2
(g3
g4
NtRp1337
(dp1338
g7
Nsg8
Nsg9
V\u5efa\u56fd\u8a18\u5ff5\u306e\u65e5
p1339
sg11
Nsg12
I1997
sg13
I2
sg14
Nsg15
Nsg16
I11
sbag2
(g3
g4
NtRp1340
(dp1341
g7
Nsg8
Nsg9
V\u6625\u5206\u306e\u65e5
p1342
sg11
Nsg12
I1997
sg13
I3
sg14
Nsg15
Nsg16
I20
sbag2
(g3
g4
NtRp1343
(dp1344
g7
Nsg8
Nsg9
V\u307f\u3069\u308a\u306e\u65e5
p1345
sg11
Nsg12
I1997
sg13
I4
sg14
Nsg15
Nsg16
I29
sbag2
(g3
g4
NtRp1346
(dp1347
g7
Nsg8
Nsg9
V\u61b2\u6cd5\u8a18\u5ff5\u65e5
p1348
sg11
Nsg12
I1997
sg13
I5
sg14
Nsg15
Nsg16
I3
sbag2
(g3
g4
NtRp1349
(dp1350
g7
Nsg8
Nsg9
V\u3053\u3069\u3082\u306e\u65e5
p1351
sg11
Nsg12
I1997
sg13
I5
sg14
Nsg15
Nsg16
I5
sbag2
(g3
g4
NtRp1352
(dp1353
g7
Nsg8
Nsg9
V\u6d77\u306e\u65e5
p1354
sg11
Nsg12
I1997
sg13
I7
sg14
Nsg15
Nsg16
I20
sbag2
(g3
g4
NtRp1355
(dp1356
g7
Nsg8
Nsg9
V\u632f\u66ff\u4f11\u65e5
p1357
sg11
Nsg12
I1997
sg13
I7
sg14
Nsg15
Nsg16
I21
sbag2
(g3
g4
NtRp1358
(dp1359
g7
Nsg8
Nsg9
V\u656c\u8001\u306e\u65e5
p1360
sg11
Nsg12
I1997
sg13
I9
sg14
Nsg15
Nsg16
I15
sbag2
(g3
g4
NtRp1361
(dp1362
g7
Nsg8
Nsg9
V\u79cb\u5206\u306e\u65e5
p1363
sg11
Nsg12
I1997
sg13
I9
sg14
Nsg15
Nsg16
I23
sbag2
(g3
g4
NtRp1364
(dp1365
g7
Nsg8
Nsg9
V\u4f53\u80b2\u306e\u65e5
p1366
sg11
Nsg12
I1997
sg13
I10
sg14
Nsg15
Nsg16
I10
sbag2
(g3
g4
NtRp1367
(dp1368
g7
Nsg8
Nsg9
V\u6587\u5316\u306e\u65e5
p1369
sg11
Nsg12
I1997
sg13
I11
sg14
Nsg15
Nsg16
I3
sbag2
(g3
g4
NtRp1370
(dp1371
g7
Nsg8
Nsg9
V\u52e4\u52b4\u611f\u8b1d\u306e\u65e5
p1372
sg11
Nsg12
I1997
sg13
I11
sg14
Nsg15
Nsg16
I23
sbag2
(g3
g4
NtRp1373
(dp1374
g7
Nsg8
Nsg9
V\u632f\u66ff\u4f11\u65e5
p1375
sg11
Nsg12
I1997
sg13
I11
sg14
Nsg15
Nsg16
I24
sbag2
(g3
g4
NtRp1376
(dp1377
g7
Nsg8
Nsg9
V\u5929\u7687\u8a95\u751f\u65e5
p1378
sg11
Nsg12
I1997
sg13
I12
sg14
Nsg15
Nsg16
I23
sbag2
(g3
g4
NtRp1379
(dp1380
g7
Nsg8
Nsg9
g19
sg11
Nsg12
I1997
sg13
I12
sg14
Nsg15
Nsg16
I31
sbag2
(g3
g4
NtRp1381
(dp1382
g7
Nsg8
Nsg9
V\u5143\u65e5
p1383
sg11
Nsg12
I1998
sg13
I1
sg14
Nsg15
Nsg16
I1
sbag2
(g3
g4
NtRp1384
(dp1385
g7
Nsg8
Nsg9
g19
sg11
Nsg12
I1998
sg13
I1
sg14
Nsg15
Nsg16
I2
sbag2
(g3
g4
NtRp1386
(dp1387
g7
Nsg8
Nsg9
g19
sg11
Nsg12
I1998
sg13
I1
sg14
Nsg15
Nsg16
I3
sbag2
(g3
g4
NtRp1388
(dp1389
g7
Nsg8
Nsg9
V\u6210\u4eba\u306e\u65e5
p1390
sg11
Nsg12
I1998
sg13
I1
sg14
Nsg15
Nsg16
I15
sbag2
(g3
g4
NtRp1391
(dp1392
g7
Nsg8
Nsg9
V\u5efa\u56fd\u8a18\u5ff5\u306e\u65e5
p1393
sg11
Nsg12
I1998
sg13
I2
sg14
Nsg15
Nsg16
I11
sbag2
(g3
g4
NtRp1394
(dp1395
g7
Nsg8
Nsg9
V\u6625\u5206\u306e\u65e5
p1396
sg11
Nsg12
I1998
sg13
I3
sg14
Nsg15
Nsg16
I21
sbag2
(g3
g4
NtRp1397
(dp1398
g7
Nsg8
Nsg9
V\u307f\u3069\u308a\u306e\u65e5
p1399
sg11
Nsg12
I1998
sg13
I4
sg14
Nsg15
Nsg16
I29
sbag2
(g3
g4
NtRp1400
(dp1401
g7
Nsg8
Nsg9
V\u61b2\u6cd5\u8a18\u5ff5\u65e5
p1402
sg11
Nsg12
I1998
sg13
I5
sg14
Nsg15
Nsg16
I3
sbag2
(g3
g4
NtRp1403
(dp1404
g7
Nsg8
Nsg9
V\u632f\u66ff\u4f11\u65e5
p1405
sg11
Nsg12
I1998
sg13
I5
sg14
Nsg15
Nsg16
I4
sbag2
(g3
g4
NtRp1406
(dp1407
g7
Nsg8
Nsg9
V\u3053\u3069\u3082\u306e\u65e5
p1408
sg11
Nsg12
I1998
sg13
I5
sg14
Nsg15
Nsg16
I5
sbag2
(g3
g4
NtRp1409
(dp1410
g7
Nsg8
Nsg9
V\u6d77\u306e\u65e5
p1411
sg11
Nsg12
I1998
sg13
I7
sg14
Nsg15
Nsg16
I20
sbag2
(g3
g4
NtRp1412
(dp1413
g7
Nsg8
Nsg9
V\u656c\u8001\u306e\u65e5
p1414
sg11
Nsg12
I1998
sg13
I9
sg14
Nsg15
Nsg16
I15
sbag2
(g3
g4
NtRp1415
(dp1416
g7
Nsg8
Nsg9
V\u79cb\u5206\u306e\u65e5
p1417
sg11
Nsg12
I1998
sg13
I9
sg14
Nsg15
Nsg16
I23
sbag2
(g3
g4
NtRp1418
(dp1419
g7
Nsg8
Nsg9
V\u4f53\u80b2\u306e\u65e5
p1420
sg11
Nsg12
I1998
sg13
I10
sg14
Nsg15
Nsg16
I10
sbag2
(g3
g4
NtRp1421
(dp1422
g7
Nsg8
Nsg9
V\u6587\u5316\u306e\u65e5
p1423
sg11
Nsg12
I1998
sg13
I11
sg14
Nsg15
Nsg16
I3
sbag2
(g3
g4
NtRp1424
(dp1425
g7
Nsg8
Nsg9
V\u52e4\u52b4\u611f\u8b1d\u306e\u65e5
p1426
sg11
Nsg12
I1998
sg13
I11
sg14
Nsg15
Nsg16
I23
sbag2
(g3
g4
NtRp1427
(dp1428
g7
Nsg8
Nsg9
V\u5929\u7687\u8a95\u751f\u65e5
p1429
sg11
Nsg12
I1998
sg13
I12
sg14
Nsg15
Nsg16
I23
sbag2
(g3
g4
NtRp1430
(dp1431
g7
Nsg8
Nsg9
g19
sg11
Nsg12
I1998
sg13
I12
sg14
Nsg15
Nsg16
I31
sbag2
(g3
g4
NtRp1432
(dp1433
g7
Nsg8
Nsg9
V\u5143\u65e5
p1434
sg11
Nsg12
I1999
sg13
I1
sg14
Nsg15
Nsg16
I1
sbag2
(g3
g4
NtRp1435
(dp1436
g7
Nsg8
Nsg9
g19
sg11
Nsg12
I1999
sg13
I1
sg14
Nsg15
Nsg16
I2
sbag2
(g3
g4
NtRp1437
(dp1438
g7
Nsg8
Nsg9
g19
sg11
Nsg12
I1999
sg13
I1
sg14
Nsg15
Nsg16
I3
sbag2
(g3
g4
NtRp1439
(dp1440
g7
Nsg8
Nsg9
V\u6210\u4eba\u306e\u65e5
p1441
sg11
Nsg12
I1999
sg13
I1
sg14
Nsg15
Nsg16
I15
sbag2
(g3
g4
NtRp1442
(dp1443
g7
Nsg8
Nsg9
V\u5efa\u56fd\u8a18\u5ff5\u306e\u65e5
p1444
sg11
Nsg12
I1999
sg13
I2
sg14
Nsg15
Nsg16
I11
sbag2
(g3
g4
NtRp1445
(dp1446
g7
Nsg8
Nsg9
V\u6625\u5206\u306e\u65e5
p1447
sg11
Nsg12
I1999
sg13
I3
sg14
Nsg15
Nsg16
I21
sbag2
(g3
g4
NtRp1448
(dp1449
g7
Nsg8
Nsg9
V\u632f\u66ff\u4f11\u65e5
p1450
sg11
Nsg12
I1999
sg13
I3
sg14
Nsg15
Nsg16
I22
sbag2
(g3
g4
NtRp1451
(dp1452
g7
Nsg8
Nsg9
V\u307f\u3069\u308a\u306e\u65e5
p1453
sg11
Nsg12
I1999
sg13
I4
sg14
Nsg15
Nsg16
I29
sbag2
(g3
g4
NtRp1454
(dp1455
g7
Nsg8
Nsg9
V\u61b2\u6cd5\u8a18\u5ff5\u65e5
p1456
sg11
Nsg12
I1999
sg13
I5
sg14
Nsg15
Nsg16
I3
sbag2
(g3
g4
NtRp1457
(dp1458
g7
Nsg8
Nsg9
V\u56fd\u6c11\u306e\u4f11\u65e5
p1459
sg11
Nsg12
I1999
sg13
I5
sg14
Nsg15
Nsg16
I4
sbag2
(g3
g4
NtRp1460
(dp1461
g7
Nsg8
Nsg9
V\u3053\u3069\u3082\u306e\u65e5
p1462
sg11
Nsg12
I1999
sg13
I5
sg14
Nsg15
Nsg16
I5
sbag2
(g3
g4
NtRp1463
(dp1464
g7
Nsg8
Nsg9
V\u6d77\u306e\u65e5
p1465
sg11
Nsg12
I1999
sg13
I7
sg14
Nsg15
Nsg16
I20
sbag2
(g3
g4
NtRp1466
(dp1467
g7
Nsg8
Nsg9
V\u656c\u8001\u306e\u65e5
p1468
sg11
Nsg12
I1999
sg13
I9
sg14
Nsg15
Nsg16
I15
sbag2
(g3
g4
NtRp1469
(dp1470
g7
Nsg8
Nsg9
V\u79cb\u5206\u306e\u65e5
p1471
sg11
Nsg12
I1999
sg13
I9
sg14
Nsg15
Nsg16
I23
sbag2
(g3
g4
NtRp1472
(dp1473
g7
Nsg8
Nsg9
V\u4f53\u80b2\u306e\u65e5
p1474
sg11
Nsg12
I1999
sg13
I10
sg14
Nsg15
Nsg16
I10
sbag2
(g3
g4
NtRp1475
(dp1476
g7
Nsg8
Nsg9
V\u632f\u66ff\u4f11\u65e5
p1477
sg11
Nsg12
I1999
sg13
I10
sg14
Nsg15
Nsg16
I11
sbag2
(g3
g4
NtRp1478
(dp1479
g7
Nsg8
Nsg9
V\u6587\u5316\u306e\u65e5
p1480
sg11
Nsg12
I1999
sg13
I11
sg14
Nsg15
Nsg16
I3
sbag2
(g3
g4
NtRp1481
(dp1482
g7
Nsg8
Nsg9
V\u52e4\u52b4\u611f\u8b1d\u306e\u65e5
p1483
sg11
Nsg12
I1999
sg13
I11
sg14
Nsg15
Nsg16
I23
sbag2
(g3
g4
NtRp1484
(dp1485
g7
Nsg8
Nsg9
V\u5929\u7687\u8a95\u751f\u65e5
p1486
sg11
Nsg12
I1999
sg13
I12
sg14
Nsg15
Nsg16
I23
sbag2
(g3
g4
NtRp1487
(dp1488
g7
Nsg8
Nsg9
g19
sg11
Nsg12
I1999
sg13
I12
sg14
Nsg15
Nsg16
I31
sbag2
(g3
g4
NtRp1489
(dp1490
g7
Nsg8
Nsg9
V\u5143\u65e5
p1491
sg11
Nsg12
I2000
sg13
I1
sg14
Nsg15
Nsg16
I1
sbag2
(g3
g4
NtRp1492
(dp1493
g7
Nsg8
Nsg9
g19
sg11
Nsg12
I2000
sg13
I1
sg14
Nsg15
Nsg16
I2
sbag2
(g3
g4
NtRp1494
(dp1495
g7
Nsg8
Nsg9
g19
sg11
Nsg12
I2000
sg13
I1
sg14
Nsg15
Nsg16
I3
sbag2
(g3
g4
NtRp1496
(dp1497
g7
Nsg8
Nsg9
V\u6210\u4eba\u306e\u65e5
p1498
sg11
Nsg12
I2000
sg13
I1
sg14
Nsg15
Nsg16
I10
sbag2
(g3
g4
NtRp1499
(dp1500
g7
Nsg8
Nsg9
V\u5efa\u56fd\u8a18\u5ff5\u306e\u65e5
p1501
sg11
Nsg12
I2000
sg13
I2
sg14
Nsg15
Nsg16
I11
sbag2
(g3
g4
NtRp1502
(dp1503
g7
Nsg8
Nsg9
V\u6625\u5206\u306e\u65e5
p1504
sg11
Nsg12
I2000
sg13
I3
sg14
Nsg15
Nsg16
I20
sbag2
(g3
g4
NtRp1505
(dp1506
g7
Nsg8
Nsg9
V\u307f\u3069\u308a\u306e\u65e5
p1507
sg11
Nsg12
I2000
sg13
I4
sg14
Nsg15
Nsg16
I29
sbag2
(g3
g4
NtRp1508
(dp1509
g7
Nsg8
Nsg9
V\u61b2\u6cd5\u8a18\u5ff5\u65e5
p1510
sg11
Nsg12
I2000
sg13
I5
sg14
Nsg15
Nsg16
I3
sbag2
(g3
g4
NtRp1511
(dp1512
g7
Nsg8
Nsg9
V\u56fd\u6c11\u306e\u4f11\u65e5
p1513
sg11
Nsg12
I2000
sg13
I5
sg14
Nsg15
Nsg16
I4
sbag2
(g3
g4
NtRp1514
(dp1515
g7
Nsg8
Nsg9
V\u3053\u3069\u3082\u306e\u65e5
p1516
sg11
Nsg12
I2000
sg13
I5
sg14
Nsg15
Nsg16
I5
sbag2
(g3
g4
NtRp1517
(dp1518
g7
Nsg8
Nsg9
V\u6d77\u306e\u65e5
p1519
sg11
Nsg12
I2000
sg13
I7
sg14
Nsg15
Nsg16
I20
sbag2
(g3
g4
NtRp1520
(dp1521
g7
Nsg8
Nsg9
V\u656c\u8001\u306e\u65e5
p1522
sg11
Nsg12
I2000
sg13
I9
sg14
Nsg15
Nsg16
I15
sbag2
(g3
g4
NtRp1523
(dp1524
g7
Nsg8
Nsg9
V\u79cb\u5206\u306e\u65e5
p1525
sg11
Nsg12
I2000
sg13
I9
sg14
Nsg15
Nsg16
I23
sbag2
(g3
g4
NtRp1526
(dp1527
g7
Nsg8
Nsg9
V\u4f53\u80b2\u306e\u65e5
p1528
sg11
Nsg12
I2000
sg13
I10
sg14
Nsg15
Nsg16
I9
sbag2
(g3
g4
NtRp1529
(dp1530
g7
Nsg8
Nsg9
V\u6587\u5316\u306e\u65e5
p1531
sg11
Nsg12
I2000
sg13
I11
sg14
Nsg15
Nsg16
I3
sbag2
(g3
g4
NtRp1532
(dp1533
g7
Nsg8
Nsg9
V\u52e4\u52b4\u611f\u8b1d\u306e\u65e5
p1534
sg11
Nsg12
I2000
sg13
I11
sg14
Nsg15
Nsg16
I23
sbag2
(g3
g4
NtRp1535
(dp1536
g7
Nsg8
Nsg9
V\u5929\u7687\u8a95\u751f\u65e5
p1537
sg11
Nsg12
I2000
sg13
I12
sg14
Nsg15
Nsg16
I23
sbag2
(g3
g4
NtRp1538
(dp1539
g7
Nsg8
Nsg9
g19
sg11
Nsg12
I2000
sg13
I12
sg14
Nsg15
Nsg16
I31
sbag2
(g3
g4
NtRp1540
(dp1541
g7
Nsg8
Nsg9
V\u5143\u65e5
p1542
sg11
Nsg12
I2001
sg13
I1
sg14
Nsg15
Nsg16
I1
sbag2
(g3
g4
NtRp1543
(dp1544
g7
Nsg8
Nsg9
g19
sg11
Nsg12
I2001
sg13
I1
sg14
Nsg15
Nsg16
I2
sbag2
(g3
g4
NtRp1545
(dp1546
g7
Nsg8
Nsg9
g19
sg11
Nsg12
I2001
sg13
I1
sg14
Nsg15
Nsg16
I3
sbag2
(g3
g4
NtRp1547
(dp1548
g7
Nsg8
Nsg9
V\u6210\u4eba\u306e\u65e5
p1549
sg11
Nsg12
I2001
sg13
I1
sg14
Nsg15
Nsg16
I8
sbag2
(g3
g4
NtRp1550
(dp1551
g7
Nsg8
Nsg9
V\u5efa\u56fd\u8a18\u5ff5\u306e\u65e5
p1552
sg11
Nsg12
I2001
sg13
I2
sg14
Nsg15
Nsg16
I11
sbag2
(g3
g4
NtRp1553
(dp1554
g7
Nsg8
Nsg9
V\u632f\u66ff\u4f11\u65e5
p1555
sg11
Nsg12
I2001
sg13
I2
sg14
Nsg15
Nsg16
I12
sbag2
(g3
g4
NtRp1556
(dp1557
g7
Nsg8
Nsg9
V\u6625\u5206\u306e\u65e5
p1558
sg11
Nsg12
I2001
sg13
I3
sg14
Nsg15
Nsg16
I20
sbag2
(g3
g4
NtRp1559
(dp1560
g7
Nsg8
Nsg9
V\u307f\u3069\u308a\u306e\u65e5
p1561
sg11
Nsg12
I2001
sg13
I4
sg14
Nsg15
Nsg16
I29
sbag2
(g3
g4
NtRp1562
(dp1563
g7
Nsg8
Nsg9
V\u632f\u66ff\u4f11\u65e5
p1564
sg11
Nsg12
I2001
sg13
I4
sg14
Nsg15
Nsg16
I30
sbag2
(g3
g4
NtRp1565
(dp1566
g7
Nsg8
Nsg9
V\u61b2\u6cd5\u8a18\u5ff5\u65e5
p1567
sg11
Nsg12
I2001
sg13
I5
sg14
Nsg15
Nsg16
I3
sbag2
(g3
g4
NtRp1568
(dp1569
g7
Nsg8
Nsg9
V\u56fd\u6c11\u306e\u4f11\u65e5
p1570
sg11
Nsg12
I2001
sg13
I5
sg14
Nsg15
Nsg16
I4
sbag2
(g3
g4
NtRp1571
(dp1572
g7
Nsg8
Nsg9
V\u3053\u3069\u3082\u306e\u65e5
p1573
sg11
Nsg12
I2001
sg13
I5
sg14
Nsg15
Nsg16
I5
sbag2
(g3
g4
NtRp1574
(dp1575
g7
Nsg8
Nsg9
V\u6d77\u306e\u65e5
p1576
sg11
Nsg12
I2001
sg13
I7
sg14
Nsg15
Nsg16
I20
sbag2
(g3
g4
NtRp1577
(dp1578
g7
Nsg8
Nsg9
V\u656c\u8001\u306e\u65e5
p1579
sg11
Nsg12
I2001
sg13
I9
sg14
Nsg15
Nsg16
I15
sbag2
(g3
g4
NtRp1580
(dp1581
g7
Nsg8
Nsg9
V\u79cb\u5206\u306e\u65e5
p1582
sg11
Nsg12
I2001
sg13
I9
sg14
Nsg15
Nsg16
I23
sbag2
(g3
g4
NtRp1583
(dp1584
g7
Nsg8
Nsg9
V\u632f\u66ff\u4f11\u65e5
p1585
sg11
Nsg12
I2001
sg13
I9
sg14
Nsg15
Nsg16
I24
sbag2
(g3
g4
NtRp1586
(dp1587
g7
Nsg8
Nsg9
V\u4f53\u80b2\u306e\u65e5
p1588
sg11
Nsg12
I2001
sg13
I10
sg14
Nsg15
Nsg16
I8
sbag2
(g3
g4
NtRp1589
(dp1590
g7
Nsg8
Nsg9
V\u6587\u5316\u306e\u65e5
p1591
sg11
Nsg12
I2001
sg13
I11
sg14
Nsg15
Nsg16
I3
sbag2
(g3
g4
NtRp1592
(dp1593
g7
Nsg8
Nsg9
V\u52e4\u52b4\u611f\u8b1d\u306e\u65e5
p1594
sg11
Nsg12
I2001
sg13
I11
sg14
Nsg15
Nsg16
I23
sbag2
(g3
g4
NtRp1595
(dp1596
g7
Nsg8
Nsg9
V\u5929\u7687\u8a95\u751f\u65e5
p1597
sg11
Nsg12
I2001
sg13
I12
sg14
Nsg15
Nsg16
I23
sbag2
(g3
g4
NtRp1598
(dp1599
g7
Nsg8
Nsg9
V\u632f\u66ff\u4f11\u65e5
p1600
sg11
Nsg12
I2001
sg13
I12
sg14
Nsg15
Nsg16
I24
sbag2
(g3
g4
NtRp1601
(dp1602
g7
Nsg8
Nsg9
g19
sg11
Nsg12
I2001
sg13
I12
sg14
Nsg15
Nsg16
I31
sbag2
(g3
g4
NtRp1603
(dp1604
g7
Nsg8
Nsg9
V\u5143\u65e5
p1605
sg11
Nsg12
I2002
sg13
I1
sg14
Nsg15
Nsg16
I1
sbag2
(g3
g4
NtRp1606
(dp1607
g7
Nsg8
Nsg9
g19
sg11
Nsg12
I2002
sg13
I1
sg14
Nsg15
Nsg16
I2
sbag2
(g3
g4
NtRp1608
(dp1609
g7
Nsg8
Nsg9
g19
sg11
Nsg12
I2002
sg13
I1
sg14
Nsg15
Nsg16
I3
sbag2
(g3
g4
NtRp1610
(dp1611
g7
Nsg8
Nsg9
V\u6210\u4eba\u306e\u65e5
p1612
sg11
Nsg12
I2002
sg13
I1
sg14
Nsg15
Nsg16
I14
sbag2
(g3
g4
NtRp1613
(dp1614
g7
Nsg8
Nsg9
V\u5efa\u56fd\u8a18\u5ff5\u306e\u65e5
p1615
sg11
Nsg12
I2002
sg13
I2
sg14
Nsg15
Nsg16
I11
sbag2
(g3
g4
NtRp1616
(dp1617
g7
Nsg8
Nsg9
V\u6625\u5206\u306e\u65e5
p1618
sg11
Nsg12
I2002
sg13
I3
sg14
Nsg15
Nsg16
I21
sbag2
(g3
g4
NtRp1619
(dp1620
g7
Nsg8
Nsg9
V\u307f\u3069\u308a\u306e\u65e5
p1621
sg11
Nsg12
I2002
sg13
I4
sg14
Nsg15
Nsg16
I29
sbag2
(g3
g4
NtRp1622
(dp1623
g7
Nsg8
Nsg9
V\u61b2\u6cd5\u8a18\u5ff5\u65e5
p1624
sg11
Nsg12
I2002
sg13
I5
sg14
Nsg15
Nsg16
I3
sbag2
(g3
g4
NtRp1625
(dp1626
g7
Nsg8
Nsg9
V\u56fd\u6c11\u306e\u4f11\u65e5
p1627
sg11
Nsg12
I2002
sg13
I5
sg14
Nsg15
Nsg16
I4
sbag2
(g3
g4
NtRp1628
(dp1629
g7
Nsg8
Nsg9
V\u3053\u3069\u3082\u306e\u65e5
p1630
sg11
Nsg12
I2002
sg13
I5
sg14
Nsg15
Nsg16
I5
sbag2
(g3
g4
NtRp1631
(dp1632
g7
Nsg8
Nsg9
V\u632f\u66ff\u4f11\u65e5
p1633
sg11
Nsg12
I2002
sg13
I5
sg14
Nsg15
Nsg16
I6
sbag2
(g3
g4
NtRp1634
(dp1635
g7
Nsg8
Nsg9
V\u6d77\u306e\u65e5
p1636
sg11
Nsg12
I2002
sg13
I7
sg14
Nsg15
Nsg16
I20
sbag2
(g3
g4
NtRp1637
(dp1638
g7
Nsg8
Nsg9
V\u656c\u8001\u306e\u65e5
p1639
sg11
Nsg12
I2002
sg13
I9
sg14
Nsg15
Nsg16
I15
sbag2
(g3
g4
NtRp1640
(dp1641
g7
Nsg8
Nsg9
V\u632f\u66ff\u4f11\u65e5
p1642
sg11
Nsg12
I2002
sg13
I9
sg14
Nsg15
Nsg16
I16
sbag2
(g3
g4
NtRp1643
(dp1644
g7
Nsg8
Nsg9
V\u79cb\u5206\u306e\u65e5
p1645
sg11
Nsg12
I2002
sg13
I9
sg14
Nsg15
Nsg16
I23
sbag2
(g3
g4
NtRp1646
(dp1647
g7
Nsg8
Nsg9
V\u4f53\u80b2\u306e\u65e5
p1648
sg11
Nsg12
I2002
sg13
I10
sg14
Nsg15
Nsg16
I14
sbag2
(g3
g4
NtRp1649
(dp1650
g7
Nsg8
Nsg9
V\u6587\u5316\u306e\u65e5
p1651
sg11
Nsg12
I2002
sg13
I11
sg14
Nsg15
Nsg16
I3
sbag2
(g3
g4
NtRp1652
(dp1653
g7
Nsg8
Nsg9
V\u632f\u66ff\u4f11\u65e5
p1654
sg11
Nsg12
I2002
sg13
I11
sg14
Nsg15
Nsg16
I4
sbag2
(g3
g4
NtRp1655
(dp1656
g7
Nsg8
Nsg9
V\u52e4\u52b4\u611f\u8b1d\u306e\u65e5
p1657
sg11
Nsg12
I2002
sg13
I11
sg14
Nsg15
Nsg16
I23
sbag2
(g3
g4
NtRp1658
(dp1659
g7
Nsg8
Nsg9
V\u5929\u7687\u8a95\u751f\u65e5
p1660
sg11
Nsg12
I2002
sg13
I12
sg14
Nsg15
Nsg16
I23
sbag2
(g3
g4
NtRp1661
(dp1662
g7
Nsg8
Nsg9
g19
sg11
Nsg12
I2002
sg13
I12
sg14
Nsg15
Nsg16
I31
sbag2
(g3
g4
NtRp1663
(dp1664
g7
Nsg8
Nsg9
V\u5143\u65e5
p1665
sg11
Nsg12
I2003
sg13
I1
sg14
Nsg15
Nsg16
I1
sbag2
(g3
g4
NtRp1666
(dp1667
g7
Nsg8
Nsg9
g19
sg11
Nsg12
I2003
sg13
I1
sg14
Nsg15
Nsg16
I2
sbag2
(g3
g4
NtRp1668
(dp1669
g7
Nsg8
Nsg9
g19
sg11
Nsg12
I2003
sg13
I1
sg14
Nsg15
Nsg16
I3
sbag2
(g3
g4
NtRp1670
(dp1671
g7
Nsg8
Nsg9
V\u6210\u4eba\u306e\u65e5
p1672
sg11
Nsg12
I2003
sg13
I1
sg14
Nsg15
Nsg16
I13
sbag2
(g3
g4
NtRp1673
(dp1674
g7
Nsg8
Nsg9
V\u5efa\u56fd\u8a18\u5ff5\u306e\u65e5
p1675
sg11
Nsg12
I2003
sg13
I2
sg14
Nsg15
Nsg16
I11
sbag2
(g3
g4
NtRp1676
(dp1677
g7
Nsg8
Nsg9
V\u6625\u5206\u306e\u65e5
p1678
sg11
Nsg12
I2003
sg13
I3
sg14
Nsg15
Nsg16
I21
sbag2
(g3
g4
NtRp1679
(dp1680
g7
Nsg8
Nsg9
V\u307f\u3069\u308a\u306e\u65e5
p1681
sg11
Nsg12
I2003
sg13
I4
sg14
Nsg15
Nsg16
I29
sbag2
(g3
g4
NtRp1682
(dp1683
g7
Nsg8
Nsg9
V\u61b2\u6cd5\u8a18\u5ff5\u65e5
p1684
sg11
Nsg12
I2003
sg13
I5
sg14
Nsg15
Nsg16
I3
sbag2
(g3
g4
NtRp1685
(dp1686
g7
Nsg8
Nsg9
V\u3053\u3069\u3082\u306e\u65e5
p1687
sg11
Nsg12
I2003
sg13
I5
sg14
Nsg15
Nsg16
I5
sbag2
(g3
g4
NtRp1688
(dp1689
g7
Nsg8
Nsg9
V\u6d77\u306e\u65e5
p1690
sg11
Nsg12
I2003
sg13
I7
sg14
Nsg15
Nsg16
I21
sbag2
(g3
g4
NtRp1691
(dp1692
g7
Nsg8
Nsg9
V\u656c\u8001\u306e\u65e5
p1693
sg11
Nsg12
I2003
sg13
I9
sg14
Nsg15
Nsg16
I15
sbag2
(g3
g4
NtRp1694
(dp1695
g7
Nsg8
Nsg9
V\u79cb\u5206\u306e\u65e5
p1696
sg11
Nsg12
I2003
sg13
I9
sg14
Nsg15
Nsg16
I23
sbag2
(g3
g4
NtRp1697
(dp1698
g7
Nsg8
Nsg9
V\u4f53\u80b2\u306e\u65e5
p1699
sg11
Nsg12
I2003
sg13
I10
sg14
Nsg15
Nsg16
I13
sbag2
(g3
g4
NtRp1700
(dp1701
g7
Nsg8
Nsg9
V\u6587\u5316\u306e\u65e5
p1702
sg11
Nsg12
I2003
sg13
I11
sg14
Nsg15
Nsg16
I3
sbag2
(g3
g4
NtRp1703
(dp1704
g7
Nsg8
Nsg9
V\u52e4\u52b4\u611f\u8b1d\u306e\u65e5
p1705
sg11
Nsg12
I2003
sg13
I11
sg14
Nsg15
Nsg16
I23
sbag2
(g3
g4
NtRp1706
(dp1707
g7
Nsg8
Nsg9
V\u632f\u66ff\u4f11\u65e5
p1708
sg11
Nsg12
I2003
sg13
I11
sg14
Nsg15
Nsg16
I24
sbag2
(g3
g4
NtRp1709
(dp1710
g7
Nsg8
Nsg9
V\u5929\u7687\u8a95\u751f\u65e5
p1711
sg11
Nsg12
I2003
sg13
I12
sg14
Nsg15
Nsg16
I23
sbag2
(g3
g4
NtRp1712
(dp1713
g7
Nsg8
Nsg9
g19
sg11
Nsg12
I2003
sg13
I12
sg14
Nsg15
Nsg16
I31
sbag2
(g3
g4
NtRp1714
(dp1715
g7
Nsg8
Nsg9
V\u5143\u65e5
p1716
sg11
Nsg12
I2004
sg13
I1
sg14
Nsg15
Nsg16
I1
sbag2
(g3
g4
NtRp1717
(dp1718
g7
Nsg8
Nsg9
g19
sg11
Nsg12
I2004
sg13
I1
sg14
Nsg15
Nsg16
I2
sbag2
(g3
g4
NtRp1719
(dp1720
g7
Nsg8
Nsg9
g19
sg11
Nsg12
I2004
sg13
I1
sg14
Nsg15
Nsg16
I3
sbag2
(g3
g4
NtRp1721
(dp1722
g7
Nsg8
Nsg9
V\u6210\u4eba\u306e\u65e5
p1723
sg11
Nsg12
I2004
sg13
I1
sg14
Nsg15
Nsg16
I12
sbag2
(g3
g4
NtRp1724
(dp1725
g7
Nsg8
Nsg9
V\u5efa\u56fd\u8a18\u5ff5\u306e\u65e5
p1726
sg11
Nsg12
I2004
sg13
I2
sg14
Nsg15
Nsg16
I11
sbag2
(g3
g4
NtRp1727
(dp1728
g7
Nsg8
Nsg9
V\u6625\u5206\u306e\u65e5
p1729
sg11
Nsg12
I2004
sg13
I3
sg14
Nsg15
Nsg16
I20
sbag2
(g3
g4
NtRp1730
(dp1731
g7
Nsg8
Nsg9
V\u307f\u3069\u308a\u306e\u65e5
p1732
sg11
Nsg12
I2004
sg13
I4
sg14
Nsg15
Nsg16
I29
sbag2
(g3
g4
NtRp1733
(dp1734
g7
Nsg8
Nsg9
V\u61b2\u6cd5\u8a18\u5ff5\u65e5
p1735
sg11
Nsg12
I2004
sg13
I5
sg14
Nsg15
Nsg16
I3
sbag2
(g3
g4
NtRp1736
(dp1737
g7
Nsg8
Nsg9
V\u56fd\u6c11\u306e\u4f11\u65e5
p1738
sg11
Nsg12
I2004
sg13
I5
sg14
Nsg15
Nsg16
I4
sbag2
(g3
g4
NtRp1739
(dp1740
g7
Nsg8
Nsg9
V\u3053\u3069\u3082\u306e\u65e5
p1741
sg11
Nsg12
I2004
sg13
I5
sg14
Nsg15
Nsg16
I5
sbag2
(g3
g4
NtRp1742
(dp1743
g7
Nsg8
Nsg9
V\u6d77\u306e\u65e5
p1744
sg11
Nsg12
I2004
sg13
I7
sg14
Nsg15
Nsg16
I19
sbag2
(g3
g4
NtRp1745
(dp1746
g7
Nsg8
Nsg9
V\u656c\u8001\u306e\u65e5
p1747
sg11
Nsg12
I2004
sg13
I9
sg14
Nsg15
Nsg16
I20
sbag2
(g3
g4
NtRp1748
(dp1749
g7
Nsg8
Nsg9
V\u79cb\u5206\u306e\u65e5
p1750
sg11
Nsg12
I2004
sg13
I9
sg14
Nsg15
Nsg16
I23
sbag2
(g3
g4
NtRp1751
(dp1752
g7
Nsg8
Nsg9
V\u4f53\u80b2\u306e\u65e5
p1753
sg11
Nsg12
I2004
sg13
I10
sg14
Nsg15
Nsg16
I11
sbag2
(g3
g4
NtRp1754
(dp1755
g7
Nsg8
Nsg9
V\u6587\u5316\u306e\u65e5
p1756
sg11
Nsg12
I2004
sg13
I11
sg14
Nsg15
Nsg16
I3
sbag2
(g3
g4
NtRp1757
(dp1758
g7
Nsg8
Nsg9
V\u52e4\u52b4\u611f\u8b1d\u306e\u65e5
p1759
sg11
Nsg12
I2004
sg13
I11
sg14
Nsg15
Nsg16
I23
sbag2
(g3
g4
NtRp1760
(dp1761
g7
Nsg8
Nsg9
V\u5929\u7687\u8a95\u751f\u65e5
p1762
sg11
Nsg12
I2004
sg13
I12
sg14
Nsg15
Nsg16
I23
sbag2
(g3
g4
NtRp1763
(dp1764
g7
Nsg8
Nsg9
g19
sg11
Nsg12
I2004
sg13
I12
sg14
Nsg15
Nsg16
I31
sbag2
(g3
g4
NtRp1765
(dp1766
g7
Nsg8
Nsg9
V\u5143\u65e5
p1767
sg11
Nsg12
I2005
sg13
I1
sg14
Nsg15
Nsg16
I1
sbag2
(g3
g4
NtRp1768
(dp1769
g7
Nsg8
Nsg9
g19
sg11
Nsg12
I2005
sg13
I1
sg14
Nsg15
Nsg16
I2
sbag2
(g3
g4
NtRp1770
(dp1771
g7
Nsg8
Nsg9
g19
sg11
Nsg12
I2005
sg13
I1
sg14
Nsg15
Nsg16
I3
sbag2
(g3
g4
NtRp1772
(dp1773
g7
Nsg8
Nsg9
V\u6210\u4eba\u306e\u65e5
p1774
sg11
Nsg12
I2005
sg13
I1
sg14
Nsg15
Nsg16
I10
sbag2
(g3
g4
NtRp1775
(dp1776
g7
Nsg8
Nsg9
V\u5efa\u56fd\u8a18\u5ff5\u306e\u65e5
p1777
sg11
Nsg12
I2005
sg13
I2
sg14
Nsg15
Nsg16
I11
sbag2
(g3
g4
NtRp1778
(dp1779
g7
Nsg8
Nsg9
V\u6625\u5206\u306e\u65e5
p1780
sg11
Nsg12
I2005
sg13
I3
sg14
Nsg15
Nsg16
I20
sbag2
(g3
g4
NtRp1781
(dp1782
g7
Nsg8
Nsg9
V\u632f\u66ff\u4f11\u65e5
p1783
sg11
Nsg12
I2005
sg13
I3
sg14
Nsg15
Nsg16
I21
sbag2
(g3
g4
NtRp1784
(dp1785
g7
Nsg8
Nsg9
V\u307f\u3069\u308a\u306e\u65e5
p1786
sg11
Nsg12
I2005
sg13
I4
sg14
Nsg15
Nsg16
I29
sbag2
(g3
g4
NtRp1787
(dp1788
g7
Nsg8
Nsg9
V\u61b2\u6cd5\u8a18\u5ff5\u65e5
p1789
sg11
Nsg12
I2005
sg13
I5
sg14
Nsg15
Nsg16
I3
sbag2
(g3
g4
NtRp1790
(dp1791
g7
Nsg8
Nsg9
V\u56fd\u6c11\u306e\u4f11\u65e5
p1792
sg11
Nsg12
I2005
sg13
I5
sg14
Nsg15
Nsg16
I4
sbag2
(g3
g4
NtRp1793
(dp1794
g7
Nsg8
Nsg9
V\u3053\u3069\u3082\u306e\u65e5
p1795
sg11
Nsg12
I2005
sg13
I5
sg14
Nsg15
Nsg16
I5
sbag2
(g3
g4
NtRp1796
(dp1797
g7
Nsg8
Nsg9
V\u6d77\u306e\u65e5
p1798
sg11
Nsg12
I2005
sg13
I7
sg14
Nsg15
Nsg16
I18
sbag2
(g3
g4
NtRp1799
(dp1800
g7
Nsg8
Nsg9
V\u656c\u8001\u306e\u65e5
p1801
sg11
Nsg12
I2005
sg13
I9
sg14
Nsg15
Nsg16
I19
sbag2
(g3
g4
NtRp1802
(dp1803
g7
Nsg8
Nsg9
V\u79cb\u5206\u306e\u65e5
p1804
sg11
Nsg12
I2005
sg13
I9
sg14
Nsg15
Nsg16
I23
sbag2
(g3
g4
NtRp1805
(dp1806
g7
Nsg8
Nsg9
V\u4f53\u80b2\u306e\u65e5
p1807
sg11
Nsg12
I2005
sg13
I10
sg14
Nsg15
Nsg16
I10
sbag2
(g3
g4
NtRp1808
(dp1809
g7
Nsg8
Nsg9
V\u6587\u5316\u306e\u65e5
p1810
sg11
Nsg12
I2005
sg13
I11
sg14
Nsg15
Nsg16
I3
sbag2
(g3
g4
NtRp1811
(dp1812
g7
Nsg8
Nsg9
V\u52e4\u52b4\u611f\u8b1d\u306e\u65e5
p1813
sg11
Nsg12
I2005
sg13
I11
sg14
Nsg15
Nsg16
I23
sbag2
(g3
g4
NtRp1814
(dp1815
g7
Nsg8
Nsg9
V\u5929\u7687\u8a95\u751f\u65e5
p1816
sg11
Nsg12
I2005
sg13
I12
sg14
Nsg15
Nsg16
I23
sbag2
(g3
g4
NtRp1817
(dp1818
g7
Nsg8
Nsg9
g19
sg11
Nsg12
I2005
sg13
I12
sg14
Nsg15
Nsg16
I31
sbag2
(g3
g4
NtRp1819
(dp1820
g7
Nsg8
Nsg9
V\u5143\u65e5
p1821
sg11
Nsg12
I2006
sg13
I1
sg14
Nsg15
Nsg16
I1
sbag2
(g3
g4
NtRp1822
(dp1823
g7
Nsg8
Nsg9
V\u632f\u66ff\u4f11\u65e5
p1824
sg11
Nsg12
I2006
sg13
I1
sg14
Nsg15
Nsg16
I2
sbag2
(g3
g4
NtRp1825
(dp1826
g7
Nsg8
Nsg9
g19
sg11
Nsg12
I2006
sg13
I1
sg14
Nsg15
Nsg16
I3
sbag2
(g3
g4
NtRp1827
(dp1828
g7
Nsg8
Nsg9
V\u6210\u4eba\u306e\u65e5
p1829
sg11
Nsg12
I2006
sg13
I1
sg14
Nsg15
Nsg16
I9
sbag2
(g3
g4
NtRp1830
(dp1831
g7
Nsg8
Nsg9
V\u5efa\u56fd\u8a18\u5ff5\u306e\u65e5
p1832
sg11
Nsg12
I2006
sg13
I2
sg14
Nsg15
Nsg16
I11
sbag2
(g3
g4
NtRp1833
(dp1834
g7
Nsg8
Nsg9
V\u6625\u5206\u306e\u65e5
p1835
sg11
Nsg12
I2006
sg13
I3
sg14
Nsg15
Nsg16
I21
sbag2
(g3
g4
NtRp1836
(dp1837
g7
Nsg8
Nsg9
V\u307f\u3069\u308a\u306e\u65e5
p1838
sg11
Nsg12
I2006
sg13
I4
sg14
Nsg15
Nsg16
I29
sbag2
(g3
g4
NtRp1839
(dp1840
g7
Nsg8
Nsg9
V\u61b2\u6cd5\u8a18\u5ff5\u65e5
p1841
sg11
Nsg12
I2006
sg13
I5
sg14
Nsg15
Nsg16
I3
sbag2
(g3
g4
NtRp1842
(dp1843
g7
Nsg8
Nsg9
V\u56fd\u6c11\u306e\u4f11\u65e5
p1844
sg11
Nsg12
I2006
sg13
I5
sg14
Nsg15
Nsg16
I4
sbag2
(g3
g4
NtRp1845
(dp1846
g7
Nsg8
Nsg9
V\u3053\u3069\u3082\u306e\u65e5
p1847
sg11
Nsg12
I2006
sg13
I5
sg14
Nsg15
Nsg16
I5
sbag2
(g3
g4
NtRp1848
(dp1849
g7
Nsg8
Nsg9
V\u6d77\u306e\u65e5
p1850
sg11
Nsg12
I2006
sg13
I7
sg14
Nsg15
Nsg16
I17
sbag2
(g3
g4
NtRp1851
(dp1852
g7
Nsg8
Nsg9
V\u656c\u8001\u306e\u65e5
p1853
sg11
Nsg12
I2006
sg13
I9
sg14
Nsg15
Nsg16
I18
sbag2
(g3
g4
NtRp1854
(dp1855
g7
Nsg8
Nsg9
V\u79cb\u5206\u306e\u65e5
p1856
sg11
Nsg12
I2006
sg13
I9
sg14
Nsg15
Nsg16
I23
sbag2
(g3
g4
NtRp1857
(dp1858
g7
Nsg8
Nsg9
V\u4f53\u80b2\u306e\u65e5
p1859
sg11
Nsg12
I2006
sg13
I10
sg14
Nsg15
Nsg16
I9
sbag2
(g3
g4
NtRp1860
(dp1861
g7
Nsg8
Nsg9
V\u6587\u5316\u306e\u65e5
p1862
sg11
Nsg12
I2006
sg13
I11
sg14
Nsg15
Nsg16
I3
sbag2
(g3
g4
NtRp1863
(dp1864
g7
Nsg8
Nsg9
V\u52e4\u52b4\u611f\u8b1d\u306e\u65e5
p1865
sg11
Nsg12
I2006
sg13
I11
sg14
Nsg15
Nsg16
I23
sbag2
(g3
g4
NtRp1866
(dp1867
g7
Nsg8
Nsg9
V\u5929\u7687\u8a95\u751f\u65e5
p1868
sg11
Nsg12
I2006
sg13
I12
sg14
Nsg15
Nsg16
I23
sbag2
(g3
g4
NtRp1869
(dp1870
g7
Nsg8
Nsg9
g19
sg11
Nsg12
I2006
sg13
I12
sg14
Nsg15
Nsg16
I31
sbag2
(g3
g4
NtRp1871
(dp1872
g7
Nsg8
Nsg9
V\u5143\u65e5
p1873
sg11
Nsg12
I2007
sg13
I1
sg14
Nsg15
Nsg16
I1
sbag2
(g3
g4
NtRp1874
(dp1875
g7
Nsg8
Nsg9
g19
sg11
Nsg12
I2007
sg13
I1
sg14
Nsg15
Nsg16
I2
sbag2
(g3
g4
NtRp1876
(dp1877
g7
Nsg8
Nsg9
g19
sg11
Nsg12
I2007
sg13
I1
sg14
Nsg15
Nsg16
I3
sbag2
(g3
g4
NtRp1878
(dp1879
g7
Nsg8
Nsg9
V\u6210\u4eba\u306e\u65e5
p1880
sg11
Nsg12
I2007
sg13
I1
sg14
Nsg15
Nsg16
I8
sbag2
(g3
g4
NtRp1881
(dp1882
g7
Nsg8
Nsg9
V\u5efa\u56fd\u8a18\u5ff5\u306e\u65e5
p1883
sg11
Nsg12
I2007
sg13
I2
sg14
Nsg15
Nsg16
I11
sbag2
(g3
g4
NtRp1884
(dp1885
g7
Nsg8
Nsg9
V\u632f\u66ff\u4f11\u65e5
p1886
sg11
Nsg12
I2007
sg13
I2
sg14
Nsg15
Nsg16
I12
sbag2
(g3
g4
NtRp1887
(dp1888
g7
Nsg8
Nsg9
V\u6625\u5206\u306e\u65e5
p1889
sg11
Nsg12
I2007
sg13
I3
sg14
Nsg15
Nsg16
I21
sbag2
(g3
g4
NtRp1890
(dp1891
g7
Nsg8
Nsg9
V\u662d\u548c\u306e\u65e5
p1892
sg11
Nsg12
I2007
sg13
I4
sg14
Nsg15
Nsg16
I29
sbag2
(g3
g4
NtRp1893
(dp1894
g7
Nsg8
Nsg9
V\u632f\u66ff\u4f11\u65e5
p1895
sg11
Nsg12
I2007
sg13
I4
sg14
Nsg15
Nsg16
I30
sbag2
(g3
g4
NtRp1896
(dp1897
g7
Nsg8
Nsg9
V\u61b2\u6cd5\u8a18\u5ff5\u65e5
p1898
sg11
Nsg12
I2007
sg13
I5
sg14
Nsg15
Nsg16
I3
sbag2
(g3
g4
NtRp1899
(dp1900
g7
Nsg8
Nsg9
V\u307f\u3069\u308a\u306e\u65e5
p1901
sg11
Nsg12
I2007
sg13
I5
sg14
Nsg15
Nsg16
I4
sbag2
(g3
g4
NtRp1902
(dp1903
g7
Nsg8
Nsg9
V\u3053\u3069\u3082\u306e\u65e5
p1904
sg11
Nsg12
I2007
sg13
I5
sg14
Nsg15
Nsg16
I5
sbag2
(g3
g4
NtRp1905
(dp1906
g7
Nsg8
Nsg9
V\u6d77\u306e\u65e5
p1907
sg11
Nsg12
I2007
sg13
I7
sg14
Nsg15
Nsg16
I16
sbag2
(g3
g4
NtRp1908
(dp1909
g7
Nsg8
Nsg9
V\u656c\u8001\u306e\u65e5
p1910
sg11
Nsg12
I2007
sg13
I9
sg14
Nsg15
Nsg16
I17
sbag2
(g3
g4
NtRp1911
(dp1912
g7
Nsg8
Nsg9
V\u79cb\u5206\u306e\u65e5
p1913
sg11
Nsg12
I2007
sg13
I9
sg14
Nsg15
Nsg16
I23
sbag2
(g3
g4
NtRp1914
(dp1915
g7
Nsg8
Nsg9
V\u632f\u66ff\u4f11\u65e5
p1916
sg11
Nsg12
I2007
sg13
I9
sg14
Nsg15
Nsg16
I24
sbag2
(g3
g4
NtRp1917
(dp1918
g7
Nsg8
Nsg9
V\u4f53\u80b2\u306e\u65e5
p1919
sg11
Nsg12
I2007
sg13
I10
sg14
Nsg15
Nsg16
I8
sbag2
(g3
g4
NtRp1920
(dp1921
g7
Nsg8
Nsg9
V\u6587\u5316\u306e\u65e5
p1922
sg11
Nsg12
I2007
sg13
I11
sg14
Nsg15
Nsg16
I3
sbag2
(g3
g4
NtRp1923
(dp1924
g7
Nsg8
Nsg9
V\u52e4\u52b4\u611f\u8b1d\u306e\u65e5
p1925
sg11
Nsg12
I2007
sg13
I11
sg14
Nsg15
Nsg16
I23
sbag2
(g3
g4
NtRp1926
(dp1927
g7
Nsg8
Nsg9
V\u5929\u7687\u8a95\u751f\u65e5
p1928
sg11
Nsg12
I2007
sg13
I12
sg14
Nsg15
Nsg16
I23
sbag2
(g3
g4
NtRp1929
(dp1930
g7
Nsg8
Nsg9
V\u632f\u66ff\u4f11\u65e5
p1931
sg11
Nsg12
I2007
sg13
I12
sg14
Nsg15
Nsg16
I24
sbag2
(g3
g4
NtRp1932
(dp1933
g7
Nsg8
Nsg9
g19
sg11
Nsg12
I2007
sg13
I12
sg14
Nsg15
Nsg16
I31
sbag2
(g3
g4
NtRp1934
(dp1935
g7
Nsg8
Nsg9
V\u5143\u65e5
p1936
sg11
Nsg12
I2008
sg13
I1
sg14
Nsg15
Nsg16
I1
sbag2
(g3
g4
NtRp1937
(dp1938
g7
Nsg8
Nsg9
g19
sg11
Nsg12
I2008
sg13
I1
sg14
Nsg15
Nsg16
I2
sbag2
(g3
g4
NtRp1939
(dp1940
g7
Nsg8
Nsg9
g19
sg11
Nsg12
I2008
sg13
I1
sg14
Nsg15
Nsg16
I3
sbag2
(g3
g4
NtRp1941
(dp1942
g7
Nsg8
Nsg9
V\u6210\u4eba\u306e\u65e5
p1943
sg11
Nsg12
I2008
sg13
I1
sg14
Nsg15
Nsg16
I14
sbag2
(g3
g4
NtRp1944
(dp1945
g7
Nsg8
Nsg9
V\u5efa\u56fd\u8a18\u5ff5\u306e\u65e5
p1946
sg11
Nsg12
I2008
sg13
I2
sg14
Nsg15
Nsg16
I11
sbag2
(g3
g4
NtRp1947
(dp1948
g7
Nsg8
Nsg9
V\u6625\u5206\u306e\u65e5
p1949
sg11
Nsg12
I2008
sg13
I3
sg14
Nsg15
Nsg16
I20
sbag2
(g3
g4
NtRp1950
(dp1951
g7
Nsg8
Nsg9
V\u662d\u548c\u306e\u65e5
p1952
sg11
Nsg12
I2008
sg13
I4
sg14
Nsg15
Nsg16
I29
sbag2
(g3
g4
NtRp1953
(dp1954
g7
Nsg8
Nsg9
V\u61b2\u6cd5\u8a18\u5ff5\u65e5
p1955
sg11
Nsg12
I2008
sg13
I5
sg14
Nsg15
Nsg16
I3
sbag2
(g3
g4
NtRp1956
(dp1957
g7
Nsg8
Nsg9
V\u307f\u3069\u308a\u306e\u65e5
p1958
sg11
Nsg12
I2008
sg13
I5
sg14
Nsg15
Nsg16
I4
sbag2
(g3
g4
NtRp1959
(dp1960
g7
Nsg8
Nsg9
V\u3053\u3069\u3082\u306e\u65e5
p1961
sg11
Nsg12
I2008
sg13
I5
sg14
Nsg15
Nsg16
I5
sbag2
(g3
g4
NtRp1962
(dp1963
g7
Nsg8
Nsg9
V\u632f\u66ff\u4f11\u65e5
p1964
sg11
Nsg12
I2008
sg13
I5
sg14
Nsg15
Nsg16
I6
sbag2
(g3
g4
NtRp1965
(dp1966
g7
Nsg8
Nsg9
V\u6d77\u306e\u65e5
p1967
sg11
Nsg12
I2008
sg13
I7
sg14
Nsg15
Nsg16
I21
sbag2
(g3
g4
NtRp1968
(dp1969
g7
Nsg8
Nsg9
V\u656c\u8001\u306e\u65e5
p1970
sg11
Nsg12
I2008
sg13
I9
sg14
Nsg15
Nsg16
I15
sbag2
(g3
g4
NtRp1971
(dp1972
g7
Nsg8
Nsg9
V\u79cb\u5206\u306e\u65e5
p1973
sg11
Nsg12
I2008
sg13
I9
sg14
Nsg15
Nsg16
I23
sbag2
(g3
g4
NtRp1974
(dp1975
g7
Nsg8
Nsg9
V\u4f53\u80b2\u306e\u65e5
p1976
sg11
Nsg12
I2008
sg13
I10
sg14
Nsg15
Nsg16
I13
sbag2
(g3
g4
NtRp1977
(dp1978
g7
Nsg8
Nsg9
V\u6587\u5316\u306e\u65e5
p1979
sg11
Nsg12
I2008
sg13
I11
sg14
Nsg15
Nsg16
I3
sbag2
(g3
g4
NtRp1980
(dp1981
g7
Nsg8
Nsg9
V\u52e4\u52b4\u611f\u8b1d\u306e\u65e5
p1982
sg11
Nsg12
I2008
sg13
I11
sg14
Nsg15
Nsg16
I23
sbag2
(g3
g4
NtRp1983
(dp1984
g7
Nsg8
Nsg9
V\u632f\u66ff\u4f11\u65e5
p1985
sg11
Nsg12
I2008
sg13
I11
sg14
Nsg15
Nsg16
I24
sbag2
(g3
g4
NtRp1986
(dp1987
g7
Nsg8
Nsg9
V\u5929\u7687\u8a95\u751f\u65e5
p1988
sg11
Nsg12
I2008
sg13
I12
sg14
Nsg15
Nsg16
I23
sbag2
(g3
g4
NtRp1989
(dp1990
g7
Nsg8
Nsg9
g19
sg11
Nsg12
I2008
sg13
I12
sg14
Nsg15
Nsg16
I31
sbag2
(g3
g4
NtRp1991
(dp1992
g7
Nsg8
Nsg9
V\u5143\u65e5
p1993
sg11
Nsg12
I2009
sg13
I1
sg14
Nsg15
Nsg16
I1
sbag2
(g3
g4
NtRp1994
(dp1995
g7
Nsg8
Nsg9
g19
sg11
Nsg12
I2009
sg13
I1
sg14
Nsg15
Nsg16
I2
sbag2
(g3
g4
NtRp1996
(dp1997
g7
Nsg8
Nsg9
g19
sg11
Nsg12
I2009
sg13
I1
sg14
Nsg15
Nsg16
I3
sbag2
(g3
g4
NtRp1998
(dp1999
g7
Nsg8
Nsg9
V\u6210\u4eba\u306e\u65e5
p2000
sg11
Nsg12
I2009
sg13
I1
sg14
Nsg15
Nsg16
I12
sbag2
(g3
g4
NtRp2001
(dp2002
g7
Nsg8
Nsg9
V\u5efa\u56fd\u8a18\u5ff5\u306e\u65e5
p2003
sg11
Nsg12
I2009
sg13
I2
sg14
Nsg15
Nsg16
I11
sbag2
(g3
g4
NtRp2004
(dp2005
g7
Nsg8
Nsg9
V\u6625\u5206\u306e\u65e5
p2006
sg11
Nsg12
I2009
sg13
I3
sg14
Nsg15
Nsg16
I20
sbag2
(g3
g4
NtRp2007
(dp2008
g7
Nsg8
Nsg9
V\u662d\u548c\u306e\u65e5
p2009
sg11
Nsg12
I2009
sg13
I4
sg14
Nsg15
Nsg16
I29
sbag2
(g3
g4
NtRp2010
(dp2011
g7
Nsg8
Nsg9
V\u61b2\u6cd5\u8a18\u5ff5\u65e5
p2012
sg11
Nsg12
I2009
sg13
I5
sg14
Nsg15
Nsg16
I3
sbag2
(g3
g4
NtRp2013
(dp2014
g7
Nsg8
Nsg9
V\u307f\u3069\u308a\u306e\u65e5
p2015
sg11
Nsg12
I2009
sg13
I5
sg14
Nsg15
Nsg16
I4
sbag2
(g3
g4
NtRp2016
(dp2017
g7
Nsg8
Nsg9
V\u3053\u3069\u3082\u306e\u65e5
p2018
sg11
Nsg12
I2009
sg13
I5
sg14
Nsg15
Nsg16
I5
sbag2
(g3
g4
NtRp2019
(dp2020
g7
Nsg8
Nsg9
V\u632f\u66ff\u4f11\u65e5
p2021
sg11
Nsg12
I2009
sg13
I5
sg14
Nsg15
Nsg16
I6
sbag2
(g3
g4
NtRp2022
(dp2023
g7
Nsg8
Nsg9
V\u6d77\u306e\u65e5
p2024
sg11
Nsg12
I2009
sg13
I7
sg14
Nsg15
Nsg16
I20
sbag2
(g3
g4
NtRp2025
(dp2026
g7
Nsg8
Nsg9
V\u656c\u8001\u306e\u65e5
p2027
sg11
Nsg12
I2009
sg13
I9
sg14
Nsg15
Nsg16
I21
sbag2
(g3
g4
NtRp2028
(dp2029
g7
Nsg8
Nsg9
V\u56fd\u6c11\u306e\u4f11\u65e5
p2030
sg11
Nsg12
I2009
sg13
I9
sg14
Nsg15
Nsg16
I22
sbag2
(g3
g4
NtRp2031
(dp2032
g7
Nsg8
Nsg9
V\u79cb\u5206\u306e\u65e5
p2033
sg11
Nsg12
I2009
sg13
I9
sg14
Nsg15
Nsg16
I23
sbag2
(g3
g4
NtRp2034
(dp2035
g7
Nsg8
Nsg9
V\u4f53\u80b2\u306e\u65e5
p2036
sg11
Nsg12
I2009
sg13
I10
sg14
Nsg15
Nsg16
I12
sbag2
(g3
g4
NtRp2037
(dp2038
g7
Nsg8
Nsg9
V\u6587\u5316\u306e\u65e5
p2039
sg11
Nsg12
I2009
sg13
I11
sg14
Nsg15
Nsg16
I3
sbag2
(g3
g4
NtRp2040
(dp2041
g7
Nsg8
Nsg9
V\u52e4\u52b4\u611f\u8b1d\u306e\u65e5
p2042
sg11
Nsg12
I2009
sg13
I11
sg14
Nsg15
Nsg16
I23
sbag2
(g3
g4
NtRp2043
(dp2044
g7
Nsg8
Nsg9
V\u5929\u7687\u8a95\u751f\u65e5
p2045
sg11
Nsg12
I2009
sg13
I12
sg14
Nsg15
Nsg16
I23
sbag2
(g3
g4
NtRp2046
(dp2047
g7
Nsg8
Nsg9
g19
sg11
Nsg12
I2009
sg13
I12
sg14
Nsg15
Nsg16
I31
sbag2
(g3
g4
NtRp2048
(dp2049
g7
Nsg8
Nsg9
V\u5143\u65e5
p2050
sg11
Nsg12
I2010
sg13
I1
sg14
Nsg15
Nsg16
I1
sbag2
(g3
g4
NtRp2051
(dp2052
g7
Nsg8
Nsg9
g19
sg11
Nsg12
I2010
sg13
I1
sg14
Nsg15
Nsg16
I2
sbag2
(g3
g4
NtRp2053
(dp2054
g7
Nsg8
Nsg9
g19
sg11
Nsg12
I2010
sg13
I1
sg14
Nsg15
Nsg16
I3
sbag2
(g3
g4
NtRp2055
(dp2056
g7
Nsg8
Nsg9
V\u6210\u4eba\u306e\u65e5
p2057
sg11
Nsg12
I2010
sg13
I1
sg14
Nsg15
Nsg16
I11
sbag2
(g3
g4
NtRp2058
(dp2059
g7
Nsg8
Nsg9
V\u5efa\u56fd\u8a18\u5ff5\u306e\u65e5
p2060
sg11
Nsg12
I2010
sg13
I2
sg14
Nsg15
Nsg16
I11
sbag2
(g3
g4
NtRp2061
(dp2062
g7
Nsg8
Nsg9
V\u6625\u5206\u306e\u65e5
p2063
sg11
Nsg12
I2010
sg13
I3
sg14
Nsg15
Nsg16
I21
sbag2
(g3
g4
NtRp2064
(dp2065
g7
Nsg8
Nsg9
V\u632f\u66ff\u4f11\u65e5
p2066
sg11
Nsg12
I2010
sg13
I3
sg14
Nsg15
Nsg16
I22
sbag2
(g3
g4
NtRp2067
(dp2068
g7
Nsg8
Nsg9
V\u662d\u548c\u306e\u65e5
p2069
sg11
Nsg12
I2010
sg13
I4
sg14
Nsg15
Nsg16
I29
sbag2
(g3
g4
NtRp2070
(dp2071
g7
Nsg8
Nsg9
V\u61b2\u6cd5\u8a18\u5ff5\u65e5
p2072
sg11
Nsg12
I2010
sg13
I5
sg14
Nsg15
Nsg16
I3
sbag2
(g3
g4
NtRp2073
(dp2074
g7
Nsg8
Nsg9
V\u307f\u3069\u308a\u306e\u65e5
p2075
sg11
Nsg12
I2010
sg13
I5
sg14
Nsg15
Nsg16
I4
sbag2
(g3
g4
NtRp2076
(dp2077
g7
Nsg8
Nsg9
V\u3053\u3069\u3082\u306e\u65e5
p2078
sg11
Nsg12
I2010
sg13
I5
sg14
Nsg15
Nsg16
I5
sbag2
(g3
g4
NtRp2079
(dp2080
g7
Nsg8
Nsg9
V\u6d77\u306e\u65e5
p2081
sg11
Nsg12
I2010
sg13
I7
sg14
Nsg15
Nsg16
I19
sbag2
(g3
g4
NtRp2082
(dp2083
g7
Nsg8
Nsg9
V\u656c\u8001\u306e\u65e5
p2084
sg11
Nsg12
I2010
sg13
I9
sg14
Nsg15
Nsg16
I20
sbag2
(g3
g4
NtRp2085
(dp2086
g7
Nsg8
Nsg9
V\u79cb\u5206\u306e\u65e5
p2087
sg11
Nsg12
I2010
sg13
I9
sg14
Nsg15
Nsg16
I23
sbag2
(g3
g4
NtRp2088
(dp2089
g7
Nsg8
Nsg9
V\u4f53\u80b2\u306e\u65e5
p2090
sg11
Nsg12
I2010
sg13
I10
sg14
Nsg15
Nsg16
I11
sbag2
(g3
g4
NtRp2091
(dp2092
g7
Nsg8
Nsg9
V\u6587\u5316\u306e\u65e5
p2093
sg11
Nsg12
I2010
sg13
I11
sg14
Nsg15
Nsg16
I3
sbag2
(g3
g4
NtRp2094
(dp2095
g7
Nsg8
Nsg9
V\u52e4\u52b4\u611f\u8b1d\u306e\u65e5
p2096
sg11
Nsg12
I2010
sg13
I11
sg14
Nsg15
Nsg16
I23
sbag2
(g3
g4
NtRp2097
(dp2098
g7
Nsg8
Nsg9
V\u5929\u7687\u8a95\u751f\u65e5
p2099
sg11
Nsg12
I2010
sg13
I12
sg14
Nsg15
Nsg16
I23
sbag2
(g3
g4
NtRp2100
(dp2101
g7
Nsg8
Nsg9
g19
sg11
Nsg12
I2010
sg13
I12
sg14
Nsg15
Nsg16
I31
sbag2
(g3
g4
NtRp2102
(dp2103
g7
Nsg8
Nsg9
V\u5143\u65e5
p2104
sg11
Nsg12
I2011
sg13
I1
sg14
Nsg15
Nsg16
I1
sbag2
(g3
g4
NtRp2105
(dp2106
g7
Nsg8
Nsg9
g19
sg11
Nsg12
I2011
sg13
I1
sg14
Nsg15
Nsg16
I2
sbag2
(g3
g4
NtRp2107
(dp2108
g7
Nsg8
Nsg9
g19
sg11
Nsg12
I2011
sg13
I1
sg14
Nsg15
Nsg16
I3
sbag2
(g3
g4
NtRp2109
(dp2110
g7
Nsg8
Nsg9
V\u6210\u4eba\u306e\u65e5
p2111
sg11
Nsg12
I2011
sg13
I1
sg14
Nsg15
Nsg16
I10
sbag2
(g3
g4
NtRp2112
(dp2113
g7
Nsg8
Nsg9
V\u5efa\u56fd\u8a18\u5ff5\u306e\u65e5
p2114
sg11
Nsg12
I2011
sg13
I2
sg14
Nsg15
Nsg16
I11
sbag2
(g3
g4
NtRp2115
(dp2116
g7
Nsg8
Nsg9
V\u6625\u5206\u306e\u65e5
p2117
sg11
Nsg12
I2011
sg13
I3
sg14
Nsg15
Nsg16
I21
sbag2
(g3
g4
NtRp2118
(dp2119
g7
Nsg8
Nsg9
V\u662d\u548c\u306e\u65e5
p2120
sg11
Nsg12
I2011
sg13
I4
sg14
Nsg15
Nsg16
I29
sbag2
(g3
g4
NtRp2121
(dp2122
g7
Nsg8
Nsg9
V\u61b2\u6cd5\u8a18\u5ff5\u65e5
p2123
sg11
Nsg12
I2011
sg13
I5
sg14
Nsg15
Nsg16
I3
sbag2
(g3
g4
NtRp2124
(dp2125
g7
Nsg8
Nsg9
V\u307f\u3069\u308a\u306e\u65e5
p2126
sg11
Nsg12
I2011
sg13
I5
sg14
Nsg15
Nsg16
I4
sbag2
(g3
g4
NtRp2127
(dp2128
g7
Nsg8
Nsg9
V\u3053\u3069\u3082\u306e\u65e5
p2129
sg11
Nsg12
I2011
sg13
I5
sg14
Nsg15
Nsg16
I5
sbag2
(g3
g4
NtRp2130
(dp2131
g7
Nsg8
Nsg9
V\u6d77\u306e\u65e5
p2132
sg11
Nsg12
I2011
sg13
I7
sg14
Nsg15
Nsg16
I18
sbag2
(g3
g4
NtRp2133
(dp2134
g7
Nsg8
Nsg9
V\u656c\u8001\u306e\u65e5
p2135
sg11
Nsg12
I2011
sg13
I9
sg14
Nsg15
Nsg16
I19
sbag2
(g3
g4
NtRp2136
(dp2137
g7
Nsg8
Nsg9
V\u79cb\u5206\u306e\u65e5
p2138
sg11
Nsg12
I2011
sg13
I9
sg14
Nsg15
Nsg16
I23
sbag2
(g3
g4
NtRp2139
(dp2140
g7
Nsg8
Nsg9
V\u4f53\u80b2\u306e\u65e5
p2141
sg11
Nsg12
I2011
sg13
I10
sg14
Nsg15
Nsg16
I10
sbag2
(g3
g4
NtRp2142
(dp2143
g7
Nsg8
Nsg9
V\u6587\u5316\u306e\u65e5
p2144
sg11
Nsg12
I2011
sg13
I11
sg14
Nsg15
Nsg16
I3
sbag2
(g3
g4
NtRp2145
(dp2146
g7
Nsg8
Nsg9
V\u52e4\u52b4\u611f\u8b1d\u306e\u65e5
p2147
sg11
Nsg12
I2011
sg13
I11
sg14
Nsg15
Nsg16
I23
sbag2
(g3
g4
NtRp2148
(dp2149
g7
Nsg8
Nsg9
V\u5929\u7687\u8a95\u751f\u65e5
p2150
sg11
Nsg12
I2011
sg13
I12
sg14
Nsg15
Nsg16
I23
sbag2
(g3
g4
NtRp2151
(dp2152
g7
Nsg8
Nsg9
g19
sg11
Nsg12
I2011
sg13
I12
sg14
Nsg15
Nsg16
I31
sbag2
(g3
g4
NtRp2153
(dp2154
g7
Nsg8
Nsg9
V\u5143\u65e5
p2155
sg11
Nsg12
I2012
sg13
I1
sg14
Nsg15
Nsg16
I1
sbag2
(g3
g4
NtRp2156
(dp2157
g7
Nsg8
Nsg9
V\u632f\u66ff\u4f11\u65e5
p2158
sg11
Nsg12
I2012
sg13
I1
sg14
Nsg15
Nsg16
I2
sbag2
(g3
g4
NtRp2159
(dp2160
g7
Nsg8
Nsg9
g19
sg11
Nsg12
I2012
sg13
I1
sg14
Nsg15
Nsg16
I3
sbag2
(g3
g4
NtRp2161
(dp2162
g7
Nsg8
Nsg9
V\u6210\u4eba\u306e\u65e5
p2163
sg11
Nsg12
I2012
sg13
I1
sg14
Nsg15
Nsg16
I9
sbag2
(g3
g4
NtRp2164
(dp2165
g7
Nsg8
Nsg9
V\u5efa\u56fd\u8a18\u5ff5\u306e\u65e5
p2166
sg11
Nsg12
I2012
sg13
I2
sg14
Nsg15
Nsg16
I11
sbag2
(g3
g4
NtRp2167
(dp2168
g7
Nsg8
Nsg9
V\u6625\u5206\u306e\u65e5
p2169
sg11
Nsg12
I2012
sg13
I3
sg14
Nsg15
Nsg16
I20
sbag2
(g3
g4
NtRp2170
(dp2171
g7
Nsg8
Nsg9
V\u662d\u548c\u306e\u65e5
p2172
sg11
Nsg12
I2012
sg13
I4
sg14
Nsg15
Nsg16
I29
sbag2
(g3
g4
NtRp2173
(dp2174
g7
Nsg8
Nsg9
V\u632f\u66ff\u4f11\u65e5
p2175
sg11
Nsg12
I2012
sg13
I4
sg14
Nsg15
Nsg16
I30
sbag2
(g3
g4
NtRp2176
(dp2177
g7
Nsg8
Nsg9
V\u61b2\u6cd5\u8a18\u5ff5\u65e5
p2178
sg11
Nsg12
I2012
sg13
I5
sg14
Nsg15
Nsg16
I3
sbag2
(g3
g4
NtRp2179
(dp2180
g7
Nsg8
Nsg9
V\u307f\u3069\u308a\u306e\u65e5
p2181
sg11
Nsg12
I2012
sg13
I5
sg14
Nsg15
Nsg16
I4
sbag2
(g3
g4
NtRp2182
(dp2183
g7
Nsg8
Nsg9
V\u3053\u3069\u3082\u306e\u65e5
p2184
sg11
Nsg12
I2012
sg13
I5
sg14
Nsg15
Nsg16
I5
sbag2
(g3
g4
NtRp2185
(dp2186
g7
Nsg8
Nsg9
V\u6d77\u306e\u65e5
p2187
sg11
Nsg12
I2012
sg13
I7
sg14
Nsg15
Nsg16
I16
sbag2
(g3
g4
NtRp2188
(dp2189
g7
Nsg8
Nsg9
V\u656c\u8001\u306e\u65e5
p2190
sg11
Nsg12
I2012
sg13
I9
sg14
Nsg15
Nsg16
I17
sbag2
(g3
g4
NtRp2191
(dp2192
g7
Nsg8
Nsg9
V\u79cb\u5206\u306e\u65e5
p2193
sg11
Nsg12
I2012
sg13
I9
sg14
Nsg15
Nsg16
I22
sbag2
(g3
g4
NtRp2194
(dp2195
g7
Nsg8
Nsg9
V\u4f53\u80b2\u306e\u65e5
p2196
sg11
Nsg12
I2012
sg13
I10
sg14
Nsg15
Nsg16
I8
sbag2
(g3
g4
NtRp2197
(dp2198
g7
Nsg8
Nsg9
V\u6587\u5316\u306e\u65e5
p2199
sg11
Nsg12
I2012
sg13
I11
sg14
Nsg15
Nsg16
I3
sbag2
(g3
g4
NtRp2200
(dp2201
g7
Nsg8
Nsg9
V\u52e4\u52b4\u611f\u8b1d\u306e\u65e5
p2202
sg11
Nsg12
I2012
sg13
I11
sg14
Nsg15
Nsg16
I23
sbag2
(g3
g4
NtRp2203
(dp2204
g7
Nsg8
Nsg9
V\u5929\u7687\u8a95\u751f\u65e5
p2205
sg11
Nsg12
I2012
sg13
I12
sg14
Nsg15
Nsg16
I23
sbag2
(g3
g4
NtRp2206
(dp2207
g7
Nsg8
Nsg9
V\u632f\u66ff\u4f11\u65e5
p2208
sg11
Nsg12
I2012
sg13
I12
sg14
Nsg15
Nsg16
I24
sbag2
(g3
g4
NtRp2209
(dp2210
g7
Nsg8
Nsg9
g19
sg11
Nsg12
I2012
sg13
I12
sg14
Nsg15
Nsg16
I31
sbag2
(g3
g4
NtRp2211
(dp2212
g7
Nsg8
Nsg9
V\u5143\u65e5
p2213
sg11
Nsg12
I2013
sg13
I1
sg14
Nsg15
Nsg16
I1
sbag2
(g3
g4
NtRp2214
(dp2215
g7
Nsg8
Nsg9
g19
sg11
Nsg12
I2013
sg13
I1
sg14
Nsg15
Nsg16
I2
sbag2
(g3
g4
NtRp2216
(dp2217
g7
Nsg8
Nsg9
g19
sg11
Nsg12
I2013
sg13
I1
sg14
Nsg15
Nsg16
I3
sbag2
(g3
g4
NtRp2218
(dp2219
g7
Nsg8
Nsg9
V\u6210\u4eba\u306e\u65e5
p2220
sg11
Nsg12
I2013
sg13
I1
sg14
Nsg15
Nsg16
I14
sbag2
(g3
g4
NtRp2221
(dp2222
g7
Nsg8
Nsg9
V\u5efa\u56fd\u8a18\u5ff5\u306e\u65e5
p2223
sg11
Nsg12
I2013
sg13
I2
sg14
Nsg15
Nsg16
I11
sbag2
(g3
g4
NtRp2224
(dp2225
g7
Nsg8
Nsg9
V\u6625\u5206\u306e\u65e5
p2226
sg11
Nsg12
I2013
sg13
I3
sg14
Nsg15
Nsg16
I20
sbag2
(g3
g4
NtRp2227
(dp2228
g7
Nsg8
Nsg9
V\u662d\u548c\u306e\u65e5
p2229
sg11
Nsg12
I2013
sg13
I4
sg14
Nsg15
Nsg16
I29
sbag2
(g3
g4
NtRp2230
(dp2231
g7
Nsg8
Nsg9
V\u61b2\u6cd5\u8a18\u5ff5\u65e5
p2232
sg11
Nsg12
I2013
sg13
I5
sg14
Nsg15
Nsg16
I3
sbag2
(g3
g4
NtRp2233
(dp2234
g7
Nsg8
Nsg9
V\u307f\u3069\u308a\u306e\u65e5
p2235
sg11
Nsg12
I2013
sg13
I5
sg14
Nsg15
Nsg16
I4
sbag2
(g3
g4
NtRp2236
(dp2237
g7
Nsg8
Nsg9
V\u3053\u3069\u3082\u306e\u65e5
p2238
sg11
Nsg12
I2013
sg13
I5
sg14
Nsg15
Nsg16
I5
sbag2
(g3
g4
NtRp2239
(dp2240
g7
Nsg8
Nsg9
V\u632f\u66ff\u4f11\u65e5
p2241
sg11
Nsg12
I2013
sg13
I5
sg14
Nsg15
Nsg16
I6
sbag2
(g3
g4
NtRp2242
(dp2243
g7
Nsg8
Nsg9
V\u6d77\u306e\u65e5
p2244
sg11
Nsg12
I2013
sg13
I7
sg14
Nsg15
Nsg16
I15
sbag2
(g3
g4
NtRp2245
(dp2246
g7
Nsg8
Nsg9
V\u656c\u8001\u306e\u65e5
p2247
sg11
Nsg12
I2013
sg13
I9
sg14
Nsg15
Nsg16
I16
sbag2
(g3
g4
NtRp2248
(dp2249
g7
Nsg8
Nsg9
V\u79cb\u5206\u306e\u65e5
p2250
sg11
Nsg12
I2013
sg13
I9
sg14
Nsg15
Nsg16
I23
sbag2
(g3
g4
NtRp2251
(dp2252
g7
Nsg8
Nsg9
V\u4f53\u80b2\u306e\u65e5
p2253
sg11
Nsg12
I2013
sg13
I10
sg14
Nsg15
Nsg16
I14
sbag2
(g3
g4
NtRp2254
(dp2255
g7
Nsg8
Nsg9
V\u6587\u5316\u306e\u65e5
p2256
sg11
Nsg12
I2013
sg13
I11
sg14
Nsg15
Nsg16
I3
sbag2
(g3
g4
NtRp2257
(dp2258
g7
Nsg8
Nsg9
V\u632f\u66ff\u4f11\u65e5
p2259
sg11
Nsg12
I2013
sg13
I11
sg14
Nsg15
Nsg16
I4
sbag2
(g3
g4
NtRp2260
(dp2261
g7
Nsg8
Nsg9
V\u52e4\u52b4\u611f\u8b1d\u306e\u65e5
p2262
sg11
Nsg12
I2013
sg13
I11
sg14
Nsg15
Nsg16
I23
sbag2
(g3
g4
NtRp2263
(dp2264
g7
Nsg8
Nsg9
V\u5929\u7687\u8a95\u751f\u65e5
p2265
sg11
Nsg12
I2013
sg13
I12
sg14
Nsg15
Nsg16
I23
sbag2
(g3
g4
NtRp2266
(dp2267
g7
Nsg8
Nsg9
g19
sg11
Nsg12
I2013
sg13
I12
sg14
Nsg15
Nsg16
I31
sbag2
(g3
g4
NtRp2268
(dp2269
g7
Nsg8
Nsg9
V\u5143\u65e5
p2270
sg11
Nsg12
I2014
sg13
I1
sg14
Nsg15
Nsg16
I1
sbag2
(g3
g4
NtRp2271
(dp2272
g7
Nsg8
Nsg9
g19
sg11
Nsg12
I2014
sg13
I1
sg14
Nsg15
Nsg16
I2
sbag2
(g3
g4
NtRp2273
(dp2274
g7
Nsg8
Nsg9
g19
sg11
Nsg12
I2014
sg13
I1
sg14
Nsg15
Nsg16
I3
sbag2
(g3
g4
NtRp2275
(dp2276
g7
Nsg8
Nsg9
V\u6210\u4eba\u306e\u65e5
p2277
sg11
Nsg12
I2014
sg13
I1
sg14
Nsg15
Nsg16
I13
sbag2
(g3
g4
NtRp2278
(dp2279
g7
Nsg8
Nsg9
V\u5efa\u56fd\u8a18\u5ff5\u306e\u65e5
p2280
sg11
Nsg12
I2014
sg13
I2
sg14
Nsg15
Nsg16
I11
sbag2
(g3
g4
NtRp2281
(dp2282
g7
Nsg8
Nsg9
V\u6625\u5206\u306e\u65e5
p2283
sg11
Nsg12
I2014
sg13
I3
sg14
Nsg15
Nsg16
I21
sbag2
(g3
g4
NtRp2284
(dp2285
g7
Nsg8
Nsg9
V\u662d\u548c\u306e\u65e5
p2286
sg11
Nsg12
I2014
sg13
I4
sg14
Nsg15
Nsg16
I29
sbag2
(g3
g4
NtRp2287
(dp2288
g7
Nsg8
Nsg9
V\u61b2\u6cd5\u8a18\u5ff5\u65e5
p2289
sg11
Nsg12
I2014
sg13
I5
sg14
Nsg15
Nsg16
I3
sbag2
(g3
g4
NtRp2290
(dp2291
g7
Nsg8
Nsg9
V\u307f\u3069\u308a\u306e\u65e5
p2292
sg11
Nsg12
I2014
sg13
I5
sg14
Nsg15
Nsg16
I4
sbag2
(g3
g4
NtRp2293
(dp2294
g7
Nsg8
Nsg9
V\u3053\u3069\u3082\u306e\u65e5
p2295
sg11
Nsg12
I2014
sg13
I5
sg14
Nsg15
Nsg16
I5
sbag2
(g3
g4
NtRp2296
(dp2297
g7
Nsg8
Nsg9
V\u632f\u66ff\u4f11\u65e5
p2298
sg11
Nsg12
I2014
sg13
I5
sg14
Nsg15
Nsg16
I6
sbag2
(g3
g4
NtRp2299
(dp2300
g7
Nsg8
Nsg9
V\u6d77\u306e\u65e5
p2301
sg11
Nsg12
I2014
sg13
I7
sg14
Nsg15
Nsg16
I21
sbag2
(g3
g4
NtRp2302
(dp2303
g7
Nsg8
Nsg9
V\u656c\u8001\u306e\u65e5
p2304
sg11
Nsg12
I2014
sg13
I9
sg14
Nsg15
Nsg16
I15
sbag2
(g3
g4
NtRp2305
(dp2306
g7
Nsg8
Nsg9
V\u79cb\u5206\u306e\u65e5
p2307
sg11
Nsg12
I2014
sg13
I9
sg14
Nsg15
Nsg16
I23
sbag2
(g3
g4
NtRp2308
(dp2309
g7
Nsg8
Nsg9
V\u4f53\u80b2\u306e\u65e5
p2310
sg11
Nsg12
I2014
sg13
I10
sg14
Nsg15
Nsg16
I13
sbag2
(g3
g4
NtRp2311
(dp2312
g7
Nsg8
Nsg9
V\u6587\u5316\u306e\u65e5
p2313
sg11
Nsg12
I2014
sg13
I11
sg14
Nsg15
Nsg16
I3
sbag2
(g3
g4
NtRp2314
(dp2315
g7
Nsg8
Nsg9
V\u52e4\u52b4\u611f\u8b1d\u306e\u65e5
p2316
sg11
Nsg12
I2014
sg13
I11
sg14
Nsg15
Nsg16
I23
sbag2
(g3
g4
NtRp2317
(dp2318
g7
Nsg8
Nsg9
V\u632f\u66ff\u4f11\u65e5
p2319
sg11
Nsg12
I2014
sg13
I11
sg14
Nsg15
Nsg16
I24
sbag2
(g3
g4
NtRp2320
(dp2321
g7
Nsg8
Nsg9
V\u5929\u7687\u8a95\u751f\u65e5
p2322
sg11
Nsg12
I2014
sg13
I12
sg14
Nsg15
Nsg16
I23
sbag2
(g3
g4
NtRp2323
(dp2324
g7
Nsg8
Nsg9
g19
sg11
Nsg12
I2014
sg13
I12
sg14
Nsg15
Nsg16
I31
sbag2
(g3
g4
NtRp2325
(dp2326
g7
Nsg8
Nsg9
V\u5143\u65e5
p2327
sg11
Nsg12
I2015
sg13
I1
sg14
Nsg15
Nsg16
I1
sbag2
(g3
g4
NtRp2328
(dp2329
g7
Nsg8
Nsg9
g19
sg11
Nsg12
I2015
sg13
I1
sg14
Nsg15
Nsg16
I2
sbag2
(g3
g4
NtRp2330
(dp2331
g7
Nsg8
Nsg9
g19
sg11
Nsg12
I2015
sg13
I1
sg14
Nsg15
Nsg16
I3
sbag2
(g3
g4
NtRp2332
(dp2333
g7
Nsg8
Nsg9
V\u6210\u4eba\u306e\u65e5
p2334
sg11
Nsg12
I2015
sg13
I1
sg14
Nsg15
Nsg16
I12
sbag2
(g3
g4
NtRp2335
(dp2336
g7
Nsg8
Nsg9
V\u5efa\u56fd\u8a18\u5ff5\u306e\u65e5
p2337
sg11
Nsg12
I2015
sg13
I2
sg14
Nsg15
Nsg16
I11
sbag2
(g3
g4
NtRp2338
(dp2339
g7
Nsg8
Nsg9
V\u6625\u5206\u306e\u65e5
p2340
sg11
Nsg12
I2015
sg13
I3
sg14
Nsg15
Nsg16
I21
sbag2
(g3
g4
NtRp2341
(dp2342
g7
Nsg8
Nsg9
V\u662d\u548c\u306e\u65e5
p2343
sg11
Nsg12
I2015
sg13
I4
sg14
Nsg15
Nsg16
I29
sbag2
(g3
g4
NtRp2344
(dp2345
g7
Nsg8
Nsg9
V\u61b2\u6cd5\u8a18\u5ff5\u65e5
p2346
sg11
Nsg12
I2015
sg13
I5
sg14
Nsg15
Nsg16
I3
sbag2
(g3
g4
NtRp2347
(dp2348
g7
Nsg8
Nsg9
V\u307f\u3069\u308a\u306e\u65e5
p2349
sg11
Nsg12
I2015
sg13
I5
sg14
Nsg15
Nsg16
I4
sbag2
(g3
g4
NtRp2350
(dp2351
g7
Nsg8
Nsg9
V\u3053\u3069\u3082\u306e\u65e5
p2352
sg11
Nsg12
I2015
sg13
I5
sg14
Nsg15
Nsg16
I5
sbag2
(g3
g4
NtRp2353
(dp2354
g7
Nsg8
Nsg9
V\u632f\u66ff\u4f11\u65e5
p2355
sg11
Nsg12
I2015
sg13
I5
sg14
Nsg15
Nsg16
I6
sbag2
(g3
g4
NtRp2356
(dp2357
g7
Nsg8
Nsg9
V\u6d77\u306e\u65e5
p2358
sg11
Nsg12
I2015
sg13
I7
sg14
Nsg15
Nsg16
I20
sbag2
(g3
g4
NtRp2359
(dp2360
g7
Nsg8
Nsg9
V\u656c\u8001\u306e\u65e5
p2361
sg11
Nsg12
I2015
sg13
I9
sg14
Nsg15
Nsg16
I21
sbag2
(g3
g4
NtRp2362
(dp2363
g7
Nsg8
Nsg9
V\u56fd\u6c11\u306e\u4f11\u65e5
p2364
sg11
Nsg12
I2015
sg13
I9
sg14
Nsg15
Nsg16
I22
sbag2
(g3
g4
NtRp2365
(dp2366
g7
Nsg8
Nsg9
V\u79cb\u5206\u306e\u65e5
p2367
sg11
Nsg12
I2015
sg13
I9
sg14
Nsg15
Nsg16
I23
sbag2
(g3
g4
NtRp2368
(dp2369
g7
Nsg8
Nsg9
V\u4f53\u80b2\u306e\u65e5
p2370
sg11
Nsg12
I2015
sg13
I10
sg14
Nsg15
Nsg16
I12
sbag2
(g3
g4
NtRp2371
(dp2372
g7
Nsg8
Nsg9
V\u6587\u5316\u306e\u65e5
p2373
sg11
Nsg12
I2015
sg13
I11
sg14
Nsg15
Nsg16
I3
sbag2
(g3
g4
NtRp2374
(dp2375
g7
Nsg8
Nsg9
V\u52e4\u52b4\u611f\u8b1d\u306e\u65e5
p2376
sg11
Nsg12
I2015
sg13
I11
sg14
Nsg15
Nsg16
I23
sbag2
(g3
g4
NtRp2377
(dp2378
g7
Nsg8
Nsg9
V\u5929\u7687\u8a95\u751f\u65e5
p2379
sg11
Nsg12
I2015
sg13
I12
sg14
Nsg15
Nsg16
I23
sbag2
(g3
g4
NtRp2380
(dp2381
g7
Nsg8
Nsg9
g19
sg11
Nsg12
I2015
sg13
I12
sg14
Nsg15
Nsg16
I31
sbag2
(g3
g4
NtRp2382
(dp2383
g7
Nsg8
Nsg9
V\u5143\u65e5
p2384
sg11
Nsg12
I2016
sg13
I1
sg14
Nsg15
Nsg16
I1
sbag2
(g3
g4
NtRp2385
(dp2386
g7
Nsg8
Nsg9
g19
sg11
Nsg12
I2016
sg13
I1
sg14
Nsg15
Nsg16
I2
sbag2
(g3
g4
NtRp2387
(dp2388
g7
Nsg8
Nsg9
g19
sg11
Nsg12
I2016
sg13
I1
sg14
Nsg15
Nsg16
I3
sbag2
(g3
g4
NtRp2389
(dp2390
g7
Nsg8
Nsg9
V\u6210\u4eba\u306e\u65e5
p2391
sg11
Nsg12
I2016
sg13
I1
sg14
Nsg15
Nsg16
I11
sbag2
(g3
g4
NtRp2392
(dp2393
g7
Nsg8
Nsg9
V\u5efa\u56fd\u8a18\u5ff5\u306e\u65e5
p2394
sg11
Nsg12
I2016
sg13
I2
sg14
Nsg15
Nsg16
I11
sbag2
(g3
g4
NtRp2395
(dp2396
g7
Nsg8
Nsg9
V\u6625\u5206\u306e\u65e5
p2397
sg11
Nsg12
I2016
sg13
I3
sg14
Nsg15
Nsg16
I20
sbag2
(g3
g4
NtRp2398
(dp2399
g7
Nsg8
Nsg9
V\u632f\u66ff\u4f11\u65e5
p2400
sg11
Nsg12
I2016
sg13
I3
sg14
Nsg15
Nsg16
I21
sbag2
(g3
g4
NtRp2401
(dp2402
g7
Nsg8
Nsg9
V\u662d\u548c\u306e\u65e5
p2403
sg11
Nsg12
I2016
sg13
I4
sg14
Nsg15
Nsg16
I29
sbag2
(g3
g4
NtRp2404
(dp2405
g7
Nsg8
Nsg9
V\u61b2\u6cd5\u8a18\u5ff5\u65e5
p2406
sg11
Nsg12
I2016
sg13
I5
sg14
Nsg15
Nsg16
I3
sbag2
(g3
g4
NtRp2407
(dp2408
g7
Nsg8
Nsg9
V\u307f\u3069\u308a\u306e\u65e5
p2409
sg11
Nsg12
I2016
sg13
I5
sg14
Nsg15
Nsg16
I4
sbag2
(g3
g4
NtRp2410
(dp2411
g7
Nsg8
Nsg9
V\u3053\u3069\u3082\u306e\u65e5
p2412
sg11
Nsg12
I2016
sg13
I5
sg14
Nsg15
Nsg16
I5
sbag2
(g3
g4
NtRp2413
(dp2414
g7
Nsg8
Nsg9
V\u6d77\u306e\u65e5
p2415
sg11
Nsg12
I2016
sg13
I7
sg14
Nsg15
Nsg16
I18
sbag2
(g3
g4
NtRp2416
(dp2417
g7
Nsg8
Nsg9
V\u5c71\u306e\u65e5
p2418
sg11
Nsg12
I2016
sg13
I8
sg14
Nsg15
Nsg16
I11
sbag2
(g3
g4
NtRp2419
(dp2420
g7
Nsg8
Nsg9
V\u656c\u8001\u306e\u65e5
p2421
sg11
Nsg12
I2016
sg13
I9
sg14
Nsg15
Nsg16
I19
sbag2
(g3
g4
NtRp2422
(dp2423
g7
Nsg8
Nsg9
V\u79cb\u5206\u306e\u65e5
p2424
sg11
Nsg12
I2016
sg13
I9
sg14
Nsg15
Nsg16
I22
sbag2
(g3
g4
NtRp2425
(dp2426
g7
Nsg8
Nsg9
V\u4f53\u80b2\u306e\u65e5
p2427
sg11
Nsg12
I2016
sg13
I10
sg14
Nsg15
Nsg16
I10
sbag2
(g3
g4
NtRp2428
(dp2429
g7
Nsg8
Nsg9
V\u6587\u5316\u306e\u65e5
p2430
sg11
Nsg12
I2016
sg13
I11
sg14
Nsg15
Nsg16
I3
sbag2
(g3
g4
NtRp2431
(dp2432
g7
Nsg8
Nsg9
V\u52e4\u52b4\u611f\u8b1d\u306e\u65e5
p2433
sg11
Nsg12
I2016
sg13
I11
sg14
Nsg15
Nsg16
I23
sbag2
(g3
g4
NtRp2434
(dp2435
g7
Nsg8
Nsg9
V\u5929\u7687\u8a95\u751f\u65e5
p2436
sg11
Nsg12
I2016
sg13
I12
sg14
Nsg15
Nsg16
I23
sbag2
(g3
g4
NtRp2437
(dp2438
g7
Nsg8
Nsg9
g19
sg11
Nsg12
I2016
sg13
I12
sg14
Nsg15
Nsg16
I31
sbag2
(g3
g4
NtRp2439
(dp2440
g7
Nsg8
Nsg9
V\u5143\u65e5
p2441
sg11
Nsg12
I2017
sg13
I1
sg14
Nsg15
Nsg16
I1
sbag2
(g3
g4
NtRp2442
(dp2443
g7
Nsg8
Nsg9
V\u632f\u66ff\u4f11\u65e5
p2444
sg11
Nsg12
I2017
sg13
I1
sg14
Nsg15
Nsg16
I2
sbag2
(g3
g4
NtRp2445
(dp2446
g7
Nsg8
Nsg9
g19
sg11
Nsg12
I2017
sg13
I1
sg14
Nsg15
Nsg16
I3
sbag2
(g3
g4
NtRp2447
(dp2448
g7
Nsg8
Nsg9
V\u6210\u4eba\u306e\u65e5
p2449
sg11
Nsg12
I2017
sg13
I1
sg14
Nsg15
Nsg16
I9
sbag2
(g3
g4
NtRp2450
(dp2451
g7
Nsg8
Nsg9
V\u5efa\u56fd\u8a18\u5ff5\u306e\u65e5
p2452
sg11
Nsg12
I2017
sg13
I2
sg14
Nsg15
Nsg16
I11
sbag2
(g3
g4
NtRp2453
(dp2454
g7
Nsg8
Nsg9
V\u6625\u5206\u306e\u65e5
p2455
sg11
Nsg12
I2017
sg13
I3
sg14
Nsg15
Nsg16
I20
sbag2
(g3
g4
NtRp2456
(dp2457
g7
Nsg8
Nsg9
V\u662d\u548c\u306e\u65e5
p2458
sg11
Nsg12
I2017
sg13
I4
sg14
Nsg15
Nsg16
I29
sbag2
(g3
g4
NtRp2459
(dp2460
g7
Nsg8
Nsg9
V\u61b2\u6cd5\u8a18\u5ff5\u65e5
p2461
sg11
Nsg12
I2017
sg13
I5
sg14
Nsg15
Nsg16
I3
sbag2
(g3
g4
NtRp2462
(dp2463
g7
Nsg8
Nsg9
V\u307f\u3069\u308a\u306e\u65e5
p2464
sg11
Nsg12
I2017
sg13
I5
sg14
Nsg15
Nsg16
I4
sbag2
(g3
g4
NtRp2465
(dp2466
g7
Nsg8
Nsg9
V\u3053\u3069\u3082\u306e\u65e5
p2467
sg11
Nsg12
I2017
sg13
I5
sg14
Nsg15
Nsg16
I5
sbag2
(g3
g4
NtRp2468
(dp2469
g7
Nsg8
Nsg9
V\u6d77\u306e\u65e5
p2470
sg11
Nsg12
I2017
sg13
I7
sg14
Nsg15
Nsg16
I17
sbag2
(g3
g4
NtRp2471
(dp2472
g7
Nsg8
Nsg9
V\u5c71\u306e\u65e5
p2473
sg11
Nsg12
I2017
sg13
I8
sg14
Nsg15
Nsg16
I11
sbag2
(g3
g4
NtRp2474
(dp2475
g7
Nsg8
Nsg9
V\u656c\u8001\u306e\u65e5
p2476
sg11
Nsg12
I2017
sg13
I9
sg14
Nsg15
Nsg16
I18
sbag2
(g3
g4
NtRp2477
(dp2478
g7
Nsg8
Nsg9
V\u79cb\u5206\u306e\u65e5
p2479
sg11
Nsg12
I2017
sg13
I9
sg14
Nsg15
Nsg16
I23
sbag2
(g3
g4
NtRp2480
(dp2481
g7
Nsg8
Nsg9
V\u4f53\u80b2\u306e\u65e5
p2482
sg11
Nsg12
I2017
sg13
I10
sg14
Nsg15
Nsg16
I9
sbag2
(g3
g4
NtRp2483
(dp2484
g7
Nsg8
Nsg9
V\u6587\u5316\u306e\u65e5
p2485
sg11
Nsg12
I2017
sg13
I11
sg14
Nsg15
Nsg16
I3
sbag2
(g3
g4
NtRp2486
(dp2487
g7
Nsg8
Nsg9
V\u52e4\u52b4\u611f\u8b1d\u306e\u65e5
p2488
sg11
Nsg12
I2017
sg13
I11
sg14
Nsg15
Nsg16
I23
sbag2
(g3
g4
NtRp2489
(dp2490
g7
Nsg8
Nsg9
V\u5929\u7687\u8a95\u751f\u65e5
p2491
sg11
Nsg12
I2017
sg13
I12
sg14
Nsg15
Nsg16
I23
sbag2
(g3
g4
NtRp2492
(dp2493
g7
Nsg8
Nsg9
g19
sg11
Nsg12
I2017
sg13
I12
sg14
Nsg15
Nsg16
I31
sbag2
(g3
g4
NtRp2494
(dp2495
g7
Nsg8
Nsg9
V\u5143\u65e5
p2496
sg11
Nsg12
I2018
sg13
I1
sg14
Nsg15
Nsg16
I1
sbag2
(g3
g4
NtRp2497
(dp2498
g7
Nsg8
Nsg9
g19
sg11
Nsg12
I2018
sg13
I1
sg14
Nsg15
Nsg16
I2
sbag2
(g3
g4
NtRp2499
(dp2500
g7
Nsg8
Nsg9
g19
sg11
Nsg12
I2018
sg13
I1
sg14
Nsg15
Nsg16
I3
sbag2
(g3
g4
NtRp2501
(dp2502
g7
Nsg8
Nsg9
V\u6210\u4eba\u306e\u65e5
p2503
sg11
Nsg12
I2018
sg13
I1
sg14
Nsg15
Nsg16
I8
sbag2
(g3
g4
NtRp2504
(dp2505
g7
Nsg8
Nsg9
V\u5efa\u56fd\u8a18\u5ff5\u306e\u65e5
p2506
sg11
Nsg12
I2018
sg13
I2
sg14
Nsg15
Nsg16
I11
sbag2
(g3
g4
NtRp2507
(dp2508
g7
Nsg8
Nsg9
V\u632f\u66ff\u4f11\u65e5
p2509
sg11
Nsg12
I2018
sg13
I2
sg14
Nsg15
Nsg16
I12
sbag2
(g3
g4
NtRp2510
(dp2511
g7
Nsg8
Nsg9
V\u6625\u5206\u306e\u65e5
p2512
sg11
Nsg12
I2018
sg13
I3
sg14
Nsg15
Nsg16
I21
sbag2
(g3
g4
NtRp2513
(dp2514
g7
Nsg8
Nsg9
V\u662d\u548c\u306e\u65e5
p2515
sg11
Nsg12
I2018
sg13
I4
sg14
Nsg15
Nsg16
I29
sbag2
(g3
g4
NtRp2516
(dp2517
g7
Nsg8
Nsg9
V\u632f\u66ff\u4f11\u65e5
p2518
sg11
Nsg12
I2018
sg13
I4
sg14
Nsg15
Nsg16
I30
sbag2
(g3
g4
NtRp2519
(dp2520
g7
Nsg8
Nsg9
V\u61b2\u6cd5\u8a18\u5ff5\u65e5
p2521
sg11
Nsg12
I2018
sg13
I5
sg14
Nsg15
Nsg16
I3
sbag2
(g3
g4
NtRp2522
(dp2523
g7
Nsg8
Nsg9
V\u307f\u3069\u308a\u306e\u65e5
p2524
sg11
Nsg12
I2018
sg13
I5
sg14
Nsg15
Nsg16
I4
sbag2
(g3
g4
NtRp2525
(dp2526
g7
Nsg8
Nsg9
V\u3053\u3069\u3082\u306e\u65e5
p2527
sg11
Nsg12
I2018
sg13
I5
sg14
Nsg15
Nsg16
I5
sbag2
(g3
g4
NtRp2528
(dp2529
g7
Nsg8
Nsg9
V\u6d77\u306e\u65e5
p2530
sg11
Nsg12
I2018
sg13
I7
sg14
Nsg15
Nsg16
I16
sbag2
(g3
g4
NtRp2531
(dp2532
g7
Nsg8
Nsg9
V\u5c71\u306e\u65e5
p2533
sg11
Nsg12
I2018
sg13
I8
sg14
Nsg15
Nsg16
I11
sbag2
(g3
g4
NtRp2534
(dp2535
g7
Nsg8
Nsg9
V\u656c\u8001\u306e\u65e5
p2536
sg11
Nsg12
I2018
sg13
I9
sg14
Nsg15
Nsg16
I17
sbag2
(g3
g4
NtRp2537
(dp2538
g7
Nsg8
Nsg9
V\u79cb\u5206\u306e\u65e5
p2539
sg11
Nsg12
I2018
sg13
I9
sg14
Nsg15
Nsg16
I23
sbag2
(g3
g4
NtRp2540
(dp2541
g7
Nsg8
Nsg9
V\u632f\u66ff\u4f11\u65e5
p2542
sg11
Nsg12
I2018
sg13
I9
sg14
Nsg15
Nsg16
I24
sbag2
(g3
g4
NtRp2543
(dp2544
g7
Nsg8
Nsg9
V\u4f53\u80b2\u306e\u65e5
p2545
sg11
Nsg12
I2018
sg13
I10
sg14
Nsg15
Nsg16
I8
sbag2
(g3
g4
NtRp2546
(dp2547
g7
Nsg8
Nsg9
V\u6587\u5316\u306e\u65e5
p2548
sg11
Nsg12
I2018
sg13
I11
sg14
Nsg15
Nsg16
I3
sbag2
(g3
g4
NtRp2549
(dp2550
g7
Nsg8
Nsg9
V\u52e4\u52b4\u611f\u8b1d\u306e\u65e5
p2551
sg11
Nsg12
I2018
sg13
I11
sg14
Nsg15
Nsg16
I23
sbag2
(g3
g4
NtRp2552
(dp2553
g7
Nsg8
Nsg9
V\u5929\u7687\u8a95\u751f\u65e5
p2554
sg11
Nsg12
I2018
sg13
I12
sg14
Nsg15
Nsg16
I23
sbag2
(g3
g4
NtRp2555
(dp2556
g7
Nsg8
Nsg9
V\u632f\u66ff\u4f11\u65e5
p2557
sg11
Nsg12
I2018
sg13
I12
sg14
Nsg15
Nsg16
I24
sbag2
(g3
g4
NtRp2558
(dp2559
g7
Nsg8
Nsg9
g19
sg11
Nsg12
I2018
sg13
I12
sg14
Nsg15
Nsg16
I31
sbag2
(g3
g4
NtRp2560
(dp2561
g7
Nsg8
Nsg9
V\u5143\u65e5
p2562
sg11
Nsg12
I2019
sg13
I1
sg14
Nsg15
Nsg16
I1
sbag2
(g3
g4
NtRp2563
(dp2564
g7
Nsg8
Nsg9
g19
sg11
Nsg12
I2019
sg13
I1
sg14
Nsg15
Nsg16
I2
sbag2
(g3
g4
NtRp2565
(dp2566
g7
Nsg8
Nsg9
g19
sg11
Nsg12
I2019
sg13
I1
sg14
Nsg15
Nsg16
I3
sbag2
(g3
g4
NtRp2567
(dp2568
g7
Nsg8
Nsg9
V\u6210\u4eba\u306e\u65e5
p2569
sg11
Nsg12
I2019
sg13
I1
sg14
Nsg15
Nsg16
I14
sbag2
(g3
g4
NtRp2570
(dp2571
g7
Nsg8
Nsg9
V\u5efa\u56fd\u8a18\u5ff5\u306e\u65e5
p2572
sg11
Nsg12
I2019
sg13
I2
sg14
Nsg15
Nsg16
I11
sbag2
(g3
g4
NtRp2573
(dp2574
g7
Nsg8
Nsg9
V\u6625\u5206\u306e\u65e5
p2575
sg11
Nsg12
I2019
sg13
I3
sg14
Nsg15
Nsg16
I21
sbag2
(g3
g4
NtRp2576
(dp2577
g7
Nsg8
Nsg9
V\u662d\u548c\u306e\u65e5
p2578
sg11
Nsg12
I2019
sg13
I4
sg14
Nsg15
Nsg16
I29
sbag2
(g3
g4
NtRp2579
(dp2580
g7
Nsg8
Nsg9
V\u61b2\u6cd5\u8a18\u5ff5\u65e5
p2581
sg11
Nsg12
I2019
sg13
I5
sg14
Nsg15
Nsg16
I3
sbag2
(g3
g4
NtRp2582
(dp2583
g7
Nsg8
Nsg9
V\u307f\u3069\u308a\u306e\u65e5
p2584
sg11
Nsg12
I2019
sg13
I5
sg14
Nsg15
Nsg16
I4
sbag2
(g3
g4
NtRp2585
(dp2586
g7
Nsg8
Nsg9
V\u3053\u3069\u3082\u306e\u65e5
p2587
sg11
Nsg12
I2019
sg13
I5
sg14
Nsg15
Nsg16
I5
sbag2
(g3
g4
NtRp2588
(dp2589
g7
Nsg8
Nsg9
V\u632f\u66ff\u4f11\u65e5
p2590
sg11
Nsg12
I2019
sg13
I5
sg14
Nsg15
Nsg16
I6
sbag2
(g3
g4
NtRp2591
(dp2592
g7
Nsg8
Nsg9
V\u6d77\u306e\u65e5
p2593
sg11
Nsg12
I2019
sg13
I7
sg14
Nsg15
Nsg16
I15
sbag2
(g3
g4
NtRp2594
(dp2595
g7
Nsg8
Nsg9
V\u5c71\u306e\u65e5
p2596
sg11
Nsg12
I2019
sg13
I8
sg14
Nsg15
Nsg16
I11
sbag2
(g3
g4
NtRp2597
(dp2598
g7
Nsg8
Nsg9
V\u632f\u66ff\u4f11\u65e5
p2599
sg11
Nsg12
I2019
sg13
I8
sg14
Nsg15
Nsg16
I12
sbag2
(g3
g4
NtRp2600
(dp2601
g7
Nsg8
Nsg9
V\u656c\u8001\u306e\u65e5
p2602
sg11
Nsg12
I2019
sg13
I9
sg14
Nsg15
Nsg16
I16
sbag2
(g3
g4
NtRp2603
(dp2604
g7
Nsg8
Nsg9
V\u79cb\u5206\u306e\u65e5
p2605
sg11
Nsg12
I2019
sg13
I9
sg14
Nsg15
Nsg16
I23
sbag2
(g3
g4
NtRp2606
(dp2607
g7
Nsg8
Nsg9
V\u4f53\u80b2\u306e\u65e5
p2608
sg11
Nsg12
I2019
sg13
I10
sg14
Nsg15
Nsg16
I14
sbag2
(g3
g4
NtRp2609
(dp2610
g7
Nsg8
Nsg9
V\u6587\u5316\u306e\u65e5
p2611
sg11
Nsg12
I2019
sg13
I11
sg14
Nsg15
Nsg16
I3
sbag2
(g3
g4
NtRp2612
(dp2613
g7
Nsg8
Nsg9
V\u632f\u66ff\u4f11\u65e5
p2614
sg11
Nsg12
I2019
sg13
I11
sg14
Nsg15
Nsg16
I4
sbag2
(g3
g4
NtRp2615
(dp2616
g7
Nsg8
Nsg9
V\u52e4\u52b4\u611f\u8b1d\u306e\u65e5
p2617
sg11
Nsg12
I2019
sg13
I11
sg14
Nsg15
Nsg16
I23
sbag2
(g3
g4
NtRp2618
(dp2619
g7
Nsg8
Nsg9
V\u5929\u7687\u8a95\u751f\u65e5
p2620
sg11
Nsg12
I2019
sg13
I12
sg14
Nsg15
Nsg16
I23
sbag2
(g3
g4
NtRp2621
(dp2622
g7
Nsg8
Nsg9
g19
sg11
Nsg12
I2019
sg13
I12
sg14
Nsg15
Nsg16
I31
sbag2
(g3
g4
NtRp2623
(dp2624
g7
Nsg8
Nsg9
V\u5143\u65e5
p2625
sg11
Nsg12
I2020
sg13
I1
sg14
Nsg15
Nsg16
I1
sbag2
(g3
g4
NtRp2626
(dp2627
g7
Nsg8
Nsg9
g19
sg11
Nsg12
I2020
sg13
I1
sg14
Nsg15
Nsg16
I2
sbag2
(g3
g4
NtRp2628
(dp2629
g7
Nsg8
Nsg9
g19
sg11
Nsg12
I2020
sg13
I1
sg14
Nsg15
Nsg16
I3
sbag2
(g3
g4
NtRp2630
(dp2631
g7
Nsg8
Nsg9
V\u6210\u4eba\u306e\u65e5
p2632
sg11
Nsg12
I2020
sg13
I1
sg14
Nsg15
Nsg16
I13
sbag2
(g3
g4
NtRp2633
(dp2634
g7
Nsg8
Nsg9
V\u5efa\u56fd\u8a18\u5ff5\u306e\u65e5
p2635
sg11
Nsg12
I2020
sg13
I2
sg14
Nsg15
Nsg16
I11
sbag2
(g3
g4
NtRp2636
(dp2637
g7
Nsg8
Nsg9
V\u6625\u5206\u306e\u65e5
p2638
sg11
Nsg12
I2020
sg13
I3
sg14
Nsg15
Nsg16
I20
sbag2
(g3
g4
NtRp2639
(dp2640
g7
Nsg8
Nsg9
V\u662d\u548c\u306e\u65e5
p2641
sg11
Nsg12
I2020
sg13
I4
sg14
Nsg15
Nsg16
I29
sbag2
(g3
g4
NtRp2642
(dp2643
g7
Nsg8
Nsg9
V\u61b2\u6cd5\u8a18\u5ff5\u65e5
p2644
sg11
Nsg12
I2020
sg13
I5
sg14
Nsg15
Nsg16
I3
sbag2
(g3
g4
NtRp2645
(dp2646
g7
Nsg8
Nsg9
V\u307f\u3069\u308a\u306e\u65e5
p2647
sg11
Nsg12
I2020
sg13
I5
sg14
Nsg15
Nsg16
I4
sbag2
(g3
g4
NtRp2648
(dp2649
g7
Nsg8
Nsg9
V\u3053\u3069\u3082\u306e\u65e5
p2650
sg11
Nsg12
I2020
sg13
I5
sg14
Nsg15
Nsg16
I5
sbag2
(g3
g4
NtRp2651
(dp2652
g7
Nsg8
Nsg9
V\u632f\u66ff\u4f11\u65e5
p2653
sg11
Nsg12
I2020
sg13
I5
sg14
Nsg15
Nsg16
I6
sbag2
(g3
g4
NtRp2654
(dp2655
g7
Nsg8
Nsg9
V\u6d77\u306e\u65e5
p2656
sg11
Nsg12
I2020
sg13
I7
sg14
Nsg15
Nsg16
I20
sbag2
(g3
g4
NtRp2657
(dp2658
g7
Nsg8
Nsg9
V\u5c71\u306e\u65e5
p2659
sg11
Nsg12
I2020
sg13
I8
sg14
Nsg15
Nsg16
I11
sbag2
(g3
g4
NtRp2660
(dp2661
g7
Nsg8
Nsg9
V\u656c\u8001\u306e\u65e5
p2662
sg11
Nsg12
I2020
sg13
I9
sg14
Nsg15
Nsg16
I21
sbag2
(g3
g4
NtRp2663
(dp2664
g7
Nsg8
Nsg9
V\u79cb\u5206\u306e\u65e5
p2665
sg11
Nsg12
I2020
sg13
I9
sg14
Nsg15
Nsg16
I22
sbag2
(g3
g4
NtRp2666
(dp2667
g7
Nsg8
Nsg9
V\u4f53\u80b2\u306e\u65e5
p2668
sg11
Nsg12
I2020
sg13
I10
sg14
Nsg15
Nsg16
I12
sbag2
(g3
g4
NtRp2669
(dp2670
g7
Nsg8
Nsg9
V\u6587\u5316\u306e\u65e5
p2671
sg11
Nsg12
I2020
sg13
I11
sg14
Nsg15
Nsg16
I3
sbag2
(g3
g4
NtRp2672
(dp2673
g7
Nsg8
Nsg9
V\u52e4\u52b4\u611f\u8b1d\u306e\u65e5
p2674
sg11
Nsg12
I2020
sg13
I11
sg14
Nsg15
Nsg16
I23
sbag2
(g3
g4
NtRp2675
(dp2676
g7
Nsg8
Nsg9
V\u5929\u7687\u8a95\u751f\u65e5
p2677
sg11
Nsg12
I2020
sg13
I12
sg14
Nsg15
Nsg16
I23
sbag2
(g3
g4
NtRp2678
(dp2679
g7
Nsg8
Nsg9
g19
sg11
Nsg12
I2020
sg13
I12
sg14
Nsg15
Nsg16
I31
sbag2
(g3
g4
NtRp2680
(dp2681
g7
Nsg8
Nsg9
V\u5143\u65e5
p2682
sg11
Nsg12
I2021
sg13
I1
sg14
Nsg15
Nsg16
I1
sbag2
(g3
g4
NtRp2683
(dp2684
g7
Nsg8
Nsg9
g19
sg11
Nsg12
I2021
sg13
I1
sg14
Nsg15
Nsg16
I2
sbag2
(g3
g4
NtRp2685
(dp2686
g7
Nsg8
Nsg9
g19
sg11
Nsg12
I2021
sg13
I1
sg14
Nsg15
Nsg16
I3
sbag2
(g3
g4
NtRp2687
(dp2688
g7
Nsg8
Nsg9
V\u6210\u4eba\u306e\u65e5
p2689
sg11
Nsg12
I2021
sg13
I1
sg14
Nsg15
Nsg16
I11
sbag2
(g3
g4
NtRp2690
(dp2691
g7
Nsg8
Nsg9
V\u5efa\u56fd\u8a18\u5ff5\u306e\u65e5
p2692
sg11
Nsg12
I2021
sg13
I2
sg14
Nsg15
Nsg16
I11
sbag2
(g3
g4
NtRp2693
(dp2694
g7
Nsg8
Nsg9
V\u6625\u5206\u306e\u65e5
p2695
sg11
Nsg12
I2021
sg13
I3
sg14
Nsg15
Nsg16
I20
sbag2
(g3
g4
NtRp2696
(dp2697
g7
Nsg8
Nsg9
V\u662d\u548c\u306e\u65e5
p2698
sg11
Nsg12
I2021
sg13
I4
sg14
Nsg15
Nsg16
I29
sbag2
(g3
g4
NtRp2699
(dp2700
g7
Nsg8
Nsg9
V\u61b2\u6cd5\u8a18\u5ff5\u65e5
p2701
sg11
Nsg12
I2021
sg13
I5
sg14
Nsg15
Nsg16
I3
sbag2
(g3
g4
NtRp2702
(dp2703
g7
Nsg8
Nsg9
V\u307f\u3069\u308a\u306e\u65e5
p2704
sg11
Nsg12
I2021
sg13
I5
sg14
Nsg15
Nsg16
I4
sbag2
(g3
g4
NtRp2705
(dp2706
g7
Nsg8
Nsg9
V\u3053\u3069\u3082\u306e\u65e5
p2707
sg11
Nsg12
I2021
sg13
I5
sg14
Nsg15
Nsg16
I5
sbag2
(g3
g4
NtRp2708
(dp2709
g7
Nsg8
Nsg9
V\u6d77\u306e\u65e5
p2710
sg11
Nsg12
I2021
sg13
I7
sg14
Nsg15
Nsg16
I19
sbag2
(g3
g4
NtRp2711
(dp2712
g7
Nsg8
Nsg9
V\u5c71\u306e\u65e5
p2713
sg11
Nsg12
I2021
sg13
I8
sg14
Nsg15
Nsg16
I11
sbag2
(g3
g4
NtRp2714
(dp2715
g7
Nsg8
Nsg9
V\u656c\u8001\u306e\u65e5
p2716
sg11
Nsg12
I2021
sg13
I9
sg14
Nsg15
Nsg16
I20
sbag2
(g3
g4
NtRp2717
(dp2718
g7
Nsg8
Nsg9
V\u79cb\u5206\u306e\u65e5
p2719
sg11
Nsg12
I2021
sg13
I9
sg14
Nsg15
Nsg16
I23
sbag2
(g3
g4
NtRp2720
(dp2721
g7
Nsg8
Nsg9
V\u4f53\u80b2\u306e\u65e5
p2722
sg11
Nsg12
I2021
sg13
I10
sg14
Nsg15
Nsg16
I11
sbag2
(g3
g4
NtRp2723
(dp2724
g7
Nsg8
Nsg9
V\u6587\u5316\u306e\u65e5
p2725
sg11
Nsg12
I2021
sg13
I11
sg14
Nsg15
Nsg16
I3
sbag2
(g3
g4
NtRp2726
(dp2727
g7
Nsg8
Nsg9
V\u52e4\u52b4\u611f\u8b1d\u306e\u65e5
p2728
sg11
Nsg12
I2021
sg13
I11
sg14
Nsg15
Nsg16
I23
sbag2
(g3
g4
NtRp2729
(dp2730
g7
Nsg8
Nsg9
V\u5929\u7687\u8a95\u751f\u65e5
p2731
sg11
Nsg12
I2021
sg13
I12
sg14
Nsg15
Nsg16
I23
sbag2
(g3
g4
NtRp2732
(dp2733
g7
Nsg8
Nsg9
g19
sg11
Nsg12
I2021
sg13
I12
sg14
Nsg15
Nsg16
I31
sbag2
(g3
g4
NtRp2734
(dp2735
g7
Nsg8
Nsg9
V\u5143\u65e5
p2736
sg11
Nsg12
I2022
sg13
I1
sg14
Nsg15
Nsg16
I1
sbag2
(g3
g4
NtRp2737
(dp2738
g7
Nsg8
Nsg9
g19
sg11
Nsg12
I2022
sg13
I1
sg14
Nsg15
Nsg16
I2
sbag2
(g3
g4
NtRp2739
(dp2740
g7
Nsg8
Nsg9
g19
sg11
Nsg12
I2022
sg13
I1
sg14
Nsg15
Nsg16
I3
sbag2
(g3
g4
NtRp2741
(dp2742
g7
Nsg8
Nsg9
V\u6210\u4eba\u306e\u65e5
p2743
sg11
Nsg12
I2022
sg13
I1
sg14
Nsg15
Nsg16
I10
sbag2
(g3
g4
NtRp2744
(dp2745
g7
Nsg8
Nsg9
V\u5efa\u56fd\u8a18\u5ff5\u306e\u65e5
p2746
sg11
Nsg12
I2022
sg13
I2
sg14
Nsg15
Nsg16
I11
sbag2
(g3
g4
NtRp2747
(dp2748
g7
Nsg8
Nsg9
V\u6625\u5206\u306e\u65e5
p2749
sg11
Nsg12
I2022
sg13
I3
sg14
Nsg15
Nsg16
I21
sbag2
(g3
g4
NtRp2750
(dp2751
g7
Nsg8
Nsg9
V\u662d\u548c\u306e\u65e5
p2752
sg11
Nsg12
I2022
sg13
I4
sg14
Nsg15
Nsg16
I29
sbag2
(g3
g4
NtRp2753
(dp2754
g7
Nsg8
Nsg9
V\u61b2\u6cd5\u8a18\u5ff5\u65e5
p2755
sg11
Nsg12
I2022
sg13
I5
sg14
Nsg15
Nsg16
I3
sbag2
(g3
g4
NtRp2756
(dp2757
g7
Nsg8
Nsg9
V\u307f\u3069\u308a\u306e\u65e5
p2758
sg11
Nsg12
I2022
sg13
I5
sg14
Nsg15
Nsg16
I4
sbag2
(g3
g4
NtRp2759
(dp2760
g7
Nsg8
Nsg9
V\u3053\u3069\u3082\u306e\u65e5
p2761
sg11
Nsg12
I2022
sg13
I5
sg14
Nsg15
Nsg16
I5
sbag2
(g3
g4
NtRp2762
(dp2763
g7
Nsg8
Nsg9
V\u6d77\u306e\u65e5
p2764
sg11
Nsg12
I2022
sg13
I7
sg14
Nsg15
Nsg16
I18
sbag2
(g3
g4
NtRp2765
(dp2766
g7
Nsg8
Nsg9
V\u5c71\u306e\u65e5
p2767
sg11
Nsg12
I2022
sg13
I8
sg14
Nsg15
Nsg16
I11
sbag2
(g3
g4
NtRp2768
(dp2769
g7
Nsg8
Nsg9
V\u656c\u8001\u306e\u65e5
p2770
sg11
Nsg12
I2022
sg13
I9
sg14
Nsg15
Nsg16
I19
sbag2
(g3
g4
NtRp2771
(dp2772
g7
Nsg8
Nsg9
V\u79cb\u5206\u306e\u65e5
p2773
sg11
Nsg12
I2022
sg13
I9
sg14
Nsg15
Nsg16
I23
sbag2
(g3
g4
NtRp2774
(dp2775
g7
Nsg8
Nsg9
V\u4f53\u80b2\u306e\u65e5
p2776
sg11
Nsg12
I2022
sg13
I10
sg14
Nsg15
Nsg16
I10
sbag2
(g3
g4
NtRp2777
(dp2778
g7
Nsg8
Nsg9
V\u6587\u5316\u306e\u65e5
p2779
sg11
Nsg12
I2022
sg13
I11
sg14
Nsg15
Nsg16
I3
sbag2
(g3
g4
NtRp2780
(dp2781
g7
Nsg8
Nsg9
V\u52e4\u52b4\u611f\u8b1d\u306e\u65e5
p2782
sg11
Nsg12
I2022
sg13
I11
sg14
Nsg15
Nsg16
I23
sbag2
(g3
g4
NtRp2783
(dp2784
g7
Nsg8
Nsg9
V\u5929\u7687\u8a95\u751f\u65e5
p2785
sg11
Nsg12
I2022
sg13
I12
sg14
Nsg15
Nsg16
I23
sbag2
(g3
g4
NtRp2786
(dp2787
g7
Nsg8
Nsg9
g19
sg11
Nsg12
I2022
sg13
I12
sg14
Nsg15
Nsg16
I31
sbag2
(g3
g4
NtRp2788
(dp2789
g7
Nsg8
Nsg9
V\u5143\u65e5
p2790
sg11
Nsg12
I2023
sg13
I1
sg14
Nsg15
Nsg16
I1
sbag2
(g3
g4
NtRp2791
(dp2792
g7
Nsg8
Nsg9
V\u632f\u66ff\u4f11\u65e5
p2793
sg11
Nsg12
I2023
sg13
I1
sg14
Nsg15
Nsg16
I2
sbag2
(g3
g4
NtRp2794
(dp2795
g7
Nsg8
Nsg9
g19
sg11
Nsg12
I2023
sg13
I1
sg14
Nsg15
Nsg16
I3
sbag2
(g3
g4
NtRp2796
(dp2797
g7
Nsg8
Nsg9
V\u6210\u4eba\u306e\u65e5
p2798
sg11
Nsg12
I2023
sg13
I1
sg14
Nsg15
Nsg16
I9
sbag2
(g3
g4
NtRp2799
(dp2800
g7
Nsg8
Nsg9
V\u5efa\u56fd\u8a18\u5ff5\u306e\u65e5
p2801
sg11
Nsg12
I2023
sg13
I2
sg14
Nsg15
Nsg16
I11
sbag2
(g3
g4
NtRp2802
(dp2803
g7
Nsg8
Nsg9
V\u6625\u5206\u306e\u65e5
p2804
sg11
Nsg12
I2023
sg13
I3
sg14
Nsg15
Nsg16
I21
sbag2
(g3
g4
NtRp2805
(dp2806
g7
Nsg8
Nsg9
V\u662d\u548c\u306e\u65e5
p2807
sg11
Nsg12
I2023
sg13
I4
sg14
Nsg15
Nsg16
I29
sbag2
(g3
g4
NtRp2808
(dp2809
g7
Nsg8
Nsg9
V\u61b2\u6cd5\u8a18\u5ff5\u65e5
p2810
sg11
Nsg12
I2023
sg13
I5
sg14
Nsg15
Nsg16
I3
sbag2
(g3
g4
NtRp2811
(dp2812
g7
Nsg8
Nsg9
V\u307f\u3069\u308a\u306e\u65e5
p2813
sg11
Nsg12
I2023
sg13
I5
sg14
Nsg15
Nsg16
I4
sbag2
(g3
g4
NtRp2814
(dp2815
g7
Nsg8
Nsg9
V\u3053\u3069\u3082\u306e\u65e5
p2816
sg11
Nsg12
I2023
sg13
I5
sg14
Nsg15
Nsg16
I5
sbag2
(g3
g4
NtRp2817
(dp2818
g7
Nsg8
Nsg9
V\u6d77\u306e\u65e5
p2819
sg11
Nsg12
I2023
sg13
I7
sg14
Nsg15
Nsg16
I17
sbag2
(g3
g4
NtRp2820
(dp2821
g7
Nsg8
Nsg9
V\u5c71\u306e\u65e5
p2822
sg11
Nsg12
I2023
sg13
I8
sg14
Nsg15
Nsg16
I11
sbag2
(g3
g4
NtRp2823
(dp2824
g7
Nsg8
Nsg9
V\u656c\u8001\u306e\u65e5
p2825
sg11
Nsg12
I2023
sg13
I9
sg14
Nsg15
Nsg16
I18
sbag2
(g3
g4
NtRp2826
(dp2827
g7
Nsg8
Nsg9
V\u79cb\u5206\u306e\u65e5
p2828
sg11
Nsg12
I2023
sg13
I9
sg14
Nsg15
Nsg16
I23
sbag2
(g3
g4
NtRp2829
(dp2830
g7
Nsg8
Nsg9
V\u4f53\u80b2\u306e\u65e5
p2831
sg11
Nsg12
I2023
sg13
I10
sg14
Nsg15
Nsg16
I9
sbag2
(g3
g4
NtRp2832
(dp2833
g7
Nsg8
Nsg9
V\u6587\u5316\u306e\u65e5
p2834
sg11
Nsg12
I2023
sg13
I11
sg14
Nsg15
Nsg16
I3
sbag2
(g3
g4
NtRp2835
(dp2836
g7
Nsg8
Nsg9
V\u52e4\u52b4\u611f\u8b1d\u306e\u65e5
p2837
sg11
Nsg12
I2023
sg13
I11
sg14
Nsg15
Nsg16
I23
sbag2
(g3
g4
NtRp2838
(dp2839
g7
Nsg8
Nsg9
V\u5929\u7687\u8a95\u751f\u65e5
p2840
sg11
Nsg12
I2023
sg13
I12
sg14
Nsg15
Nsg16
I23
sbag2
(g3
g4
NtRp2841
(dp2842
g7
Nsg8
Nsg9
g19
sg11
Nsg12
I2023
sg13
I12
sg14
Nsg15
Nsg16
I31
sbag2
(g3
g4
NtRp2843
(dp2844
g7
Nsg8
Nsg9
V\u5143\u65e5
p2845
sg11
Nsg12
I2024
sg13
I1
sg14
Nsg15
Nsg16
I1
sbag2
(g3
g4
NtRp2846
(dp2847
g7
Nsg8
Nsg9
g19
sg11
Nsg12
I2024
sg13
I1
sg14
Nsg15
Nsg16
I2
sbag2
(g3
g4
NtRp2848
(dp2849
g7
Nsg8
Nsg9
g19
sg11
Nsg12
I2024
sg13
I1
sg14
Nsg15
Nsg16
I3
sbag2
(g3
g4
NtRp2850
(dp2851
g7
Nsg8
Nsg9
V\u6210\u4eba\u306e\u65e5
p2852
sg11
Nsg12
I2024
sg13
I1
sg14
Nsg15
Nsg16
I8
sbag2
(g3
g4
NtRp2853
(dp2854
g7
Nsg8
Nsg9
V\u5efa\u56fd\u8a18\u5ff5\u306e\u65e5
p2855
sg11
Nsg12
I2024
sg13
I2
sg14
Nsg15
Nsg16
I11
sbag2
(g3
g4
NtRp2856
(dp2857
g7
Nsg8
Nsg9
V\u632f\u66ff\u4f11\u65e5
p2858
sg11
Nsg12
I2024
sg13
I2
sg14
Nsg15
Nsg16
I12
sbag2
(g3
g4
NtRp2859
(dp2860
g7
Nsg8
Nsg9
V\u6625\u5206\u306e\u65e5
p2861
sg11
Nsg12
I2024
sg13
I3
sg14
Nsg15
Nsg16
I20
sbag2
(g3
g4
NtRp2862
(dp2863
g7
Nsg8
Nsg9
V\u662d\u548c\u306e\u65e5
p2864
sg11
Nsg12
I2024
sg13
I4
sg14
Nsg15
Nsg16
I29
sbag2
(g3
g4
NtRp2865
(dp2866
g7
Nsg8
Nsg9
V\u61b2\u6cd5\u8a18\u5ff5\u65e5
p2867
sg11
Nsg12
I2024
sg13
I5
sg14
Nsg15
Nsg16
I3
sbag2
(g3
g4
NtRp2868
(dp2869
g7
Nsg8
Nsg9
V\u307f\u3069\u308a\u306e\u65e5
p2870
sg11
Nsg12
I2024
sg13
I5
sg14
Nsg15
Nsg16
I4
sbag2
(g3
g4
NtRp2871
(dp2872
g7
Nsg8
Nsg9
V\u3053\u3069\u3082\u306e\u65e5
p2873
sg11
Nsg12
I2024
sg13
I5
sg14
Nsg15
Nsg16
I5
sbag2
(g3
g4
NtRp2874
(dp2875
g7
Nsg8
Nsg9
V\u632f\u66ff\u4f11\u65e5
p2876
sg11
Nsg12
I2024
sg13
I5
sg14
Nsg15
Nsg16
I6
sbag2
(g3
g4
NtRp2877
(dp2878
g7
Nsg8
Nsg9
V\u6d77\u306e\u65e5
p2879
sg11
Nsg12
I2024
sg13
I7
sg14
Nsg15
Nsg16
I15
sbag2
(g3
g4
NtRp2880
(dp2881
g7
Nsg8
Nsg9
V\u5c71\u306e\u65e5
p2882
sg11
Nsg12
I2024
sg13
I8
sg14
Nsg15
Nsg16
I11
sbag2
(g3
g4
NtRp2883
(dp2884
g7
Nsg8
Nsg9
V\u632f\u66ff\u4f11\u65e5
p2885
sg11
Nsg12
I2024
sg13
I8
sg14
Nsg15
Nsg16
I12
sbag2
(g3
g4
NtRp2886
(dp2887
g7
Nsg8
Nsg9
V\u656c\u8001\u306e\u65e5
p2888
sg11
Nsg12
I2024
sg13
I9
sg14
Nsg15
Nsg16
I16
sbag2
(g3
g4
NtRp2889
(dp2890
g7
Nsg8
Nsg9
V\u79cb\u5206\u306e\u65e5
p2891
sg11
Nsg12
I2024
sg13
I9
sg14
Nsg15
Nsg16
I22
sbag2
(g3
g4
NtRp2892
(dp2893
g7
Nsg8
Nsg9
V\u632f\u66ff\u4f11\u65e5
p2894
sg11
Nsg12
I2024
sg13
I9
sg14
Nsg15
Nsg16
I23
sbag2
(g3
g4
NtRp2895
(dp2896
g7
Nsg8
Nsg9
V\u4f53\u80b2\u306e\u65e5
p2897
sg11
Nsg12
I2024
sg13
I10
sg14
Nsg15
Nsg16
I14
sbag2
(g3
g4
NtRp2898
(dp2899
g7
Nsg8
Nsg9
V\u6587\u5316\u306e\u65e5
p2900
sg11
Nsg12
I2024
sg13
I11
sg14
Nsg15
Nsg16
I3
sbag2
(g3
g4
NtRp2901
(dp2902
g7
Nsg8
Nsg9
V\u632f\u66ff\u4f11\u65e5
p2903
sg11
Nsg12
I2024
sg13
I11
sg14
Nsg15
Nsg16
I4
sbag2
(g3
g4
NtRp2904
(dp2905
g7
Nsg8
Nsg9
V\u52e4\u52b4\u611f\u8b1d\u306e\u65e5
p2906
sg11
Nsg12
I2024
sg13
I11
sg14
Nsg15
Nsg16
I23
sbag2
(g3
g4
NtRp2907
(dp2908
g7
Nsg8
Nsg9
V\u5929\u7687\u8a95\u751f\u65e5
p2909
sg11
Nsg12
I2024
sg13
I12
sg14
Nsg15
Nsg16
I23
sbag2
(g3
g4
NtRp2910
(dp2911
g7
Nsg8
Nsg9
g19
sg11
Nsg12
I2024
sg13
I12
sg14
Nsg15
Nsg16
I31
sbag2
(g3
g4
NtRp2912
(dp2913
g7
Nsg8
Nsg9
V\u5143\u65e5
p2914
sg11
Nsg12
I2025
sg13
I1
sg14
Nsg15
Nsg16
I1
sbag2
(g3
g4
NtRp2915
(dp2916
g7
Nsg8
Nsg9
g19
sg11
Nsg12
I2025
sg13
I1
sg14
Nsg15
Nsg16
I2
sbag2
(g3
g4
NtRp2917
(dp2918
g7
Nsg8
Nsg9
g19
sg11
Nsg12
I2025
sg13
I1
sg14
Nsg15
Nsg16
I3
sbag2
(g3
g4
NtRp2919
(dp2920
g7
Nsg8
Nsg9
V\u6210\u4eba\u306e\u65e5
p2921
sg11
Nsg12
I2025
sg13
I1
sg14
Nsg15
Nsg16
I13
sbag2
(g3
g4
NtRp2922
(dp2923
g7
Nsg8
Nsg9
V\u5efa\u56fd\u8a18\u5ff5\u306e\u65e5
p2924
sg11
Nsg12
I2025
sg13
I2
sg14
Nsg15
Nsg16
I11
sbag2
(g3
g4
NtRp2925
(dp2926
g7
Nsg8
Nsg9
V\u6625\u5206\u306e\u65e5
p2927
sg11
Nsg12
I2025
sg13
I3
sg14
Nsg15
Nsg16
I20
sbag2
(g3
g4
NtRp2928
(dp2929
g7
Nsg8
Nsg9
V\u662d\u548c\u306e\u65e5
p2930
sg11
Nsg12
I2025
sg13
I4
sg14
Nsg15
Nsg16
I29
sbag2
(g3
g4
NtRp2931
(dp2932
g7
Nsg8
Nsg9
V\u61b2\u6cd5\u8a18\u5ff5\u65e5
p2933
sg11
Nsg12
I2025
sg13
I5
sg14
Nsg15
Nsg16
I3
sbag2
(g3
g4
NtRp2934
(dp2935
g7
Nsg8
Nsg9
V\u307f\u3069\u308a\u306e\u65e5
p2936
sg11
Nsg12
I2025
sg13
I5
sg14
Nsg15
Nsg16
I4
sbag2
(g3
g4
NtRp2937
(dp2938
g7
Nsg8
Nsg9
V\u3053\u3069\u3082\u306e\u65e5
p2939
sg11
Nsg12
I2025
sg13
I5
sg14
Nsg15
Nsg16
I5
sbag2
(g3
g4
NtRp2940
(dp2941
g7
Nsg8
Nsg9
V\u632f\u66ff\u4f11\u65e5
p2942
sg11
Nsg12
I2025
sg13
I5
sg14
Nsg15
Nsg16
I6
sbag2
(g3
g4
NtRp2943
(dp2944
g7
Nsg8
Nsg9
V\u6d77\u306e\u65e5
p2945
sg11
Nsg12
I2025
sg13
I7
sg14
Nsg15
Nsg16
I21
sbag2
(g3
g4
NtRp2946
(dp2947
g7
Nsg8
Nsg9
V\u5c71\u306e\u65e5
p2948
sg11
Nsg12
I2025
sg13
I8
sg14
Nsg15
Nsg16
I11
sbag2
(g3
g4
NtRp2949
(dp2950
g7
Nsg8
Nsg9
V\u656c\u8001\u306e\u65e5
p2951
sg11
Nsg12
I2025
sg13
I9
sg14
Nsg15
Nsg16
I15
sbag2
(g3
g4
NtRp2952
(dp2953
g7
Nsg8
Nsg9
V\u79cb\u5206\u306e\u65e5
p2954
sg11
Nsg12
I2025
sg13
I9
sg14
Nsg15
Nsg16
I23
sbag2
(g3
g4
NtRp2955
(dp2956
g7
Nsg8
Nsg9
V\u4f53\u80b2\u306e\u65e5
p2957
sg11
Nsg12
I2025
sg13
I10
sg14
Nsg15
Nsg16
I13
sbag2
(g3
g4
NtRp2958
(dp2959
g7
Nsg8
Nsg9
V\u6587\u5316\u306e\u65e5
p2960
sg11
Nsg12
I2025
sg13
I11
sg14
Nsg15
Nsg16
I3
sbag2
(g3
g4
NtRp2961
(dp2962
g7
Nsg8
Nsg9
V\u52e4\u52b4\u611f\u8b1d\u306e\u65e5
p2963
sg11
Nsg12
I2025
sg13
I11
sg14
Nsg15
Nsg16
I23
sbag2
(g3
g4
NtRp2964
(dp2965
g7
Nsg8
Nsg9
V\u632f\u66ff\u4f11\u65e5
p2966
sg11
Nsg12
I2025
sg13
I11
sg14
Nsg15
Nsg16
I24
sbag2
(g3
g4
NtRp2967
(dp2968
g7
Nsg8
Nsg9
V\u5929\u7687\u8a95\u751f\u65e5
p2969
sg11
Nsg12
I2025
sg13
I12
sg14
Nsg15
Nsg16
I23
sbag2
(g3
g4
NtRp2970
(dp2971
g7
Nsg8
Nsg9
g19
sg11
Nsg12
I2025
sg13
I12
sg14
Nsg15
Nsg16
I31
sbag2
(g3
g4
NtRp2972
(dp2973
g7
Nsg8
Nsg9
V\u5143\u65e5
p2974
sg11
Nsg12
I2026
sg13
I1
sg14
Nsg15
Nsg16
I1
sbag2
(g3
g4
NtRp2975
(dp2976
g7
Nsg8
Nsg9
g19
sg11
Nsg12
I2026
sg13
I1
sg14
Nsg15
Nsg16
I2
sbag2
(g3
g4
NtRp2977
(dp2978
g7
Nsg8
Nsg9
g19
sg11
Nsg12
I2026
sg13
I1
sg14
Nsg15
Nsg16
I3
sbag2
(g3
g4
NtRp2979
(dp2980
g7
Nsg8
Nsg9
V\u6210\u4eba\u306e\u65e5
p2981
sg11
Nsg12
I2026
sg13
I1
sg14
Nsg15
Nsg16
I12
sbag2
(g3
g4
NtRp2982
(dp2983
g7
Nsg8
Nsg9
V\u5efa\u56fd\u8a18\u5ff5\u306e\u65e5
p2984
sg11
Nsg12
I2026
sg13
I2
sg14
Nsg15
Nsg16
I11
sbag2
(g3
g4
NtRp2985
(dp2986
g7
Nsg8
Nsg9
V\u6625\u5206\u306e\u65e5
p2987
sg11
Nsg12
I2026
sg13
I3
sg14
Nsg15
Nsg16
I20
sbag2
(g3
g4
NtRp2988
(dp2989
g7
Nsg8
Nsg9
V\u662d\u548c\u306e\u65e5
p2990
sg11
Nsg12
I2026
sg13
I4
sg14
Nsg15
Nsg16
I29
sbag2
(g3
g4
NtRp2991
(dp2992
g7
Nsg8
Nsg9
V\u61b2\u6cd5\u8a18\u5ff5\u65e5
p2993
sg11
Nsg12
I2026
sg13
I5
sg14
Nsg15
Nsg16
I3
sbag2
(g3
g4
NtRp2994
(dp2995
g7
Nsg8
Nsg9
V\u307f\u3069\u308a\u306e\u65e5
p2996
sg11
Nsg12
I2026
sg13
I5
sg14
Nsg15
Nsg16
I4
sbag2
(g3
g4
NtRp2997
(dp2998
g7
Nsg8
Nsg9
V\u3053\u3069\u3082\u306e\u65e5
p2999
sg11
Nsg12
I2026
sg13
I5
sg14
Nsg15
Nsg16
I5
sbag2
(g3
g4
NtRp3000
(dp3001
g7
Nsg8
Nsg9
V\u632f\u66ff\u4f11\u65e5
p3002
sg11
Nsg12
I2026
sg13
I5
sg14
Nsg15
Nsg16
I6
sbag2
(g3
g4
NtRp3003
(dp3004
g7
Nsg8
Nsg9
V\u6d77\u306e\u65e5
p3005
sg11
Nsg12
I2026
sg13
I7
sg14
Nsg15
Nsg16
I20
sbag2
(g3
g4
NtRp3006
(dp3007
g7
Nsg8
Nsg9
V\u5c71\u306e\u65e5
p3008
sg11
Nsg12
I2026
sg13
I8
sg14
Nsg15
Nsg16
I11
sbag2
(g3
g4
NtRp3009
(dp3010
g7
Nsg8
Nsg9
V\u656c\u8001\u306e\u65e5
p3011
sg11
Nsg12
I2026
sg13
I9
sg14
Nsg15
Nsg16
I21
sbag2
(g3
g4
NtRp3012
(dp3013
g7
Nsg8
Nsg9
V\u56fd\u6c11\u306e\u4f11\u65e5
p3014
sg11
Nsg12
I2026
sg13
I9
sg14
Nsg15
Nsg16
I22
sbag2
(g3
g4
NtRp3015
(dp3016
g7
Nsg8
Nsg9
V\u79cb\u5206\u306e\u65e5
p3017
sg11
Nsg12
I2026
sg13
I9
sg14
Nsg15
Nsg16
I23
sbag2
(g3
g4
NtRp3018
(dp3019
g7
Nsg8
Nsg9
V\u4f53\u80b2\u306e\u65e5
p3020
sg11
Nsg12
I2026
sg13
I10
sg14
Nsg15
Nsg16
I12
sbag2
(g3
g4
NtRp3021
(dp3022
g7
Nsg8
Nsg9
V\u6587\u5316\u306e\u65e5
p3023
sg11
Nsg12
I2026
sg13
I11
sg14
Nsg15
Nsg16
I3
sbag2
(g3
g4
NtRp3024
(dp3025
g7
Nsg8
Nsg9
V\u52e4\u52b4\u611f\u8b1d\u306e\u65e5
p3026
sg11
Nsg12
I2026
sg13
I11
sg14
Nsg15
Nsg16
I23
sbag2
(g3
g4
NtRp3027
(dp3028
g7
Nsg8
Nsg9
V\u5929\u7687\u8a95\u751f\u65e5
p3029
sg11
Nsg12
I2026
sg13
I12
sg14
Nsg15
Nsg16
I23
sbag2
(g3
g4
NtRp3030
(dp3031
g7
Nsg8
Nsg9
g19
sg11
Nsg12
I2026
sg13
I12
sg14
Nsg15
Nsg16
I31
sbag2
(g3
g4
NtRp3032
(dp3033
g7
Nsg8
Nsg9
V\u5143\u65e5
p3034
sg11
Nsg12
I2027
sg13
I1
sg14
Nsg15
Nsg16
I1
sbag2
(g3
g4
NtRp3035
(dp3036
g7
Nsg8
Nsg9
g19
sg11
Nsg12
I2027
sg13
I1
sg14
Nsg15
Nsg16
I2
sbag2
(g3
g4
NtRp3037
(dp3038
g7
Nsg8
Nsg9
g19
sg11
Nsg12
I2027
sg13
I1
sg14
Nsg15
Nsg16
I3
sbag2
(g3
g4
NtRp3039
(dp3040
g7
Nsg8
Nsg9
V\u6210\u4eba\u306e\u65e5
p3041
sg11
Nsg12
I2027
sg13
I1
sg14
Nsg15
Nsg16
I11
sbag2
(g3
g4
NtRp3042
(dp3043
g7
Nsg8
Nsg9
V\u5efa\u56fd\u8a18\u5ff5\u306e\u65e5
p3044
sg11
Nsg12
I2027
sg13
I2
sg14
Nsg15
Nsg16
I11
sbag2
(g3
g4
NtRp3045
(dp3046
g7
Nsg8
Nsg9
V\u6625\u5206\u306e\u65e5
p3047
sg11
Nsg12
I2027
sg13
I3
sg14
Nsg15
Nsg16
I21
sbag2
(g3
g4
NtRp3048
(dp3049
g7
Nsg8
Nsg9
V\u632f\u66ff\u4f11\u65e5
p3050
sg11
Nsg12
I2027
sg13
I3
sg14
Nsg15
Nsg16
I22
sbag2
(g3
g4
NtRp3051
(dp3052
g7
Nsg8
Nsg9
V\u662d\u548c\u306e\u65e5
p3053
sg11
Nsg12
I2027
sg13
I4
sg14
Nsg15
Nsg16
I29
sbag2
(g3
g4
NtRp3054
(dp3055
g7
Nsg8
Nsg9
V\u61b2\u6cd5\u8a18\u5ff5\u65e5
p3056
sg11
Nsg12
I2027
sg13
I5
sg14
Nsg15
Nsg16
I3
sbag2
(g3
g4
NtRp3057
(dp3058
g7
Nsg8
Nsg9
V\u307f\u3069\u308a\u306e\u65e5
p3059
sg11
Nsg12
I2027
sg13
I5
sg14
Nsg15
Nsg16
I4
sbag2
(g3
g4
NtRp3060
(dp3061
g7
Nsg8
Nsg9
V\u3053\u3069\u3082\u306e\u65e5
p3062
sg11
Nsg12
I2027
sg13
I5
sg14
Nsg15
Nsg16
I5
sbag2
(g3
g4
NtRp3063
(dp3064
g7
Nsg8
Nsg9
V\u6d77\u306e\u65e5
p3065
sg11
Nsg12
I2027
sg13
I7
sg14
Nsg15
Nsg16
I19
sbag2
(g3
g4
NtRp3066
(dp3067
g7
Nsg8
Nsg9
V\u5c71\u306e\u65e5
p3068
sg11
Nsg12
I2027
sg13
I8
sg14
Nsg15
Nsg16
I11
sbag2
(g3
g4
NtRp3069
(dp3070
g7
Nsg8
Nsg9
V\u656c\u8001\u306e\u65e5
p3071
sg11
Nsg12
I2027
sg13
I9
sg14
Nsg15
Nsg16
I20
sbag2
(g3
g4
NtRp3072
(dp3073
g7
Nsg8
Nsg9
V\u79cb\u5206\u306e\u65e5
p3074
sg11
Nsg12
I2027
sg13
I9
sg14
Nsg15
Nsg16
I23
sbag2
(g3
g4
NtRp3075
(dp3076
g7
Nsg8
Nsg9
V\u4f53\u80b2\u306e\u65e5
p3077
sg11
Nsg12
I2027
sg13
I10
sg14
Nsg15
Nsg16
I11
sbag2
(g3
g4
NtRp3078
(dp3079
g7
Nsg8
Nsg9
V\u6587\u5316\u306e\u65e5
p3080
sg11
Nsg12
I2027
sg13
I11
sg14
Nsg15
Nsg16
I3
sbag2
(g3
g4
NtRp3081
(dp3082
g7
Nsg8
Nsg9
V\u52e4\u52b4\u611f\u8b1d\u306e\u65e5
p3083
sg11
Nsg12
I2027
sg13
I11
sg14
Nsg15
Nsg16
I23
sbag2
(g3
g4
NtRp3084
(dp3085
g7
Nsg8
Nsg9
V\u5929\u7687\u8a95\u751f\u65e5
p3086
sg11
Nsg12
I2027
sg13
I12
sg14
Nsg15
Nsg16
I23
sbag2
(g3
g4
NtRp3087
(dp3088
g7
Nsg8
Nsg9
g19
sg11
Nsg12
I2027
sg13
I12
sg14
Nsg15
Nsg16
I31
sbag2
(g3
g4
NtRp3089
(dp3090
g7
Nsg8
Nsg9
V\u5143\u65e5
p3091
sg11
Nsg12
I2028
sg13
I1
sg14
Nsg15
Nsg16
I1
sbag2
(g3
g4
NtRp3092
(dp3093
g7
Nsg8
Nsg9
g19
sg11
Nsg12
I2028
sg13
I1
sg14
Nsg15
Nsg16
I2
sbag2
(g3
g4
NtRp3094
(dp3095
g7
Nsg8
Nsg9
g19
sg11
Nsg12
I2028
sg13
I1
sg14
Nsg15
Nsg16
I3
sbag2
(g3
g4
NtRp3096
(dp3097
g7
Nsg8
Nsg9
V\u6210\u4eba\u306e\u65e5
p3098
sg11
Nsg12
I2028
sg13
I1
sg14
Nsg15
Nsg16
I10
sbag2
(g3
g4
NtRp3099
(dp3100
g7
Nsg8
Nsg9
V\u5efa\u56fd\u8a18\u5ff5\u306e\u65e5
p3101
sg11
Nsg12
I2028
sg13
I2
sg14
Nsg15
Nsg16
I11
sbag2
(g3
g4
NtRp3102
(dp3103
g7
Nsg8
Nsg9
V\u6625\u5206\u306e\u65e5
p3104
sg11
Nsg12
I2028
sg13
I3
sg14
Nsg15
Nsg16
I20
sbag2
(g3
g4
NtRp3105
(dp3106
g7
Nsg8
Nsg9
V\u662d\u548c\u306e\u65e5
p3107
sg11
Nsg12
I2028
sg13
I4
sg14
Nsg15
Nsg16
I29
sbag2
(g3
g4
NtRp3108
(dp3109
g7
Nsg8
Nsg9
V\u61b2\u6cd5\u8a18\u5ff5\u65e5
p3110
sg11
Nsg12
I2028
sg13
I5
sg14
Nsg15
Nsg16
I3
sbag2
(g3
g4
NtRp3111
(dp3112
g7
Nsg8
Nsg9
V\u307f\u3069\u308a\u306e\u65e5
p3113
sg11
Nsg12
I2028
sg13
I5
sg14
Nsg15
Nsg16
I4
sbag2
(g3
g4
NtRp3114
(dp3115
g7
Nsg8
Nsg9
V\u3053\u3069\u3082\u306e\u65e5
p3116
sg11
Nsg12
I2028
sg13
I5
sg14
Nsg15
Nsg16
I5
sbag2
(g3
g4
NtRp3117
(dp3118
g7
Nsg8
Nsg9
V\u6d77\u306e\u65e5
p3119
sg11
Nsg12
I2028
sg13
I7
sg14
Nsg15
Nsg16
I17
sbag2
(g3
g4
NtRp3120
(dp3121
g7
Nsg8
Nsg9
V\u5c71\u306e\u65e5
p3122
sg11
Nsg12
I2028
sg13
I8
sg14
Nsg15
Nsg16
I11
sbag2
(g3
g4
NtRp3123
(dp3124
g7
Nsg8
Nsg9
V\u656c\u8001\u306e\u65e5
p3125
sg11
Nsg12
I2028
sg13
I9
sg14
Nsg15
Nsg16
I18
sbag2
(g3
g4
NtRp3126
(dp3127
g7
Nsg8
Nsg9
V\u79cb\u5206\u306e\u65e5
p3128
sg11
Nsg12
I2028
sg13
I9
sg14
Nsg15
Nsg16
I22
sbag2
(g3
g4
NtRp3129
(dp3130
g7
Nsg8
Nsg9
V\u4f53\u80b2\u306e\u65e5
p3131
sg11
Nsg12
I2028
sg13
I10
sg14
Nsg15
Nsg16
I9
sbag2
(g3
g4
NtRp3132
(dp3133
g7
Nsg8
Nsg9
V\u6587\u5316\u306e\u65e5
p3134
sg11
Nsg12
I2028
sg13
I11
sg14
Nsg15
Nsg16
I3
sbag2
(g3
g4
NtRp3135
(dp3136
g7
Nsg8
Nsg9
V\u52e4\u52b4\u611f\u8b1d\u306e\u65e5
p3137
sg11
Nsg12
I2028
sg13
I11
sg14
Nsg15
Nsg16
I23
sbag2
(g3
g4
NtRp3138
(dp3139
g7
Nsg8
Nsg9
V\u5929\u7687\u8a95\u751f\u65e5
p3140
sg11
Nsg12
I2028
sg13
I12
sg14
Nsg15
Nsg16
I23
sbag2
(g3
g4
NtRp3141
(dp3142
g7
Nsg8
Nsg9
g19
sg11
Nsg12
I2028
sg13
I12
sg14
Nsg15
Nsg16
I31
sbag2
(g3
g4
NtRp3143
(dp3144
g7
Nsg8
Nsg9
V\u5143\u65e5
p3145
sg11
Nsg12
I2029
sg13
I1
sg14
Nsg15
Nsg16
I1
sbag2
(g3
g4
NtRp3146
(dp3147
g7
Nsg8
Nsg9
g19
sg11
Nsg12
I2029
sg13
I1
sg14
Nsg15
Nsg16
I2
sbag2
(g3
g4
NtRp3148
(dp3149
g7
Nsg8
Nsg9
g19
sg11
Nsg12
I2029
sg13
I1
sg14
Nsg15
Nsg16
I3
sbag2
(g3
g4
NtRp3150
(dp3151
g7
Nsg8
Nsg9
V\u6210\u4eba\u306e\u65e5
p3152
sg11
Nsg12
I2029
sg13
I1
sg14
Nsg15
Nsg16
I8
sbag2
(g3
g4
NtRp3153
(dp3154
g7
Nsg8
Nsg9
V\u5efa\u56fd\u8a18\u5ff5\u306e\u65e5
p3155
sg11
Nsg12
I2029
sg13
I2
sg14
Nsg15
Nsg16
I11
sbag2
(g3
g4
NtRp3156
(dp3157
g7
Nsg8
Nsg9
V\u632f\u66ff\u4f11\u65e5
p3158
sg11
Nsg12
I2029
sg13
I2
sg14
Nsg15
Nsg16
I12
sbag2
(g3
g4
NtRp3159
(dp3160
g7
Nsg8
Nsg9
V\u6625\u5206\u306e\u65e5
p3161
sg11
Nsg12
I2029
sg13
I3
sg14
Nsg15
Nsg16
I20
sbag2
(g3
g4
NtRp3162
(dp3163
g7
Nsg8
Nsg9
V\u662d\u548c\u306e\u65e5
p3164
sg11
Nsg12
I2029
sg13
I4
sg14
Nsg15
Nsg16
I29
sbag2
(g3
g4
NtRp3165
(dp3166
g7
Nsg8
Nsg9
V\u632f\u66ff\u4f11\u65e5
p3167
sg11
Nsg12
I2029
sg13
I4
sg14
Nsg15
Nsg16
I30
sbag2
(g3
g4
NtRp3168
(dp3169
g7
Nsg8
Nsg9
V\u61b2\u6cd5\u8a18\u5ff5\u65e5
p3170
sg11
Nsg12
I2029
sg13
I5
sg14
Nsg15
Nsg16
I3
sbag2
(g3
g4
NtRp3171
(dp3172
g7
Nsg8
Nsg9
V\u307f\u3069\u308a\u306e\u65e5
p3173
sg11
Nsg12
I2029
sg13
I5
sg14
Nsg15
Nsg16
I4
sbag2
(g3
g4
NtRp3174
(dp3175
g7
Nsg8
Nsg9
V\u3053\u3069\u3082\u306e\u65e5
p3176
sg11
Nsg12
I2029
sg13
I5
sg14
Nsg15
Nsg16
I5
sbag2
(g3
g4
NtRp3177
(dp3178
g7
Nsg8
Nsg9
V\u6d77\u306e\u65e5
p3179
sg11
Nsg12
I2029
sg13
I7
sg14
Nsg15
Nsg16
I16
sbag2
(g3
g4
NtRp3180
(dp3181
g7
Nsg8
Nsg9
V\u5c71\u306e\u65e5
p3182
sg11
Nsg12
I2029
sg13
I8
sg14
Nsg15
Nsg16
I11
sbag2
(g3
g4
NtRp3183
(dp3184
g7
Nsg8
Nsg9
V\u656c\u8001\u306e\u65e5
p3185
sg11
Nsg12
I2029
sg13
I9
sg14
Nsg15
Nsg16
I17
sbag2
(g3
g4
NtRp3186
(dp3187
g7
Nsg8
Nsg9
V\u79cb\u5206\u306e\u65e5
p3188
sg11
Nsg12
I2029
sg13
I9
sg14
Nsg15
Nsg16
I23
sbag2
(g3
g4
NtRp3189
(dp3190
g7
Nsg8
Nsg9
V\u632f\u66ff\u4f11\u65e5
p3191
sg11
Nsg12
I2029
sg13
I9
sg14
Nsg15
Nsg16
I24
sbag2
(g3
g4
NtRp3192
(dp3193
g7
Nsg8
Nsg9
V\u4f53\u80b2\u306e\u65e5
p3194
sg11
Nsg12
I2029
sg13
I10
sg14
Nsg15
Nsg16
I8
sbag2
(g3
g4
NtRp3195
(dp3196
g7
Nsg8
Nsg9
V\u6587\u5316\u306e\u65e5
p3197
sg11
Nsg12
I2029
sg13
I11
sg14
Nsg15
Nsg16
I3
sbag2
(g3
g4
NtRp3198
(dp3199
g7
Nsg8
Nsg9
V\u52e4\u52b4\u611f\u8b1d\u306e\u65e5
p3200
sg11
Nsg12
I2029
sg13
I11
sg14
Nsg15
Nsg16
I23
sbag2
(g3
g4
NtRp3201
(dp3202
g7
Nsg8
Nsg9
V\u5929\u7687\u8a95\u751f\u65e5
p3203
sg11
Nsg12
I2029
sg13
I12
sg14
Nsg15
Nsg16
I23
sbag2
(g3
g4
NtRp3204
(dp3205
g7
Nsg8
Nsg9
V\u632f\u66ff\u4f11\u65e5
p3206
sg11
Nsg12
I2029
sg13
I12
sg14
Nsg15
Nsg16
I24
sbag2
(g3
g4
NtRp3207
(dp3208
g7
Nsg8
Nsg9
g19
sg11
Nsg12
I2029
sg13
I12
sg14
Nsg15
Nsg16
I31
sbag2
(g3
g4
NtRp3209
(dp3210
g7
Nsg8
Nsg9
V\u5143\u65e5
p3211
sg11
Nsg12
I2030
sg13
I1
sg14
Nsg15
Nsg16
I1
sbag2
(g3
g4
NtRp3212
(dp3213
g7
Nsg8
Nsg9
g19
sg11
Nsg12
I2030
sg13
I1
sg14
Nsg15
Nsg16
I2
sbag2
(g3
g4
NtRp3214
(dp3215
g7
Nsg8
Nsg9
g19
sg11
Nsg12
I2030
sg13
I1
sg14
Nsg15
Nsg16
I3
sbag2
(g3
g4
NtRp3216
(dp3217
g7
Nsg8
Nsg9
V\u6210\u4eba\u306e\u65e5
p3218
sg11
Nsg12
I2030
sg13
I1
sg14
Nsg15
Nsg16
I14
sbag2
(g3
g4
NtRp3219
(dp3220
g7
Nsg8
Nsg9
V\u5efa\u56fd\u8a18\u5ff5\u306e\u65e5
p3221
sg11
Nsg12
I2030
sg13
I2
sg14
Nsg15
Nsg16
I11
sbag2
(g3
g4
NtRp3222
(dp3223
g7
Nsg8
Nsg9
V\u6625\u5206\u306e\u65e5
p3224
sg11
Nsg12
I2030
sg13
I3
sg14
Nsg15
Nsg16
I20
sbag2
(g3
g4
NtRp3225
(dp3226
g7
Nsg8
Nsg9
V\u662d\u548c\u306e\u65e5
p3227
sg11
Nsg12
I2030
sg13
I4
sg14
Nsg15
Nsg16
I29
sbag2
(g3
g4
NtRp3228
(dp3229
g7
Nsg8
Nsg9
V\u61b2\u6cd5\u8a18\u5ff5\u65e5
p3230
sg11
Nsg12
I2030
sg13
I5
sg14
Nsg15
Nsg16
I3
sbag2
(g3
g4
NtRp3231
(dp3232
g7
Nsg8
Nsg9
V\u307f\u3069\u308a\u306e\u65e5
p3233
sg11
Nsg12
I2030
sg13
I5
sg14
Nsg15
Nsg16
I4
sbag2
(g3
g4
NtRp3234
(dp3235
g7
Nsg8
Nsg9
V\u3053\u3069\u3082\u306e\u65e5
p3236
sg11
Nsg12
I2030
sg13
I5
sg14
Nsg15
Nsg16
I5
sbag2
(g3
g4
NtRp3237
(dp3238
g7
Nsg8
Nsg9
V\u632f\u66ff\u4f11\u65e5
p3239
sg11
Nsg12
I2030
sg13
I5
sg14
Nsg15
Nsg16
I6
sbag2
(g3
g4
NtRp3240
(dp3241
g7
Nsg8
Nsg9
V\u6d77\u306e\u65e5
p3242
sg11
Nsg12
I2030
sg13
I7
sg14
Nsg15
Nsg16
I15
sbag2
(g3
g4
NtRp3243
(dp3244
g7
Nsg8
Nsg9
V\u5c71\u306e\u65e5
p3245
sg11
Nsg12
I2030
sg13
I8
sg14
Nsg15
Nsg16
I11
sbag2
(g3
g4
NtRp3246
(dp3247
g7
Nsg8
Nsg9
V\u632f\u66ff\u4f11\u65e5
p3248
sg11
Nsg12
I2020
sg13
I8
sg14
Nsg15
Nsg16
I12
sbag2
(g3
g4
NtRp3249
(dp3250
g7
Nsg8
Nsg9
V\u656c\u8001\u306e\u65e5
p3251
sg11
Nsg12
I2030
sg13
I9
sg14
Nsg15
Nsg16
I16
sbag2
(g3
g4
NtRp3252
(dp3253
g7
Nsg8
Nsg9
V\u79cb\u5206\u306e\u65e5
p3254
sg11
Nsg12
I2030
sg13
I9
sg14
Nsg15
Nsg16
I23
sbag2
(g3
g4
NtRp3255
(dp3256
g7
Nsg8
Nsg9
V\u4f53\u80b2\u306e\u65e5
p3257
sg11
Nsg12
I2030
sg13
I10
sg14
Nsg15
Nsg16
I14
sbag2
(g3
g4
NtRp3258
(dp3259
g7
Nsg8
Nsg9
V\u6587\u5316\u306e\u65e5
p3260
sg11
Nsg12
I2030
sg13
I11
sg14
Nsg15
Nsg16
I3
sbag2
(g3
g4
NtRp3261
(dp3262
g7
Nsg8
Nsg9
V\u632f\u66ff\u4f11\u65e5
p3263
sg11
Nsg12
I2030
sg13
I11
sg14
Nsg15
Nsg16
I4
sbag2
(g3
g4
NtRp3264
(dp3265
g7
Nsg8
Nsg9
V\u52e4\u52b4\u611f\u8b1d\u306e\u65e5
p3266
sg11
Nsg12
I2030
sg13
I11
sg14
Nsg15
Nsg16
I23
sbag2
(g3
g4
NtRp3267
(dp3268
g7
Nsg8
Nsg9
V\u5929\u7687\u8a95\u751f\u65e5
p3269
sg11
Nsg12
I2030
sg13
I12
sg14
Nsg15
Nsg16
I23
sbag2
(g3
g4
NtRp3270
(dp3271
g7
Nsg8
Nsg9
g19
sg11
Nsg12
I2030
sg13
I12
sg14
Nsg15
Nsg16
I31
sbag2
(g3
g4
NtRp3272
(dp3273
g7
Nsg8
Nsg9
V\u5143\u65e5
p3274
sg11
Nsg12
I2031
sg13
I1
sg14
Nsg15
Nsg16
I1
sbag2
(g3
g4
NtRp3275
(dp3276
g7
Nsg8
Nsg9
V\u6210\u4eba\u306e\u65e5
p3277
sg11
Nsg12
I2031
sg13
I1
sg14
Nsg15
Nsg16
I13
sbag2
(g3
g4
NtRp3278
(dp3279
g7
Nsg8
Nsg9
V\u5efa\u56fd\u8a18\u5ff5\u306e\u65e5
p3280
sg11
Nsg12
I2031
sg13
I2
sg14
Nsg15
Nsg16
I11
sbag2
(g3
g4
NtRp3281
(dp3282
g7
Nsg8
Nsg9
V\u6625\u5206\u306e\u65e5
p3283
sg11
Nsg12
I2031
sg13
I3
sg14
Nsg15
Nsg16
I21
sbag2
(g3
g4
NtRp3284
(dp3285
g7
Nsg8
Nsg9
V\u662d\u548c\u306e\u65e5
p3286
sg11
Nsg12
I2031
sg13
I4
sg14
Nsg15
Nsg16
I29
sbag2
(g3
g4
NtRp3287
(dp3288
g7
Nsg8
Nsg9
V\u61b2\u6cd5\u8a18\u5ff5\u65e5
p3289
sg11
Nsg12
I2031
sg13
I5
sg14
Nsg15
Nsg16
I3
sbag2
(g3
g4
NtRp3290
(dp3291
g7
Nsg8
Nsg9
V\u307f\u3069\u308a\u306e\u65e5
p3292
sg11
Nsg12
I2031
sg13
I5
sg14
Nsg15
Nsg16
I4
sbag2
(g3
g4
NtRp3293
(dp3294
g7
Nsg8
Nsg9
V\u3053\u3069\u3082\u306e\u65e5
p3295
sg11
Nsg12
I2031
sg13
I5
sg14
Nsg15
Nsg16
I5
sbag2
(g3
g4
NtRp3296
(dp3297
g7
Nsg8
Nsg9
V\u632f\u66ff\u4f11\u65e5
p3298
sg11
Nsg12
I2031
sg13
I5
sg14
Nsg15
Nsg16
I6
sbag2
(g3
g4
NtRp3299
(dp3300
g7
Nsg8
Nsg9
V\u6d77\u306e\u65e5
p3301
sg11
Nsg12
I2031
sg13
I7
sg14
Nsg15
Nsg16
I21
sbag2
(g3
g4
NtRp3302
(dp3303
g7
Nsg8
Nsg9
V\u5c71\u306e\u65e5
p3304
sg11
Nsg12
I2031
sg13
I8
sg14
Nsg15
Nsg16
I11
sbag2
(g3
g4
NtRp3305
(dp3306
g7
Nsg8
Nsg9
V\u656c\u8001\u306e\u65e5
p3307
sg11
Nsg12
I2031
sg13
I9
sg14
Nsg15
Nsg16
I15
sbag2
(g3
g4
NtRp3308
(dp3309
g7
Nsg8
Nsg9
V\u79cb\u5206\u306e\u65e5
p3310
sg11
Nsg12
I2031
sg13
I9
sg14
Nsg15
Nsg16
I23
sbag2
(g3
g4
NtRp3311
(dp3312
g7
Nsg8
Nsg9
V\u4f53\u80b2\u306e\u65e5
p3313
sg11
Nsg12
I2031
sg13
I10
sg14
Nsg15
Nsg16
I13
sbag2
(g3
g4
NtRp3314
(dp3315
g7
Nsg8
Nsg9
V\u6587\u5316\u306e\u65e5
p3316
sg11
Nsg12
I2031
sg13
I11
sg14
Nsg15
Nsg16
I3
sbag2
(g3
g4
NtRp3317
(dp3318
g7
Nsg8
Nsg9
V\u52e4\u52b4\u611f\u8b1d\u306e\u65e5
p3319
sg11
Nsg12
I2031
sg13
I11
sg14
Nsg15
Nsg16
I23
sbag2
(g3
g4
NtRp3320
(dp3321
g7
Nsg8
Nsg9
V\u632f\u66ff\u4f11\u65e5
p3322
sg11
Nsg12
I2031
sg13
I11
sg14
Nsg15
Nsg16
I24
sbag2
(g3
g4
NtRp3323
(dp3324
g7
Nsg8
Nsg9
V\u5929\u7687\u8a95\u751f\u65e5
p3325
sg11
Nsg12
I2031
sg13
I12
sg14
Nsg15
Nsg16
I23
sbag2
(g3
g4
NtRp3326
(dp3327
g7
Nsg8
Nsg9
V\u5143\u65e5
p3328
sg11
Nsg12
I2032
sg13
I1
sg14
Nsg15
Nsg16
I1
sbag2
(g3
g4
NtRp3329
(dp3330
g7
Nsg8
Nsg9
V\u6210\u4eba\u306e\u65e5
p3331
sg11
Nsg12
I2032
sg13
I1
sg14
Nsg15
Nsg16
I12
sbag2
(g3
g4
NtRp3332
(dp3333
g7
Nsg8
Nsg9
V\u5efa\u56fd\u8a18\u5ff5\u306e\u65e5
p3334
sg11
Nsg12
I2032
sg13
I2
sg14
Nsg15
Nsg16
I11
sbag2
(g3
g4
NtRp3335
(dp3336
g7
Nsg8
Nsg9
V\u6625\u5206\u306e\u65e5
p3337
sg11
Nsg12
I2032
sg13
I3
sg14
Nsg15
Nsg16
I20
sbag2
(g3
g4
NtRp3338
(dp3339
g7
Nsg8
Nsg9
V\u662d\u548c\u306e\u65e5
p3340
sg11
Nsg12
I2032
sg13
I4
sg14
Nsg15
Nsg16
I29
sbag2
(g3
g4
NtRp3341
(dp3342
g7
Nsg8
Nsg9
V\u61b2\u6cd5\u8a18\u5ff5\u65e5
p3343
sg11
Nsg12
I2032
sg13
I5
sg14
Nsg15
Nsg16
I3
sbag2
(g3
g4
NtRp3344
(dp3345
g7
Nsg8
Nsg9
V\u307f\u3069\u308a\u306e\u65e5
p3346
sg11
Nsg12
I2032
sg13
I5
sg14
Nsg15
Nsg16
I4
sbag2
(g3
g4
NtRp3347
(dp3348
g7
Nsg8
Nsg9
V\u3053\u3069\u3082\u306e\u65e5
p3349
sg11
Nsg12
I2032
sg13
I5
sg14
Nsg15
Nsg16
I5
sbag2
(g3
g4
NtRp3350
(dp3351
g7
Nsg8
Nsg9
V\u6d77\u306e\u65e5
p3352
sg11
Nsg12
I2032
sg13
I7
sg14
Nsg15
Nsg16
I19
sbag2
(g3
g4
NtRp3353
(dp3354
g7
Nsg8
Nsg9
V\u5c71\u306e\u65e5
p3355
sg11
Nsg12
I2032
sg13
I8
sg14
Nsg15
Nsg16
I11
sbag2
(g3
g4
NtRp3356
(dp3357
g7
Nsg8
Nsg9
V\u656c\u8001\u306e\u65e5
p3358
sg11
Nsg12
I2032
sg13
I9
sg14
Nsg15
Nsg16
I20
sbag2
(g3
g4
NtRp3359
(dp3360
g7
Nsg8
Nsg9
V\u56fd\u6c11\u306e\u4f11\u65e5
p3361
sg11
Nsg12
I2032
sg13
I9
sg14
Nsg15
Nsg16
I21
sbag2
(g3
g4
NtRp3362
(dp3363
g7
Nsg8
Nsg9
V\u79cb\u5206\u306e\u65e5
p3364
sg11
Nsg12
I2032
sg13
I9
sg14
Nsg15
Nsg16
I22
sbag2
(g3
g4
NtRp3365
(dp3366
g7
Nsg8
Nsg9
V\u4f53\u80b2\u306e\u65e5
p3367
sg11
Nsg12
I2032
sg13
I10
sg14
Nsg15
Nsg16
I11
sbag2
(g3
g4
NtRp3368
(dp3369
g7
Nsg8
Nsg9
V\u6587\u5316\u306e\u65e5
p3370
sg11
Nsg12
I2032
sg13
I11
sg14
Nsg15
Nsg16
I3
sbag2
(g3
g4
NtRp3371
(dp3372
g7
Nsg8
Nsg9
V\u52e4\u52b4\u611f\u8b1d\u306e\u65e5
p3373
sg11
Nsg12
I2032
sg13
I11
sg14
Nsg15
Nsg16
I23
sbag2
(g3
g4
NtRp3374
(dp3375
g7
Nsg8
Nsg9
V\u5929\u7687\u8a95\u751f\u65e5
p3376
sg11
Nsg12
I2032
sg13
I12
sg14
Nsg15
Nsg16
I23
sbag2
(g3
g4
NtRp3377
(dp3378
g7
Nsg8
Nsg9
V\u5143\u65e5
p3379
sg11
Nsg12
I2033
sg13
I1
sg14
Nsg15
Nsg16
I1
sbag2
(g3
g4
NtRp3380
(dp3381
g7
Nsg8
Nsg9
V\u6210\u4eba\u306e\u65e5
p3382
sg11
Nsg12
I2033
sg13
I1
sg14
Nsg15
Nsg16
I10
sbag2
(g3
g4
NtRp3383
(dp3384
g7
Nsg8
Nsg9
V\u5efa\u56fd\u8a18\u5ff5\u306e\u65e5
p3385
sg11
Nsg12
I2033
sg13
I2
sg14
Nsg15
Nsg16
I11
sbag2
(g3
g4
NtRp3386
(dp3387
g7
Nsg8
Nsg9
V\u6625\u5206\u306e\u65e5
p3388
sg11
Nsg12
I2033
sg13
I3
sg14
Nsg15
Nsg16
I20
sbag2
(g3
g4
NtRp3389
(dp3390
g7
Nsg8
Nsg9
V\u632f\u66ff\u4f11\u65e5
p3391
sg11
Nsg12
I2033
sg13
I3
sg14
Nsg15
Nsg16
I21
sbag2
(g3
g4
NtRp3392
(dp3393
g7
Nsg8
Nsg9
V\u662d\u548c\u306e\u65e5
p3394
sg11
Nsg12
I2033
sg13
I4
sg14
Nsg15
Nsg16
I29
sbag2
(g3
g4
NtRp3395
(dp3396
g7
Nsg8
Nsg9
V\u61b2\u6cd5\u8a18\u5ff5\u65e5
p3397
sg11
Nsg12
I2033
sg13
I5
sg14
Nsg15
Nsg16
I3
sbag2
(g3
g4
NtRp3398
(dp3399
g7
Nsg8
Nsg9
V\u307f\u3069\u308a\u306e\u65e5
p3400
sg11
Nsg12
I2033
sg13
I5
sg14
Nsg15
Nsg16
I4
sbag2
(g3
g4
NtRp3401
(dp3402
g7
Nsg8
Nsg9
V\u3053\u3069\u3082\u306e\u65e5
p3403
sg11
Nsg12
I2033
sg13
I5
sg14
Nsg15
Nsg16
I5
sbag2
(g3
g4
NtRp3404
(dp3405
g7
Nsg8
Nsg9
V\u6d77\u306e\u65e5
p3406
sg11
Nsg12
I2033
sg13
I7
sg14
Nsg15
Nsg16
I18
sbag2
(g3
g4
NtRp3407
(dp3408
g7
Nsg8
Nsg9
V\u5c71\u306e\u65e5
p3409
sg11
Nsg12
I2033
sg13
I8
sg14
Nsg15
Nsg16
I11
sbag2
(g3
g4
NtRp3410
(dp3411
g7
Nsg8
Nsg9
V\u656c\u8001\u306e\u65e5
p3412
sg11
Nsg12
I2033
sg13
I9
sg14
Nsg15
Nsg16
I19
sbag2
(g3
g4
NtRp3413
(dp3414
g7
Nsg8
Nsg9
V\u79cb\u5206\u306e\u65e5
p3415
sg11
Nsg12
I2033
sg13
I9
sg14
Nsg15
Nsg16
I23
sbag2
(g3
g4
NtRp3416
(dp3417
g7
Nsg8
Nsg9
V\u4f53\u80b2\u306e\u65e5
p3418
sg11
Nsg12
I2033
sg13
I10
sg14
Nsg15
Nsg16
I10
sbag2
(g3
g4
NtRp3419
(dp3420
g7
Nsg8
Nsg9
V\u6587\u5316\u306e\u65e5
p3421
sg11
Nsg12
I2033
sg13
I11
sg14
Nsg15
Nsg16
I3
sbag2
(g3
g4
NtRp3422
(dp3423
g7
Nsg8
Nsg9
V\u52e4\u52b4\u611f\u8b1d\u306e\u65e5
p3424
sg11
Nsg12
I2033
sg13
I11
sg14
Nsg15
Nsg16
I23
sbag2
(g3
g4
NtRp3425
(dp3426
g7
Nsg8
Nsg9
V\u5929\u7687\u8a95\u751f\u65e5
p3427
sg11
Nsg12
I2033
sg13
I12
sg14
Nsg15
Nsg16
I23
sbag2
(g3
g4
NtRp3428
(dp3429
g7
Nsg8
Nsg9
V\u5143\u65e5
p3430
sg11
Nsg12
I2034
sg13
I1
sg14
Nsg15
Nsg16
I1
sbag2
(g3
g4
NtRp3431
(dp3432
g7
Nsg8
Nsg9
V\u632f\u66ff\u4f11\u65e5
p3433
sg11
Nsg12
I2034
sg13
I1
sg14
Nsg15
Nsg16
I2
sbag2
(g3
g4
NtRp3434
(dp3435
g7
Nsg8
Nsg9
V\u6210\u4eba\u306e\u65e5
p3436
sg11
Nsg12
I2034
sg13
I1
sg14
Nsg15
Nsg16
I9
sbag2
(g3
g4
NtRp3437
(dp3438
g7
Nsg8
Nsg9
V\u5efa\u56fd\u8a18\u5ff5\u306e\u65e5
p3439
sg11
Nsg12
I2034
sg13
I2
sg14
Nsg15
Nsg16
I11
sbag2
(g3
g4
NtRp3440
(dp3441
g7
Nsg8
Nsg9
V\u6625\u5206\u306e\u65e5
p3442
sg11
Nsg12
I2034
sg13
I3
sg14
Nsg15
Nsg16
I20
sbag2
(g3
g4
NtRp3443
(dp3444
g7
Nsg8
Nsg9
V\u662d\u548c\u306e\u65e5
p3445
sg11
Nsg12
I2034
sg13
I4
sg14
Nsg15
Nsg16
I29
sbag2
(g3
g4
NtRp3446
(dp3447
g7
Nsg8
Nsg9
V\u61b2\u6cd5\u8a18\u5ff5\u65e5
p3448
sg11
Nsg12
I2034
sg13
I5
sg14
Nsg15
Nsg16
I3
sbag2
(g3
g4
NtRp3449
(dp3450
g7
Nsg8
Nsg9
V\u307f\u3069\u308a\u306e\u65e5
p3451
sg11
Nsg12
I2034
sg13
I5
sg14
Nsg15
Nsg16
I4
sbag2
(g3
g4
NtRp3452
(dp3453
g7
Nsg8
Nsg9
V\u3053\u3069\u3082\u306e\u65e5
p3454
sg11
Nsg12
I2034
sg13
I5
sg14
Nsg15
Nsg16
I5
sbag2
(g3
g4
NtRp3455
(dp3456
g7
Nsg8
Nsg9
V\u6d77\u306e\u65e5
p3457
sg11
Nsg12
I2034
sg13
I7
sg14
Nsg15
Nsg16
I17
sbag2
(g3
g4
NtRp3458
(dp3459
g7
Nsg8
Nsg9
V\u5c71\u306e\u65e5
p3460
sg11
Nsg12
I2034
sg13
I8
sg14
Nsg15
Nsg16
I11
sbag2
(g3
g4
NtRp3461
(dp3462
g7
Nsg8
Nsg9
V\u656c\u8001\u306e\u65e5
p3463
sg11
Nsg12
I2034
sg13
I9
sg14
Nsg15
Nsg16
I18
sbag2
(g3
g4
NtRp3464
(dp3465
g7
Nsg8
Nsg9
V\u79cb\u5206\u306e\u65e5
p3466
sg11
Nsg12
I2034
sg13
I9
sg14
Nsg15
Nsg16
I23
sbag2
(g3
g4
NtRp3467
(dp3468
g7
Nsg8
Nsg9
V\u4f53\u80b2\u306e\u65e5
p3469
sg11
Nsg12
I2034
sg13
I10
sg14
Nsg15
Nsg16
I9
sbag2
(g3
g4
NtRp3470
(dp3471
g7
Nsg8
Nsg9
V\u6587\u5316\u306e\u65e5
p3472
sg11
Nsg12
I2034
sg13
I11
sg14
Nsg15
Nsg16
I3
sbag2
(g3
g4
NtRp3473
(dp3474
g7
Nsg8
Nsg9
V\u52e4\u52b4\u611f\u8b1d\u306e\u65e5
p3475
sg11
Nsg12
I2034
sg13
I11
sg14
Nsg15
Nsg16
I23
sbag2
(g3
g4
NtRp3476
(dp3477
g7
Nsg8
Nsg9
V\u5929\u7687\u8a95\u751f\u65e5
p3478
sg11
Nsg12
I2034
sg13
I12
sg14
Nsg15
Nsg16
I23
sbag2
(g3
g4
NtRp3479
(dp3480
g7
Nsg8
Nsg9
V\u5143\u65e5
p3481
sg11
Nsg12
I2035
sg13
I1
sg14
Nsg15
Nsg16
I1
sbag2
(g3
g4
NtRp3482
(dp3483
g7
Nsg8
Nsg9
V\u6210\u4eba\u306e\u65e5
p3484
sg11
Nsg12
I2035
sg13
I1
sg14
Nsg15
Nsg16
I8
sbag2
(g3
g4
NtRp3485
(dp3486
g7
Nsg8
Nsg9
V\u5efa\u56fd\u8a18\u5ff5\u306e\u65e5
p3487
sg11
Nsg12
I2035
sg13
I2
sg14
Nsg15
Nsg16
I11
sbag2
(g3
g4
NtRp3488
(dp3489
g7
Nsg8
Nsg9
V\u632f\u66ff\u4f11\u65e5
p3490
sg11
Nsg12
I2035
sg13
I2
sg14
Nsg15
Nsg16
I12
sbag2
(g3
g4
NtRp3491
(dp3492
g7
Nsg8
Nsg9
V\u6625\u5206\u306e\u65e5
p3493
sg11
Nsg12
I2035
sg13
I3
sg14
Nsg15
Nsg16
I21
sbag2
(g3
g4
NtRp3494
(dp3495
g7
Nsg8
Nsg9
V\u662d\u548c\u306e\u65e5
p3496
sg11
Nsg12
I2035
sg13
I4
sg14
Nsg15
Nsg16
I29
sbag2
(g3
g4
NtRp3497
(dp3498
g7
Nsg8
Nsg9
V\u632f\u66ff\u4f11\u65e5
p3499
sg11
Nsg12
I2035
sg13
I4
sg14
Nsg15
Nsg16
I30
sbag2
(g3
g4
NtRp3500
(dp3501
g7
Nsg8
Nsg9
V\u61b2\u6cd5\u8a18\u5ff5\u65e5
p3502
sg11
Nsg12
I2035
sg13
I5
sg14
Nsg15
Nsg16
I3
sbag2
(g3
g4
NtRp3503
(dp3504
g7
Nsg8
Nsg9
V\u307f\u3069\u308a\u306e\u65e5
p3505
sg11
Nsg12
I2035
sg13
I5
sg14
Nsg15
Nsg16
I4
sbag2
(g3
g4
NtRp3506
(dp3507
g7
Nsg8
Nsg9
V\u3053\u3069\u3082\u306e\u65e5
p3508
sg11
Nsg12
I2035
sg13
I5
sg14
Nsg15
Nsg16
I5
sbag2
(g3
g4
NtRp3509
(dp3510
g7
Nsg8
Nsg9
V\u6d77\u306e\u65e5
p3511
sg11
Nsg12
I2035
sg13
I7
sg14
Nsg15
Nsg16
I16
sbag2
(g3
g4
NtRp3512
(dp3513
g7
Nsg8
Nsg9
V\u5c71\u306e\u65e5
p3514
sg11
Nsg12
I2035
sg13
I8
sg14
Nsg15
Nsg16
I11
sbag2
(g3
g4
NtRp3515
(dp3516
g7
Nsg8
Nsg9
V\u656c\u8001\u306e\u65e5
p3517
sg11
Nsg12
I2035
sg13
I9
sg14
Nsg15
Nsg16
I17
sbag2
(g3
g4
NtRp3518
(dp3519
g7
Nsg8
Nsg9
V\u79cb\u5206\u306e\u65e5
p3520
sg11
Nsg12
I2035
sg13
I9
sg14
Nsg15
Nsg16
I23
sbag2
(g3
g4
NtRp3521
(dp3522
g7
Nsg8
Nsg9
V\u632f\u66ff\u4f11\u65e5
p3523
sg11
Nsg12
I2035
sg13
I9
sg14
Nsg15
Nsg16
I24
sbag2
(g3
g4
NtRp3524
(dp3525
g7
Nsg8
Nsg9
V\u4f53\u80b2\u306e\u65e5
p3526
sg11
Nsg12
I2035
sg13
I10
sg14
Nsg15
Nsg16
I8
sbag2
(g3
g4
NtRp3527
(dp3528
g7
Nsg8
Nsg9
V\u6587\u5316\u306e\u65e5
p3529
sg11
Nsg12
I2035
sg13
I11
sg14
Nsg15
Nsg16
I3
sbag2
(g3
g4
NtRp3530
(dp3531
g7
Nsg8
Nsg9
V\u52e4\u52b4\u611f\u8b1d\u306e\u65e5
p3532
sg11
Nsg12
I2035
sg13
I11
sg14
Nsg15
Nsg16
I23
sbag2
(g3
g4
NtRp3533
(dp3534
g7
Nsg8
Nsg9
V\u5929\u7687\u8a95\u751f\u65e5
p3535
sg11
Nsg12
I2035
sg13
I12
sg14
Nsg15
Nsg16
I23
sbag2
(g3
g4
NtRp3536
(dp3537
g7
Nsg8
Nsg9
V\u632f\u66ff\u4f11\u65e5
p3538
sg11
Nsg12
I2035
sg13
I12
sg14
Nsg15
Nsg16
I24
sbag2
(g3
g4
NtRp3539
(dp3540
g7
Nsg8
Nsg9
V\u5143\u65e5
p3541
sg11
Nsg12
I2036
sg13
I1
sg14
Nsg15
Nsg16
I1
sbag2
(g3
g4
NtRp3542
(dp3543
g7
Nsg8
Nsg9
V\u6210\u4eba\u306e\u65e5
p3544
sg11
Nsg12
I2036
sg13
I1
sg14
Nsg15
Nsg16
I14
sbag2
(g3
g4
NtRp3545
(dp3546
g7
Nsg8
Nsg9
V\u5efa\u56fd\u8a18\u5ff5\u306e\u65e5
p3547
sg11
Nsg12
I2036
sg13
I2
sg14
Nsg15
Nsg16
I11
sbag2
(g3
g4
NtRp3548
(dp3549
g7
Nsg8
Nsg9
V\u6625\u5206\u306e\u65e5
p3550
sg11
Nsg12
I2036
sg13
I3
sg14
Nsg15
Nsg16
I20
sbag2
(g3
g4
NtRp3551
(dp3552
g7
Nsg8
Nsg9
V\u662d\u548c\u306e\u65e5
p3553
sg11
Nsg12
I2036
sg13
I4
sg14
Nsg15
Nsg16
I29
sbag2
(g3
g4
NtRp3554
(dp3555
g7
Nsg8
Nsg9
V\u61b2\u6cd5\u8a18\u5ff5\u65e5
p3556
sg11
Nsg12
I2036
sg13
I5
sg14
Nsg15
Nsg16
I3
sbag2
(g3
g4
NtRp3557
(dp3558
g7
Nsg8
Nsg9
V\u307f\u3069\u308a\u306e\u65e5
p3559
sg11
Nsg12
I2036
sg13
I5
sg14
Nsg15
Nsg16
I4
sbag2
(g3
g4
NtRp3560
(dp3561
g7
Nsg8
Nsg9
V\u3053\u3069\u3082\u306e\u65e5
p3562
sg11
Nsg12
I2036
sg13
I5
sg14
Nsg15
Nsg16
I5
sbag2
(g3
g4
NtRp3563
(dp3564
g7
Nsg8
Nsg9
V\u632f\u66ff\u4f11\u65e5
p3565
sg11
Nsg12
I2036
sg13
I5
sg14
Nsg15
Nsg16
I6
sbag2
(g3
g4
NtRp3566
(dp3567
g7
Nsg8
Nsg9
V\u6d77\u306e\u65e5
p3568
sg11
Nsg12
I2036
sg13
I7
sg14
Nsg15
Nsg16
I21
sbag2
(g3
g4
NtRp3569
(dp3570
g7
Nsg8
Nsg9
V\u5c71\u306e\u65e5
p3571
sg11
Nsg12
I2036
sg13
I8
sg14
Nsg15
Nsg16
I11
sbag2
(g3
g4
NtRp3572
(dp3573
g7
Nsg8
Nsg9
V\u656c\u8001\u306e\u65e5
p3574
sg11
Nsg12
I2036
sg13
I9
sg14
Nsg15
Nsg16
I15
sbag2
(g3
g4
NtRp3575
(dp3576
g7
Nsg8
Nsg9
V\u79cb\u5206\u306e\u65e5
p3577
sg11
Nsg12
I2036
sg13
I9
sg14
Nsg15
Nsg16
I22
sbag2
(g3
g4
NtRp3578
(dp3579
g7
Nsg8
Nsg9
V\u4f53\u80b2\u306e\u65e5
p3580
sg11
Nsg12
I2036
sg13
I10
sg14
Nsg15
Nsg16
I13
sbag2
(g3
g4
NtRp3581
(dp3582
g7
Nsg8
Nsg9
V\u6587\u5316\u306e\u65e5
p3583
sg11
Nsg12
I2036
sg13
I11
sg14
Nsg15
Nsg16
I3
sbag2
(g3
g4
NtRp3584
(dp3585
g7
Nsg8
Nsg9
V\u52e4\u52b4\u611f\u8b1d\u306e\u65e5
p3586
sg11
Nsg12
I2036
sg13
I11
sg14
Nsg15
Nsg16
I23
sbag2
(g3
g4
NtRp3587
(dp3588
g7
Nsg8
Nsg9
V\u632f\u66ff\u4f11\u65e5
p3589
sg11
Nsg12
I2036
sg13
I11
sg14
Nsg15
Nsg16
I24
sbag2
(g3
g4
NtRp3590
(dp3591
g7
Nsg8
Nsg9
V\u5929\u7687\u8a95\u751f\u65e5
p3592
sg11
Nsg12
I2036
sg13
I12
sg14
Nsg15
Nsg16
I23
sbag2
(g3
g4
NtRp3593
(dp3594
g7
Nsg8
Nsg9
V\u5143\u65e5
p3595
sg11
Nsg12
I2037
sg13
I1
sg14
Nsg15
Nsg16
I1
sbag2
(g3
g4
NtRp3596
(dp3597
g7
Nsg8
Nsg9
V\u6210\u4eba\u306e\u65e5
p3598
sg11
Nsg12
I2037
sg13
I1
sg14
Nsg15
Nsg16
I12
sbag2
(g3
g4
NtRp3599
(dp3600
g7
Nsg8
Nsg9
V\u5efa\u56fd\u8a18\u5ff5\u306e\u65e5
p3601
sg11
Nsg12
I2037
sg13
I2
sg14
Nsg15
Nsg16
I11
sbag2
(g3
g4
NtRp3602
(dp3603
g7
Nsg8
Nsg9
V\u6625\u5206\u306e\u65e5
p3604
sg11
Nsg12
I2037
sg13
I3
sg14
Nsg15
Nsg16
I20
sbag2
(g3
g4
NtRp3605
(dp3606
g7
Nsg8
Nsg9
V\u662d\u548c\u306e\u65e5
p3607
sg11
Nsg12
I2037
sg13
I4
sg14
Nsg15
Nsg16
I29
sbag2
(g3
g4
NtRp3608
(dp3609
g7
Nsg8
Nsg9
V\u61b2\u6cd5\u8a18\u5ff5\u65e5
p3610
sg11
Nsg12
I2037
sg13
I5
sg14
Nsg15
Nsg16
I3
sbag2
(g3
g4
NtRp3611
(dp3612
g7
Nsg8
Nsg9
V\u307f\u3069\u308a\u306e\u65e5
p3613
sg11
Nsg12
I2037
sg13
I5
sg14
Nsg15
Nsg16
I4
sbag2
(g3
g4
NtRp3614
(dp3615
g7
Nsg8
Nsg9
V\u3053\u3069\u3082\u306e\u65e5
p3616
sg11
Nsg12
I2037
sg13
I5
sg14
Nsg15
Nsg16
I5
sbag2
(g3
g4
NtRp3617
(dp3618
g7
Nsg8
Nsg9
V\u632f\u66ff\u4f11\u65e5
p3619
sg11
Nsg12
I2037
sg13
I5
sg14
Nsg15
Nsg16
I6
sbag2
(g3
g4
NtRp3620
(dp3621
g7
Nsg8
Nsg9
V\u6d77\u306e\u65e5
p3622
sg11
Nsg12
I2037
sg13
I7
sg14
Nsg15
Nsg16
I20
sbag2
(g3
g4
NtRp3623
(dp3624
g7
Nsg8
Nsg9
V\u5c71\u306e\u65e5
p3625
sg11
Nsg12
I2037
sg13
I8
sg14
Nsg15
Nsg16
I11
sbag2
(g3
g4
NtRp3626
(dp3627
g7
Nsg8
Nsg9
V\u656c\u8001\u306e\u65e5
p3628
sg11
Nsg12
I2037
sg13
I9
sg14
Nsg15
Nsg16
I21
sbag2
(g3
g4
NtRp3629
(dp3630
g7
Nsg8
Nsg9
V\u56fd\u6c11\u306e\u4f11\u65e5
p3631
sg11
Nsg12
I2037
sg13
I9
sg14
Nsg15
Nsg16
I22
sbag2
(g3
g4
NtRp3632
(dp3633
g7
Nsg8
Nsg9
V\u79cb\u5206\u306e\u65e5
p3634
sg11
Nsg12
I2037
sg13
I9
sg14
Nsg15
Nsg16
I23
sbag2
(g3
g4
NtRp3635
(dp3636
g7
Nsg8
Nsg9
V\u4f53\u80b2\u306e\u65e5
p3637
sg11
Nsg12
I2037
sg13
I10
sg14
Nsg15
Nsg16
I12
sbag2
(g3
g4
NtRp3638
(dp3639
g7
Nsg8
Nsg9
V\u6587\u5316\u306e\u65e5
p3640
sg11
Nsg12
I2037
sg13
I11
sg14
Nsg15
Nsg16
I3
sbag2
(g3
g4
NtRp3641
(dp3642
g7
Nsg8
Nsg9
V\u52e4\u52b4\u611f\u8b1d\u306e\u65e5
p3643
sg11
Nsg12
I2037
sg13
I11
sg14
Nsg15
Nsg16
I23
sbag2
(g3
g4
NtRp3644
(dp3645
g7
Nsg8
Nsg9
V\u5929\u7687\u8a95\u751f\u65e5
p3646
sg11
Nsg12
I2037
sg13
I12
sg14
Nsg15
Nsg16
I23
sbag2
(g3
g4
NtRp3647
(dp3648
g7
Nsg8
Nsg9
V\u5143\u65e5
p3649
sg11
Nsg12
I2038
sg13
I1
sg14
Nsg15
Nsg16
I1
sbag2
(g3
g4
NtRp3650
(dp3651
g7
Nsg8
Nsg9
V\u6210\u4eba\u306e\u65e5
p3652
sg11
Nsg12
I2038
sg13
I1
sg14
Nsg15
Nsg16
I11
sbag2
(g3
g4
NtRp3653
(dp3654
g7
Nsg8
Nsg9
V\u5efa\u56fd\u8a18\u5ff5\u306e\u65e5
p3655
sg11
Nsg12
I2038
sg13
I2
sg14
Nsg15
Nsg16
I11
sbag2
(g3
g4
NtRp3656
(dp3657
g7
Nsg8
Nsg9
V\u6625\u5206\u306e\u65e5
p3658
sg11
Nsg12
I2038
sg13
I3
sg14
Nsg15
Nsg16
I20
sbag2
(g3
g4
NtRp3659
(dp3660
g7
Nsg8
Nsg9
V\u662d\u548c\u306e\u65e5
p3661
sg11
Nsg12
I2038
sg13
I4
sg14
Nsg15
Nsg16
I29
sbag2
(g3
g4
NtRp3662
(dp3663
g7
Nsg8
Nsg9
V\u61b2\u6cd5\u8a18\u5ff5\u65e5
p3664
sg11
Nsg12
I2038
sg13
I5
sg14
Nsg15
Nsg16
I3
sbag2
(g3
g4
NtRp3665
(dp3666
g7
Nsg8
Nsg9
V\u307f\u3069\u308a\u306e\u65e5
p3667
sg11
Nsg12
I2038
sg13
I5
sg14
Nsg15
Nsg16
I4
sbag2
(g3
g4
NtRp3668
(dp3669
g7
Nsg8
Nsg9
V\u3053\u3069\u3082\u306e\u65e5
p3670
sg11
Nsg12
I2038
sg13
I5
sg14
Nsg15
Nsg16
I5
sbag2
(g3
g4
NtRp3671
(dp3672
g7
Nsg8
Nsg9
V\u6d77\u306e\u65e5
p3673
sg11
Nsg12
I2038
sg13
I7
sg14
Nsg15
Nsg16
I19
sbag2
(g3
g4
NtRp3674
(dp3675
g7
Nsg8
Nsg9
V\u5c71\u306e\u65e5
p3676
sg11
Nsg12
I2038
sg13
I8
sg14
Nsg15
Nsg16
I11
sbag2
(g3
g4
NtRp3677
(dp3678
g7
Nsg8
Nsg9
V\u656c\u8001\u306e\u65e5
p3679
sg11
Nsg12
I2038
sg13
I9
sg14
Nsg15
Nsg16
I20
sbag2
(g3
g4
NtRp3680
(dp3681
g7
Nsg8
Nsg9
V\u79cb\u5206\u306e\u65e5
p3682
sg11
Nsg12
I2038
sg13
I9
sg14
Nsg15
Nsg16
I23
sbag2
(g3
g4
NtRp3683
(dp3684
g7
Nsg8
Nsg9
V\u4f53\u80b2\u306e\u65e5
p3685
sg11
Nsg12
I2038
sg13
I10
sg14
Nsg15
Nsg16
I11
sbag2
(g3
g4
NtRp3686
(dp3687
g7
Nsg8
Nsg9
V\u6587\u5316\u306e\u65e5
p3688
sg11
Nsg12
I2038
sg13
I11
sg14
Nsg15
Nsg16
I3
sbag2
(g3
g4
NtRp3689
(dp3690
g7
Nsg8
Nsg9
V\u52e4\u52b4\u611f\u8b1d\u306e\u65e5
p3691
sg11
Nsg12
I2038
sg13
I11
sg14
Nsg15
Nsg16
I23
sbag2
(g3
g4
NtRp3692
(dp3693
g7
Nsg8
Nsg9
V\u5929\u7687\u8a95\u751f\u65e5
p3694
sg11
Nsg12
I2038
sg13
I12
sg14
Nsg15
Nsg16
I23
sbag2
(g3
g4
NtRp3695
(dp3696
g7
Nsg8
Nsg9
V\u5143\u65e5
p3697
sg11
Nsg12
I2039
sg13
I1
sg14
Nsg15
Nsg16
I1
sbag2
(g3
g4
NtRp3698
(dp3699
g7
Nsg8
Nsg9
V\u6210\u4eba\u306e\u65e5
p3700
sg11
Nsg12
I2039
sg13
I1
sg14
Nsg15
Nsg16
I10
sbag2
(g3
g4
NtRp3701
(dp3702
g7
Nsg8
Nsg9
V\u5efa\u56fd\u8a18\u5ff5\u306e\u65e5
p3703
sg11
Nsg12
I2039
sg13
I2
sg14
Nsg15
Nsg16
I11
sbag2
(g3
g4
NtRp3704
(dp3705
g7
Nsg8
Nsg9
V\u6625\u5206\u306e\u65e5
p3706
sg11
Nsg12
I2039
sg13
I3
sg14
Nsg15
Nsg16
I21
sbag2
(g3
g4
NtRp3707
(dp3708
g7
Nsg8
Nsg9
V\u662d\u548c\u306e\u65e5
p3709
sg11
Nsg12
I2039
sg13
I4
sg14
Nsg15
Nsg16
I29
sbag2
(g3
g4
NtRp3710
(dp3711
g7
Nsg8
Nsg9
V\u61b2\u6cd5\u8a18\u5ff5\u65e5
p3712
sg11
Nsg12
I2039
sg13
I5
sg14
Nsg15
Nsg16
I3
sbag2
(g3
g4
NtRp3713
(dp3714
g7
Nsg8
Nsg9
V\u307f\u3069\u308a\u306e\u65e5
p3715
sg11
Nsg12
I2039
sg13
I5
sg14
Nsg15
Nsg16
I4
sbag2
(g3
g4
NtRp3716
(dp3717
g7
Nsg8
Nsg9
V\u3053\u3069\u3082\u306e\u65e5
p3718
sg11
Nsg12
I2039
sg13
I5
sg14
Nsg15
Nsg16
I5
sbag2
(g3
g4
NtRp3719
(dp3720
g7
Nsg8
Nsg9
V\u6d77\u306e\u65e5
p3721
sg11
Nsg12
I2039
sg13
I7
sg14
Nsg15
Nsg16
I18
sbag2
(g3
g4
NtRp3722
(dp3723
g7
Nsg8
Nsg9
V\u5c71\u306e\u65e5
p3724
sg11
Nsg12
I2039
sg13
I8
sg14
Nsg15
Nsg16
I11
sbag2
(g3
g4
NtRp3725
(dp3726
g7
Nsg8
Nsg9
V\u656c\u8001\u306e\u65e5
p3727
sg11
Nsg12
I2039
sg13
I9
sg14
Nsg15
Nsg16
I19
sbag2
(g3
g4
NtRp3728
(dp3729
g7
Nsg8
Nsg9
V\u79cb\u5206\u306e\u65e5
p3730
sg11
Nsg12
I2039
sg13
I9
sg14
Nsg15
Nsg16
I23
sbag2
(g3
g4
NtRp3731
(dp3732
g7
Nsg8
Nsg9
V\u4f53\u80b2\u306e\u65e5
p3733
sg11
Nsg12
I2039
sg13
I10
sg14
Nsg15
Nsg16
I10
sbag2
(g3
g4
NtRp3734
(dp3735
g7
Nsg8
Nsg9
V\u6587\u5316\u306e\u65e5
p3736
sg11
Nsg12
I2039
sg13
I11
sg14
Nsg15
Nsg16
I3
sbag2
(g3
g4
NtRp3737
(dp3738
g7
Nsg8
Nsg9
V\u52e4\u52b4\u611f\u8b1d\u306e\u65e5
p3739
sg11
Nsg12
I2039
sg13
I11
sg14
Nsg15
Nsg16
I23
sbag2
(g3
g4
NtRp3740
(dp3741
g7
Nsg8
Nsg9
V\u5929\u7687\u8a95\u751f\u65e5
p3742
sg11
Nsg12
I2039
sg13
I12
sg14
Nsg15
Nsg16
I23
sbag2
(g3
g4
NtRp3743
(dp3744
g7
Nsg8
Nsg9
V\u5143\u65e5
p3745
sg11
Nsg12
I2040
sg13
I1
sg14
Nsg15
Nsg16
I1
sbag2
(g3
g4
NtRp3746
(dp3747
g7
Nsg8
Nsg9
V\u632f\u66ff\u4f11\u65e5
p3748
sg11
Nsg12
I2040
sg13
I1
sg14
Nsg15
Nsg16
I2
sbag2
(g3
g4
NtRp3749
(dp3750
g7
Nsg8
Nsg9
V\u6210\u4eba\u306e\u65e5
p3751
sg11
Nsg12
I2040
sg13
I1
sg14
Nsg15
Nsg16
I9
sbag2
(g3
g4
NtRp3752
(dp3753
g7
Nsg8
Nsg9
V\u5efa\u56fd\u8a18\u5ff5\u306e\u65e5
p3754
sg11
Nsg12
I2040
sg13
I2
sg14
Nsg15
Nsg16
I11
sbag2
(g3
g4
NtRp3755
(dp3756
g7
Nsg8
Nsg9
V\u6625\u5206\u306e\u65e5
p3757
sg11
Nsg12
I2040
sg13
I3
sg14
Nsg15
Nsg16
I20
sbag2
(g3
g4
NtRp3758
(dp3759
g7
Nsg8
Nsg9
V\u662d\u548c\u306e\u65e5
p3760
sg11
Nsg12
I2040
sg13
I4
sg14
Nsg15
Nsg16
I29
sbag2
(g3
g4
NtRp3761
(dp3762
g7
Nsg8
Nsg9
V\u632f\u66ff\u4f11\u65e5
p3763
sg11
Nsg12
I2040
sg13
I4
sg14
Nsg15
Nsg16
I30
sbag2
(g3
g4
NtRp3764
(dp3765
g7
Nsg8
Nsg9
V\u61b2\u6cd5\u8a18\u5ff5\u65e5
p3766
sg11
Nsg12
I2040
sg13
I5
sg14
Nsg15
Nsg16
I3
sbag2
(g3
g4
NtRp3767
(dp3768
g7
Nsg8
Nsg9
V\u307f\u3069\u308a\u306e\u65e5
p3769
sg11
Nsg12
I2040
sg13
I5
sg14
Nsg15
Nsg16
I4
sbag2
(g3
g4
NtRp3770
(dp3771
g7
Nsg8
Nsg9
V\u3053\u3069\u3082\u306e\u65e5
p3772
sg11
Nsg12
I2040
sg13
I5
sg14
Nsg15
Nsg16
I5
sbag2
(g3
g4
NtRp3773
(dp3774
g7
Nsg8
Nsg9
V\u6d77\u306e\u65e5
p3775
sg11
Nsg12
I2040
sg13
I7
sg14
Nsg15
Nsg16
I16
sbag2
(g3
g4
NtRp3776
(dp3777
g7
Nsg8
Nsg9
V\u5c71\u306e\u65e5
p3778
sg11
Nsg12
I2040
sg13
I8
sg14
Nsg15
Nsg16
I11
sbag2
(g3
g4
NtRp3779
(dp3780
g7
Nsg8
Nsg9
V\u656c\u8001\u306e\u65e5
p3781
sg11
Nsg12
I2040
sg13
I9
sg14
Nsg15
Nsg16
I17
sbag2
(g3
g4
NtRp3782
(dp3783
g7
Nsg8
Nsg9
V\u79cb\u5206\u306e\u65e5
p3784
sg11
Nsg12
I2040
sg13
I9
sg14
Nsg15
Nsg16
I22
sbag2
(g3
g4
NtRp3785
(dp3786
g7
Nsg8
Nsg9
V\u4f53\u80b2\u306e\u65e5
p3787
sg11
Nsg12
I2040
sg13
I10
sg14
Nsg15
Nsg16
I8
sbag2
(g3
g4
NtRp3788
(dp3789
g7
Nsg8
Nsg9
V\u6587\u5316\u306e\u65e5
p3790
sg11
Nsg12
I2040
sg13
I11
sg14
Nsg15
Nsg16
I3
sbag2
(g3
g4
NtRp3791
(dp3792
g7
Nsg8
Nsg9
V\u52e4\u52b4\u611f\u8b1d\u306e\u65e5
p3793
sg11
Nsg12
I2040
sg13
I11
sg14
Nsg15
Nsg16
I23
sbag2
(g3
g4
NtRp3794
(dp3795
g7
Nsg8
Nsg9
V\u5929\u7687\u8a95\u751f\u65e5
p3796
sg11
Nsg12
I2040
sg13
I12
sg14
Nsg15
Nsg16
I23
sbag2
(g3
g4
NtRp3797
(dp3798
g7
Nsg8
Nsg9
V\u632f\u66ff\u4f11\u65e5
p3799
sg11
Nsg12
I2040
sg13
I12
sg14
Nsg15
Nsg16
I24
sbag2
(g3
g4
NtRp3800
(dp3801
g7
Nsg8
Nsg9
V\u5143\u65e5
p3802
sg11
Nsg12
I2041
sg13
I1
sg14
Nsg15
Nsg16
I1
sbag2
(g3
g4
NtRp3803
(dp3804
g7
Nsg8
Nsg9
V\u6210\u4eba\u306e\u65e5
p3805
sg11
Nsg12
I2041
sg13
I1
sg14
Nsg15
Nsg16
I14
sbag2
(g3
g4
NtRp3806
(dp3807
g7
Nsg8
Nsg9
V\u5efa\u56fd\u8a18\u5ff5\u306e\u65e5
p3808
sg11
Nsg12
I2041
sg13
I2
sg14
Nsg15
Nsg16
I11
sbag2
(g3
g4
NtRp3809
(dp3810
g7
Nsg8
Nsg9
V\u6625\u5206\u306e\u65e5
p3811
sg11
Nsg12
I2041
sg13
I3
sg14
Nsg15
Nsg16
I20
sbag2
(g3
g4
NtRp3812
(dp3813
g7
Nsg8
Nsg9
V\u662d\u548c\u306e\u65e5
p3814
sg11
Nsg12
I2041
sg13
I4
sg14
Nsg15
Nsg16
I29
sbag2
(g3
g4
NtRp3815
(dp3816
g7
Nsg8
Nsg9
V\u61b2\u6cd5\u8a18\u5ff5\u65e5
p3817
sg11
Nsg12
I2041
sg13
I5
sg14
Nsg15
Nsg16
I3
sbag2
(g3
g4
NtRp3818
(dp3819
g7
Nsg8
Nsg9
V\u307f\u3069\u308a\u306e\u65e5
p3820
sg11
Nsg12
I2041
sg13
I5
sg14
Nsg15
Nsg16
I4
sbag2
(g3
g4
NtRp3821
(dp3822
g7
Nsg8
Nsg9
V\u3053\u3069\u3082\u306e\u65e5
p3823
sg11
Nsg12
I2041
sg13
I5
sg14
Nsg15
Nsg16
I5
sbag2
(g3
g4
NtRp3824
(dp3825
g7
Nsg8
Nsg9
V\u632f\u66ff\u4f11\u65e5
p3826
sg11
Nsg12
I2041
sg13
I5
sg14
Nsg15
Nsg16
I6
sbag2
(g3
g4
NtRp3827
(dp3828
g7
Nsg8
Nsg9
V\u6d77\u306e\u65e5
p3829
sg11
Nsg12
I2041
sg13
I7
sg14
Nsg15
Nsg16
I15
sbag2
(g3
g4
NtRp3830
(dp3831
g7
Nsg8
Nsg9
V\u5c71\u306e\u65e5
p3832
sg11
Nsg12
I2041
sg13
I8
sg14
Nsg15
Nsg16
I11
sbag2
(g3
g4
NtRp3833
(dp3834
g7
Nsg8
Nsg9
V\u632f\u66ff\u4f11\u65e5
p3835
sg11
Nsg12
I2041
sg13
I8
sg14
Nsg15
Nsg16
I12
sbag2
(g3
g4
NtRp3836
(dp3837
g7
Nsg8
Nsg9
V\u656c\u8001\u306e\u65e5
p3838
sg11
Nsg12
I2041
sg13
I9
sg14
Nsg15
Nsg16
I16
sbag2
(g3
g4
NtRp3839
(dp3840
g7
Nsg8
Nsg9
V\u79cb\u5206\u306e\u65e5
p3841
sg11
Nsg12
I2041
sg13
I9
sg14
Nsg15
Nsg16
I23
sbag2
(g3
g4
NtRp3842
(dp3843
g7
Nsg8
Nsg9
V\u4f53\u80b2\u306e\u65e5
p3844
sg11
Nsg12
I2041
sg13
I10
sg14
Nsg15
Nsg16
I14
sbag2
(g3
g4
NtRp3845
(dp3846
g7
Nsg8
Nsg9
V\u6587\u5316\u306e\u65e5
p3847
sg11
Nsg12
I2041
sg13
I11
sg14
Nsg15
Nsg16
I3
sbag2
(g3
g4
NtRp3848
(dp3849
g7
Nsg8
Nsg9
V\u632f\u66ff\u4f11\u65e5
p3850
sg11
Nsg12
I2041
sg13
I11
sg14
Nsg15
Nsg16
I4
sbag2
(g3
g4
NtRp3851
(dp3852
g7
Nsg8
Nsg9
V\u52e4\u52b4\u611f\u8b1d\u306e\u65e5
p3853
sg11
Nsg12
I2041
sg13
I11
sg14
Nsg15
Nsg16
I23
sbag2
(g3
g4
NtRp3854
(dp3855
g7
Nsg8
Nsg9
V\u5929\u7687\u8a95\u751f\u65e5
p3856
sg11
Nsg12
I2041
sg13
I12
sg14
Nsg15
Nsg16
I23
sbag2
(g3
g4
NtRp3857
(dp3858
g7
Nsg8
Nsg9
V\u5143\u65e5
p3859
sg11
Nsg12
I2042
sg13
I1
sg14
Nsg15
Nsg16
I1
sbag2
(g3
g4
NtRp3860
(dp3861
g7
Nsg8
Nsg9
V\u6210\u4eba\u306e\u65e5
p3862
sg11
Nsg12
I2042
sg13
I1
sg14
Nsg15
Nsg16
I13
sbag2
(g3
g4
NtRp3863
(dp3864
g7
Nsg8
Nsg9
V\u5efa\u56fd\u8a18\u5ff5\u306e\u65e5
p3865
sg11
Nsg12
I2042
sg13
I2
sg14
Nsg15
Nsg16
I11
sbag2
(g3
g4
NtRp3866
(dp3867
g7
Nsg8
Nsg9
V\u6625\u5206\u306e\u65e5
p3868
sg11
Nsg12
I2042
sg13
I3
sg14
Nsg15
Nsg16
I20
sbag2
(g3
g4
NtRp3869
(dp3870
g7
Nsg8
Nsg9
V\u662d\u548c\u306e\u65e5
p3871
sg11
Nsg12
I2042
sg13
I4
sg14
Nsg15
Nsg16
I29
sbag2
(g3
g4
NtRp3872
(dp3873
g7
Nsg8
Nsg9
V\u61b2\u6cd5\u8a18\u5ff5\u65e5
p3874
sg11
Nsg12
I2042
sg13
I5
sg14
Nsg15
Nsg16
I3
sbag2
(g3
g4
NtRp3875
(dp3876
g7
Nsg8
Nsg9
V\u307f\u3069\u308a\u306e\u65e5
p3877
sg11
Nsg12
I2042
sg13
I5
sg14
Nsg15
Nsg16
I4
sbag2
(g3
g4
NtRp3878
(dp3879
g7
Nsg8
Nsg9
V\u3053\u3069\u3082\u306e\u65e5
p3880
sg11
Nsg12
I2042
sg13
I5
sg14
Nsg15
Nsg16
I5
sbag2
(g3
g4
NtRp3881
(dp3882
g7
Nsg8
Nsg9
V\u632f\u66ff\u4f11\u65e5
p3883
sg11
Nsg12
I2042
sg13
I5
sg14
Nsg15
Nsg16
I6
sbag2
(g3
g4
NtRp3884
(dp3885
g7
Nsg8
Nsg9
V\u6d77\u306e\u65e5
p3886
sg11
Nsg12
I2042
sg13
I7
sg14
Nsg15
Nsg16
I21
sbag2
(g3
g4
NtRp3887
(dp3888
g7
Nsg8
Nsg9
V\u5c71\u306e\u65e5
p3889
sg11
Nsg12
I2042
sg13
I8
sg14
Nsg15
Nsg16
I11
sbag2
(g3
g4
NtRp3890
(dp3891
g7
Nsg8
Nsg9
V\u656c\u8001\u306e\u65e5
p3892
sg11
Nsg12
I2042
sg13
I9
sg14
Nsg15
Nsg16
I15
sbag2
(g3
g4
NtRp3893
(dp3894
g7
Nsg8
Nsg9
V\u79cb\u5206\u306e\u65e5
p3895
sg11
Nsg12
I2042
sg13
I9
sg14
Nsg15
Nsg16
I23
sbag2
(g3
g4
NtRp3896
(dp3897
g7
Nsg8
Nsg9
V\u4f53\u80b2\u306e\u65e5
p3898
sg11
Nsg12
I2042
sg13
I10
sg14
Nsg15
Nsg16
I13
sbag2
(g3
g4
NtRp3899
(dp3900
g7
Nsg8
Nsg9
V\u6587\u5316\u306e\u65e5
p3901
sg11
Nsg12
I2042
sg13
I11
sg14
Nsg15
Nsg16
I3
sbag2
(g3
g4
NtRp3902
(dp3903
g7
Nsg8
Nsg9
V\u52e4\u52b4\u611f\u8b1d\u306e\u65e5
p3904
sg11
Nsg12
I2042
sg13
I11
sg14
Nsg15
Nsg16
I23
sbag2
(g3
g4
NtRp3905
(dp3906
g7
Nsg8
Nsg9
V\u632f\u66ff\u4f11\u65e5
p3907
sg11
Nsg12
I2042
sg13
I11
sg14
Nsg15
Nsg16
I24
sbag2
(g3
g4
NtRp3908
(dp3909
g7
Nsg8
Nsg9
V\u5929\u7687\u8a95\u751f\u65e5
p3910
sg11
Nsg12
I2042
sg13
I12
sg14
Nsg15
Nsg16
I23
sbag2
(g3
g4
NtRp3911
(dp3912
g7
Nsg8
Nsg9
V\u5143\u65e5
p3913
sg11
Nsg12
I2043
sg13
I1
sg14
Nsg15
Nsg16
I1
sbag2
(g3
g4
NtRp3914
(dp3915
g7
Nsg8
Nsg9
V\u6210\u4eba\u306e\u65e5
p3916
sg11
Nsg12
I2043
sg13
I1
sg14
Nsg15
Nsg16
I12
sbag2
(g3
g4
NtRp3917
(dp3918
g7
Nsg8
Nsg9
V\u5efa\u56fd\u8a18\u5ff5\u306e\u65e5
p3919
sg11
Nsg12
I2043
sg13
I2
sg14
Nsg15
Nsg16
I11
sbag2
(g3
g4
NtRp3920
(dp3921
g7
Nsg8
Nsg9
V\u6625\u5206\u306e\u65e5
p3922
sg11
Nsg12
I2043
sg13
I3
sg14
Nsg15
Nsg16
I21
sbag2
(g3
g4
NtRp3923
(dp3924
g7
Nsg8
Nsg9
V\u662d\u548c\u306e\u65e5
p3925
sg11
Nsg12
I2043
sg13
I4
sg14
Nsg15
Nsg16
I29
sbag2
(g3
g4
NtRp3926
(dp3927
g7
Nsg8
Nsg9
V\u61b2\u6cd5\u8a18\u5ff5\u65e5
p3928
sg11
Nsg12
I2043
sg13
I5
sg14
Nsg15
Nsg16
I3
sbag2
(g3
g4
NtRp3929
(dp3930
g7
Nsg8
Nsg9
V\u307f\u3069\u308a\u306e\u65e5
p3931
sg11
Nsg12
I2043
sg13
I5
sg14
Nsg15
Nsg16
I4
sbag2
(g3
g4
NtRp3932
(dp3933
g7
Nsg8
Nsg9
V\u3053\u3069\u3082\u306e\u65e5
p3934
sg11
Nsg12
I2043
sg13
I5
sg14
Nsg15
Nsg16
I5
sbag2
(g3
g4
NtRp3935
(dp3936
g7
Nsg8
Nsg9
V\u632f\u66ff\u4f11\u65e5
p3937
sg11
Nsg12
I2043
sg13
I5
sg14
Nsg15
Nsg16
I6
sbag2
(g3
g4
NtRp3938
(dp3939
g7
Nsg8
Nsg9
V\u6d77\u306e\u65e5
p3940
sg11
Nsg12
I2043
sg13
I7
sg14
Nsg15
Nsg16
I20
sbag2
(g3
g4
NtRp3941
(dp3942
g7
Nsg8
Nsg9
V\u5c71\u306e\u65e5
p3943
sg11
Nsg12
I2043
sg13
I8
sg14
Nsg15
Nsg16
I11
sbag2
(g3
g4
NtRp3944
(dp3945
g7
Nsg8
Nsg9
V\u656c\u8001\u306e\u65e5
p3946
sg11
Nsg12
I2043
sg13
I9
sg14
Nsg15
Nsg16
I21
sbag2
(g3
g4
NtRp3947
(dp3948
g7
Nsg8
Nsg9
V\u56fd\u6c11\u306e\u4f11\u65e5
p3949
sg11
Nsg12
I2043
sg13
I9
sg14
Nsg15
Nsg16
I22
sbag2
(g3
g4
NtRp3950
(dp3951
g7
Nsg8
Nsg9
V\u79cb\u5206\u306e\u65e5
p3952
sg11
Nsg12
I2043
sg13
I9
sg14
Nsg15
Nsg16
I23
sbag2
(g3
g4
NtRp3953
(dp3954
g7
Nsg8
Nsg9
V\u4f53\u80b2\u306e\u65e5
p3955
sg11
Nsg12
I2043
sg13
I10
sg14
Nsg15
Nsg16
I12
sbag2
(g3
g4
NtRp3956
(dp3957
g7
Nsg8
Nsg9
V\u6587\u5316\u306e\u65e5
p3958
sg11
Nsg12
I2043
sg13
I11
sg14
Nsg15
Nsg16
I3
sbag2
(g3
g4
NtRp3959
(dp3960
g7
Nsg8
Nsg9
V\u52e4\u52b4\u611f\u8b1d\u306e\u65e5
p3961
sg11
Nsg12
I2043
sg13
I11
sg14
Nsg15
Nsg16
I23
sbag2
(g3
g4
NtRp3962
(dp3963
g7
Nsg8
Nsg9
V\u5929\u7687\u8a95\u751f\u65e5
p3964
sg11
Nsg12
I2043
sg13
I12
sg14
Nsg15
Nsg16
I23
sbag2
(g3
g4
NtRp3965
(dp3966
g7
Nsg8
Nsg9
V\u5143\u65e5
p3967
sg11
Nsg12
I2044
sg13
I1
sg14
Nsg15
Nsg16
I1
sbag2
(g3
g4
NtRp3968
(dp3969
g7
Nsg8
Nsg9
V\u6210\u4eba\u306e\u65e5
p3970
sg11
Nsg12
I2044
sg13
I1
sg14
Nsg15
Nsg16
I11
sbag2
(g3
g4
NtRp3971
(dp3972
g7
Nsg8
Nsg9
V\u5efa\u56fd\u8a18\u5ff5\u306e\u65e5
p3973
sg11
Nsg12
I2044
sg13
I2
sg14
Nsg15
Nsg16
I11
sbag2
(g3
g4
NtRp3974
(dp3975
g7
Nsg8
Nsg9
V\u6625\u5206\u306e\u65e5
p3976
sg11
Nsg12
I2044
sg13
I3
sg14
Nsg15
Nsg16
I20
sbag2
(g3
g4
NtRp3977
(dp3978
g7
Nsg8
Nsg9
V\u632f\u66ff\u4f11\u65e5
p3979
sg11
Nsg12
I2044
sg13
I3
sg14
Nsg15
Nsg16
I21
sbag2
(g3
g4
NtRp3980
(dp3981
g7
Nsg8
Nsg9
V\u662d\u548c\u306e\u65e5
p3982
sg11
Nsg12
I2044
sg13
I4
sg14
Nsg15
Nsg16
I29
sbag2
(g3
g4
NtRp3983
(dp3984
g7
Nsg8
Nsg9
V\u61b2\u6cd5\u8a18\u5ff5\u65e5
p3985
sg11
Nsg12
I2044
sg13
I5
sg14
Nsg15
Nsg16
I3
sbag2
(g3
g4
NtRp3986
(dp3987
g7
Nsg8
Nsg9
V\u307f\u3069\u308a\u306e\u65e5
p3988
sg11
Nsg12
I2044
sg13
I5
sg14
Nsg15
Nsg16
I4
sbag2
(g3
g4
NtRp3989
(dp3990
g7
Nsg8
Nsg9
V\u3053\u3069\u3082\u306e\u65e5
p3991
sg11
Nsg12
I2044
sg13
I5
sg14
Nsg15
Nsg16
I5
sbag2
(g3
g4
NtRp3992
(dp3993
g7
Nsg8
Nsg9
V\u6d77\u306e\u65e5
p3994
sg11
Nsg12
I2044
sg13
I7
sg14
Nsg15
Nsg16
I18
sbag2
(g3
g4
NtRp3995
(dp3996
g7
Nsg8
Nsg9
V\u5c71\u306e\u65e5
p3997
sg11
Nsg12
I2044
sg13
I8
sg14
Nsg15
Nsg16
I11
sbag2
(g3
g4
NtRp3998
(dp3999
g7
Nsg8
Nsg9
V\u656c\u8001\u306e\u65e5
p4000
sg11
Nsg12
I2044
sg13
I9
sg14
Nsg15
Nsg16
I19
sbag2
(g3
g4
NtRp4001
(dp4002
g7
Nsg8
Nsg9
V\u79cb\u5206\u306e\u65e5
p4003
sg11
Nsg12
I2044
sg13
I9
sg14
Nsg15
Nsg16
I22
sbag2
(g3
g4
NtRp4004
(dp4005
g7
Nsg8
Nsg9
V\u4f53\u80b2\u306e\u65e5
p4006
sg11
Nsg12
I2044
sg13
I10
sg14
Nsg15
Nsg16
I10
sbag2
(g3
g4
NtRp4007
(dp4008
g7
Nsg8
Nsg9
V\u6587\u5316\u306e\u65e5
p4009
sg11
Nsg12
I2044
sg13
I11
sg14
Nsg15
Nsg16
I3
sbag2
(g3
g4
NtRp4010
(dp4011
g7
Nsg8
Nsg9
V\u52e4\u52b4\u611f\u8b1d\u306e\u65e5
p4012
sg11
Nsg12
I2044
sg13
I11
sg14
Nsg15
Nsg16
I23
sbag2
(g3
g4
NtRp4013
(dp4014
g7
Nsg8
Nsg9
V\u5929\u7687\u8a95\u751f\u65e5
p4015
sg11
Nsg12
I2044
sg13
I12
sg14
Nsg15
Nsg16
I23
sbag2
(g3
g4
NtRp4016
(dp4017
g7
Nsg8
Nsg9
V\u5143\u65e5
p4018
sg11
Nsg12
I2045
sg13
I1
sg14
Nsg15
Nsg16
I1
sbag2
(g3
g4
NtRp4019
(dp4020
g7
Nsg8
Nsg9
V\u632f\u66ff\u4f11\u65e5
p4021
sg11
Nsg12
I2045
sg13
I1
sg14
Nsg15
Nsg16
I2
sbag2
(g3
g4
NtRp4022
(dp4023
g7
Nsg8
Nsg9
V\u6210\u4eba\u306e\u65e5
p4024
sg11
Nsg12
I2045
sg13
I1
sg14
Nsg15
Nsg16
I9
sbag2
(g3
g4
NtRp4025
(dp4026
g7
Nsg8
Nsg9
V\u5efa\u56fd\u8a18\u5ff5\u306e\u65e5
p4027
sg11
Nsg12
I2045
sg13
I2
sg14
Nsg15
Nsg16
I11
sbag2
(g3
g4
NtRp4028
(dp4029
g7
Nsg8
Nsg9
V\u6625\u5206\u306e\u65e5
p4030
sg11
Nsg12
I2045
sg13
I3
sg14
Nsg15
Nsg16
I20
sbag2
(g3
g4
NtRp4031
(dp4032
g7
Nsg8
Nsg9
V\u662d\u548c\u306e\u65e5
p4033
sg11
Nsg12
I2045
sg13
I4
sg14
Nsg15
Nsg16
I29
sbag2
(g3
g4
NtRp4034
(dp4035
g7
Nsg8
Nsg9
V\u61b2\u6cd5\u8a18\u5ff5\u65e5
p4036
sg11
Nsg12
I2045
sg13
I5
sg14
Nsg15
Nsg16
I3
sbag2
(g3
g4
NtRp4037
(dp4038
g7
Nsg8
Nsg9
V\u307f\u3069\u308a\u306e\u65e5
p4039
sg11
Nsg12
I2045
sg13
I5
sg14
Nsg15
Nsg16
I4
sbag2
(g3
g4
NtRp4040
(dp4041
g7
Nsg8
Nsg9
V\u3053\u3069\u3082\u306e\u65e5
p4042
sg11
Nsg12
I2045
sg13
I5
sg14
Nsg15
Nsg16
I5
sbag2
(g3
g4
NtRp4043
(dp4044
g7
Nsg8
Nsg9
V\u6d77\u306e\u65e5
p4045
sg11
Nsg12
I2045
sg13
I7
sg14
Nsg15
Nsg16
I17
sbag2
(g3
g4
NtRp4046
(dp4047
g7
Nsg8
Nsg9
V\u5c71\u306e\u65e5
p4048
sg11
Nsg12
I2045
sg13
I8
sg14
Nsg15
Nsg16
I11
sbag2
(g3
g4
NtRp4049
(dp4050
g7
Nsg8
Nsg9
V\u656c\u8001\u306e\u65e5
p4051
sg11
Nsg12
I2045
sg13
I9
sg14
Nsg15
Nsg16
I18
sbag2
(g3
g4
NtRp4052
(dp4053
g7
Nsg8
Nsg9
V\u79cb\u5206\u306e\u65e5
p4054
sg11
Nsg12
I2045
sg13
I9
sg14
Nsg15
Nsg16
I22
sbag2
(g3
g4
NtRp4055
(dp4056
g7
Nsg8
Nsg9
V\u4f53\u80b2\u306e\u65e5
p4057
sg11
Nsg12
I2045
sg13
I10
sg14
Nsg15
Nsg16
I9
sbag2
(g3
g4
NtRp4058
(dp4059
g7
Nsg8
Nsg9
V\u6587\u5316\u306e\u65e5
p4060
sg11
Nsg12
I2045
sg13
I11
sg14
Nsg15
Nsg16
I3
sbag2
(g3
g4
NtRp4061
(dp4062
g7
Nsg8
Nsg9
V\u52e4\u52b4\u611f\u8b1d\u306e\u65e5
p4063
sg11
Nsg12
I2045
sg13
I11
sg14
Nsg15
Nsg16
I23
sbag2
(g3
g4
NtRp4064
(dp4065
g7
Nsg8
Nsg9
V\u5929\u7687\u8a95\u751f\u65e5
p4066
sg11
Nsg12
I2045
sg13
I12
sg14
Nsg15
Nsg16
I23
sbag2
(g3
g4
NtRp4067
(dp4068
g7
Nsg8
Nsg9
V\u5143\u65e5
p4069
sg11
Nsg12
I2046
sg13
I1
sg14
Nsg15
Nsg16
I1
sbag2
(g3
g4
NtRp4070
(dp4071
g7
Nsg8
Nsg9
V\u6210\u4eba\u306e\u65e5
p4072
sg11
Nsg12
I2046
sg13
I1
sg14
Nsg15
Nsg16
I8
sbag2
(g3
g4
NtRp4073
(dp4074
g7
Nsg8
Nsg9
V\u5efa\u56fd\u8a18\u5ff5\u306e\u65e5
p4075
sg11
Nsg12
I2046
sg13
I2
sg14
Nsg15
Nsg16
I11
sbag2
(g3
g4
NtRp4076
(dp4077
g7
Nsg8
Nsg9
V\u632f\u66ff\u4f11\u65e5
p4078
sg11
Nsg12
I2046
sg13
I2
sg14
Nsg15
Nsg16
I12
sbag2
(g3
g4
NtRp4079
(dp4080
g7
Nsg8
Nsg9
V\u6625\u5206\u306e\u65e5
p4081
sg11
Nsg12
I2046
sg13
I3
sg14
Nsg15
Nsg16
I20
sbag2
(g3
g4
NtRp4082
(dp4083
g7
Nsg8
Nsg9
V\u662d\u548c\u306e\u65e5
p4084
sg11
Nsg12
I2046
sg13
I4
sg14
Nsg15
Nsg16
I29
sbag2
(g3
g4
NtRp4085
(dp4086
g7
Nsg8
Nsg9
V\u632f\u66ff\u4f11\u65e5
p4087
sg11
Nsg12
I2046
sg13
I4
sg14
Nsg15
Nsg16
I30
sbag2
(g3
g4
NtRp4088
(dp4089
g7
Nsg8
Nsg9
V\u61b2\u6cd5\u8a18\u5ff5\u65e5
p4090
sg11
Nsg12
I2046
sg13
I5
sg14
Nsg15
Nsg16
I3
sbag2
(g3
g4
NtRp4091
(dp4092
g7
Nsg8
Nsg9
V\u307f\u3069\u308a\u306e\u65e5
p4093
sg11
Nsg12
I2046
sg13
I5
sg14
Nsg15
Nsg16
I4
sbag2
(g3
g4
NtRp4094
(dp4095
g7
Nsg8
Nsg9
V\u3053\u3069\u3082\u306e\u65e5
p4096
sg11
Nsg12
I2046
sg13
I5
sg14
Nsg15
Nsg16
I5
sbag2
(g3
g4
NtRp4097
(dp4098
g7
Nsg8
Nsg9
V\u6d77\u306e\u65e5
p4099
sg11
Nsg12
I2046
sg13
I7
sg14
Nsg15
Nsg16
I16
sbag2
(g3
g4
NtRp4100
(dp4101
g7
Nsg8
Nsg9
V\u5c71\u306e\u65e5
p4102
sg11
Nsg12
I2046
sg13
I8
sg14
Nsg15
Nsg16
I11
sbag2
(g3
g4
NtRp4103
(dp4104
g7
Nsg8
Nsg9
V\u656c\u8001\u306e\u65e5
p4105
sg11
Nsg12
I2046
sg13
I9
sg14
Nsg15
Nsg16
I17
sbag2
(g3
g4
NtRp4106
(dp4107
g7
Nsg8
Nsg9
V\u79cb\u5206\u306e\u65e5
p4108
sg11
Nsg12
I2046
sg13
I9
sg14
Nsg15
Nsg16
I23
sbag2
(g3
g4
NtRp4109
(dp4110
g7
Nsg8
Nsg9
V\u632f\u66ff\u4f11\u65e5
p4111
sg11
Nsg12
I2046
sg13
I9
sg14
Nsg15
Nsg16
I24
sbag2
(g3
g4
NtRp4112
(dp4113
g7
Nsg8
Nsg9
V\u4f53\u80b2\u306e\u65e5
p4114
sg11
Nsg12
I2046
sg13
I10
sg14
Nsg15
Nsg16
I8
sbag2
(g3
g4
NtRp4115
(dp4116
g7
Nsg8
Nsg9
V\u6587\u5316\u306e\u65e5
p4117
sg11
Nsg12
I2046
sg13
I11
sg14
Nsg15
Nsg16
I3
sbag2
(g3
g4
NtRp4118
(dp4119
g7
Nsg8
Nsg9
V\u52e4\u52b4\u611f\u8b1d\u306e\u65e5
p4120
sg11
Nsg12
I2046
sg13
I11
sg14
Nsg15
Nsg16
I23
sbag2
(g3
g4
NtRp4121
(dp4122
g7
Nsg8
Nsg9
V\u5929\u7687\u8a95\u751f\u65e5
p4123
sg11
Nsg12
I2046
sg13
I12
sg14
Nsg15
Nsg16
I23
sbag2
(g3
g4
NtRp4124
(dp4125
g7
Nsg8
Nsg9
V\u632f\u66ff\u4f11\u65e5
p4126
sg11
Nsg12
I2046
sg13
I12
sg14
Nsg15
Nsg16
I24
sbag2
(g3
g4
NtRp4127
(dp4128
g7
Nsg8
Nsg9
V\u5143\u65e5
p4129
sg11
Nsg12
I2047
sg13
I1
sg14
Nsg15
Nsg16
I1
sbag2
(g3
g4
NtRp4130
(dp4131
g7
Nsg8
Nsg9
V\u6210\u4eba\u306e\u65e5
p4132
sg11
Nsg12
I2047
sg13
I1
sg14
Nsg15
Nsg16
I14
sbag2
(g3
g4
NtRp4133
(dp4134
g7
Nsg8
Nsg9
V\u5efa\u56fd\u8a18\u5ff5\u306e\u65e5
p4135
sg11
Nsg12
I2047
sg13
I2
sg14
Nsg15
Nsg16
I11
sbag2
(g3
g4
NtRp4136
(dp4137
g7
Nsg8
Nsg9
V\u6625\u5206\u306e\u65e5
p4138
sg11
Nsg12
I2047
sg13
I3
sg14
Nsg15
Nsg16
I21
sbag2
(g3
g4
NtRp4139
(dp4140
g7
Nsg8
Nsg9
V\u662d\u548c\u306e\u65e5
p4141
sg11
Nsg12
I2047
sg13
I4
sg14
Nsg15
Nsg16
I29
sbag2
(g3
g4
NtRp4142
(dp4143
g7
Nsg8
Nsg9
V\u61b2\u6cd5\u8a18\u5ff5\u65e5
p4144
sg11
Nsg12
I2047
sg13
I5
sg14
Nsg15
Nsg16
I3
sbag2
(g3
g4
NtRp4145
(dp4146
g7
Nsg8
Nsg9
V\u307f\u3069\u308a\u306e\u65e5
p4147
sg11
Nsg12
I2047
sg13
I5
sg14
Nsg15
Nsg16
I4
sbag2
(g3
g4
NtRp4148
(dp4149
g7
Nsg8
Nsg9
V\u3053\u3069\u3082\u306e\u65e5
p4150
sg11
Nsg12
I2047
sg13
I5
sg14
Nsg15
Nsg16
I5
sbag2
(g3
g4
NtRp4151
(dp4152
g7
Nsg8
Nsg9
V\u632f\u66ff\u4f11\u65e5
p4153
sg11
Nsg12
I2047
sg13
I5
sg14
Nsg15
Nsg16
I6
sbag2
(g3
g4
NtRp4154
(dp4155
g7
Nsg8
Nsg9
V\u6d77\u306e\u65e5
p4156
sg11
Nsg12
I2047
sg13
I7
sg14
Nsg15
Nsg16
I15
sbag2
(g3
g4
NtRp4157
(dp4158
g7
Nsg8
Nsg9
V\u5c71\u306e\u65e5
p4159
sg11
Nsg12
I2047
sg13
I8
sg14
Nsg15
Nsg16
I11
sbag2
(g3
g4
NtRp4160
(dp4161
g7
Nsg8
Nsg9
V\u632f\u66ff\u4f11\u65e5
p4162
sg11
Nsg12
I2047
sg13
I8
sg14
Nsg15
Nsg16
I12
sbag2
(g3
g4
NtRp4163
(dp4164
g7
Nsg8
Nsg9
V\u656c\u8001\u306e\u65e5
p4165
sg11
Nsg12
I2047
sg13
I9
sg14
Nsg15
Nsg16
I16
sbag2
(g3
g4
NtRp4166
(dp4167
g7
Nsg8
Nsg9
V\u79cb\u5206\u306e\u65e5
p4168
sg11
Nsg12
I2047
sg13
I9
sg14
Nsg15
Nsg16
I23
sbag2
(g3
g4
NtRp4169
(dp4170
g7
Nsg8
Nsg9
V\u4f53\u80b2\u306e\u65e5
p4171
sg11
Nsg12
I2047
sg13
I10
sg14
Nsg15
Nsg16
I14
sbag2
(g3
g4
NtRp4172
(dp4173
g7
Nsg8
Nsg9
V\u6587\u5316\u306e\u65e5
p4174
sg11
Nsg12
I2047
sg13
I11
sg14
Nsg15
Nsg16
I3
sbag2
(g3
g4
NtRp4175
(dp4176
g7
Nsg8
Nsg9
V\u632f\u66ff\u4f11\u65e5
p4177
sg11
Nsg12
I2047
sg13
I11
sg14
Nsg15
Nsg16
I4
sbag2
(g3
g4
NtRp4178
(dp4179
g7
Nsg8
Nsg9
V\u52e4\u52b4\u611f\u8b1d\u306e\u65e5
p4180
sg11
Nsg12
I2047
sg13
I11
sg14
Nsg15
Nsg16
I23
sbag2
(g3
g4
NtRp4181
(dp4182
g7
Nsg8
Nsg9
V\u5929\u7687\u8a95\u751f\u65e5
p4183
sg11
Nsg12
I2047
sg13
I12
sg14
Nsg15
Nsg16
I23
sbag2
(g3
g4
NtRp4184
(dp4185
g7
Nsg8
Nsg9
V\u5143\u65e5
p4186
sg11
Nsg12
I2048
sg13
I1
sg14
Nsg15
Nsg16
I1
sbag2
(g3
g4
NtRp4187
(dp4188
g7
Nsg8
Nsg9
V\u6210\u4eba\u306e\u65e5
p4189
sg11
Nsg12
I2048
sg13
I1
sg14
Nsg15
Nsg16
I13
sbag2
(g3
g4
NtRp4190
(dp4191
g7
Nsg8
Nsg9
V\u5efa\u56fd\u8a18\u5ff5\u306e\u65e5
p4192
sg11
Nsg12
I2048
sg13
I2
sg14
Nsg15
Nsg16
I11
sbag2
(g3
g4
NtRp4193
(dp4194
g7
Nsg8
Nsg9
V\u6625\u5206\u306e\u65e5
p4195
sg11
Nsg12
I2048
sg13
I3
sg14
Nsg15
Nsg16
I20
sbag2
(g3
g4
NtRp4196
(dp4197
g7
Nsg8
Nsg9
V\u662d\u548c\u306e\u65e5
p4198
sg11
Nsg12
I2048
sg13
I4
sg14
Nsg15
Nsg16
I29
sbag2
(g3
g4
NtRp4199
(dp4200
g7
Nsg8
Nsg9
V\u61b2\u6cd5\u8a18\u5ff5\u65e5
p4201
sg11
Nsg12
I2048
sg13
I5
sg14
Nsg15
Nsg16
I3
sbag2
(g3
g4
NtRp4202
(dp4203
g7
Nsg8
Nsg9
V\u307f\u3069\u308a\u306e\u65e5
p4204
sg11
Nsg12
I2048
sg13
I5
sg14
Nsg15
Nsg16
I4
sbag2
(g3
g4
NtRp4205
(dp4206
g7
Nsg8
Nsg9
V\u3053\u3069\u3082\u306e\u65e5
p4207
sg11
Nsg12
I2048
sg13
I5
sg14
Nsg15
Nsg16
I5
sbag2
(g3
g4
NtRp4208
(dp4209
g7
Nsg8
Nsg9
V\u632f\u66ff\u4f11\u65e5
p4210
sg11
Nsg12
I2048
sg13
I5
sg14
Nsg15
Nsg16
I6
sbag2
(g3
g4
NtRp4211
(dp4212
g7
Nsg8
Nsg9
V\u6d77\u306e\u65e5
p4213
sg11
Nsg12
I2048
sg13
I7
sg14
Nsg15
Nsg16
I20
sbag2
(g3
g4
NtRp4214
(dp4215
g7
Nsg8
Nsg9
V\u5c71\u306e\u65e5
p4216
sg11
Nsg12
I2048
sg13
I8
sg14
Nsg15
Nsg16
I11
sbag2
(g3
g4
NtRp4217
(dp4218
g7
Nsg8
Nsg9
V\u656c\u8001\u306e\u65e5
p4219
sg11
Nsg12
I2048
sg13
I9
sg14
Nsg15
Nsg16
I21
sbag2
(g3
g4
NtRp4220
(dp4221
g7
Nsg8
Nsg9
V\u79cb\u5206\u306e\u65e5
p4222
sg11
Nsg12
I2048
sg13
I9
sg14
Nsg15
Nsg16
I22
sbag2
(g3
g4
NtRp4223
(dp4224
g7
Nsg8
Nsg9
V\u4f53\u80b2\u306e\u65e5
p4225
sg11
Nsg12
I2048
sg13
I10
sg14
Nsg15
Nsg16
I12
sbag2
(g3
g4
NtRp4226
(dp4227
g7
Nsg8
Nsg9
V\u6587\u5316\u306e\u65e5
p4228
sg11
Nsg12
I2048
sg13
I11
sg14
Nsg15
Nsg16
I3
sbag2
(g3
g4
NtRp4229
(dp4230
g7
Nsg8
Nsg9
V\u52e4\u52b4\u611f\u8b1d\u306e\u65e5
p4231
sg11
Nsg12
I2048
sg13
I11
sg14
Nsg15
Nsg16
I23
sbag2
(g3
g4
NtRp4232
(dp4233
g7
Nsg8
Nsg9
V\u5929\u7687\u8a95\u751f\u65e5
p4234
sg11
Nsg12
I2048
sg13
I12
sg14
Nsg15
Nsg16
I23
sbag2
(g3
g4
NtRp4235
(dp4236
g7
Nsg8
Nsg9
V\u5143\u65e5
p4237
sg11
Nsg12
I2049
sg13
I1
sg14
Nsg15
Nsg16
I1
sbag2
(g3
g4
NtRp4238
(dp4239
g7
Nsg8
Nsg9
V\u6210\u4eba\u306e\u65e5
p4240
sg11
Nsg12
I2049
sg13
I1
sg14
Nsg15
Nsg16
I11
sbag2
(g3
g4
NtRp4241
(dp4242
g7
Nsg8
Nsg9
V\u5efa\u56fd\u8a18\u5ff5\u306e\u65e5
p4243
sg11
Nsg12
I2049
sg13
I2
sg14
Nsg15
Nsg16
I11
sbag2
(g3
g4
NtRp4244
(dp4245
g7
Nsg8
Nsg9
V\u6625\u5206\u306e\u65e5
p4246
sg11
Nsg12
I2049
sg13
I3
sg14
Nsg15
Nsg16
I20
sbag2
(g3
g4
NtRp4247
(dp4248
g7
Nsg8
Nsg9
V\u662d\u548c\u306e\u65e5
p4249
sg11
Nsg12
I2049
sg13
I4
sg14
Nsg15
Nsg16
I29
sbag2
(g3
g4
NtRp4250
(dp4251
g7
Nsg8
Nsg9
V\u61b2\u6cd5\u8a18\u5ff5\u65e5
p4252
sg11
Nsg12
I2049
sg13
I5
sg14
Nsg15
Nsg16
I3
sbag2
(g3
g4
NtRp4253
(dp4254
g7
Nsg8
Nsg9
V\u307f\u3069\u308a\u306e\u65e5
p4255
sg11
Nsg12
I2049
sg13
I5
sg14
Nsg15
Nsg16
I4
sbag2
(g3
g4
NtRp4256
(dp4257
g7
Nsg8
Nsg9
V\u3053\u3069\u3082\u306e\u65e5
p4258
sg11
Nsg12
I2049
sg13
I5
sg14
Nsg15
Nsg16
I5
sbag2
(g3
g4
NtRp4259
(dp4260
g7
Nsg8
Nsg9
V\u6d77\u306e\u65e5
p4261
sg11
Nsg12
I2049
sg13
I7
sg14
Nsg15
Nsg16
I19
sbag2
(g3
g4
NtRp4262
(dp4263
g7
Nsg8
Nsg9
V\u5c71\u306e\u65e5
p4264
sg11
Nsg12
I2049
sg13
I8
sg14
Nsg15
Nsg16
I11
sbag2
(g3
g4
NtRp4265
(dp4266
g7
Nsg8
Nsg9
V\u656c\u8001\u306e\u65e5
p4267
sg11
Nsg12
I2049
sg13
I9
sg14
Nsg15
Nsg16
I20
sbag2
(g3
g4
NtRp4268
(dp4269
g7
Nsg8
Nsg9
V\u56fd\u6c11\u306e\u4f11\u65e5
p4270
sg11
Nsg12
I2049
sg13
I9
sg14
Nsg15
Nsg16
I21
sbag2
(g3
g4
NtRp4271
(dp4272
g7
Nsg8
Nsg9
V\u79cb\u5206\u306e\u65e5
p4273
sg11
Nsg12
I2049
sg13
I9
sg14
Nsg15
Nsg16
I22
sbag2
(g3
g4
NtRp4274
(dp4275
g7
Nsg8
Nsg9
V\u4f53\u80b2\u306e\u65e5
p4276
sg11
Nsg12
I2049
sg13
I10
sg14
Nsg15
Nsg16
I11
sbag2
(g3
g4
NtRp4277
(dp4278
g7
Nsg8
Nsg9
V\u6587\u5316\u306e\u65e5
p4279
sg11
Nsg12
I2049
sg13
I11
sg14
Nsg15
Nsg16
I3
sbag2
(g3
g4
NtRp4280
(dp4281
g7
Nsg8
Nsg9
V\u52e4\u52b4\u611f\u8b1d\u306e\u65e5
p4282
sg11
Nsg12
I2049
sg13
I11
sg14
Nsg15
Nsg16
I23
sbag2
(g3
g4
NtRp4283
(dp4284
g7
Nsg8
Nsg9
V\u5929\u7687\u8a95\u751f\u65e5
p4285
sg11
Nsg12
I2049
sg13
I12
sg14
Nsg15
Nsg16
I23
sbag2
(g3
g4
NtRp4286
(dp4287
g7
Nsg8
Nsg9
V\u5143\u65e5
p4288
sg11
Nsg12
I2050
sg13
I1
sg14
Nsg15
Nsg16
I1
sbag2
(g3
g4
NtRp4289
(dp4290
g7
Nsg8
Nsg9
V\u6210\u4eba\u306e\u65e5
p4291
sg11
Nsg12
I2050
sg13
I1
sg14
Nsg15
Nsg16
I10
sbag2
(g3
g4
NtRp4292
(dp4293
g7
Nsg8
Nsg9
V\u5efa\u56fd\u8a18\u5ff5\u306e\u65e5
p4294
sg11
Nsg12
I2050
sg13
I2
sg14
Nsg15
Nsg16
I11
sbag2
(g3
g4
NtRp4295
(dp4296
g7
Nsg8
Nsg9
V\u6625\u5206\u306e\u65e5
p4297
sg11
Nsg12
I2050
sg13
I3
sg14
Nsg15
Nsg16
I20
sbag2
(g3
g4
NtRp4298
(dp4299
g7
Nsg8
Nsg9
V\u632f\u66ff\u4f11\u65e5
p4300
sg11
Nsg12
I2050
sg13
I3
sg14
Nsg15
Nsg16
I21
sbag2
(g3
g4
NtRp4301
(dp4302
g7
Nsg8
Nsg9
V\u662d\u548c\u306e\u65e5
p4303
sg11
Nsg12
I2050
sg13
I4
sg14
Nsg15
Nsg16
I29
sbag2
(g3
g4
NtRp4304
(dp4305
g7
Nsg8
Nsg9
V\u61b2\u6cd5\u8a18\u5ff5\u65e5
p4306
sg11
Nsg12
I2050
sg13
I5
sg14
Nsg15
Nsg16
I3
sbag2
(g3
g4
NtRp4307
(dp4308
g7
Nsg8
Nsg9
V\u307f\u3069\u308a\u306e\u65e5
p4309
sg11
Nsg12
I2050
sg13
I5
sg14
Nsg15
Nsg16
I4
sbag2
(g3
g4
NtRp4310
(dp4311
g7
Nsg8
Nsg9
V\u3053\u3069\u3082\u306e\u65e5
p4312
sg11
Nsg12
I2050
sg13
I5
sg14
Nsg15
Nsg16
I5
sbag2
(g3
g4
NtRp4313
(dp4314
g7
Nsg8
Nsg9
V\u6d77\u306e\u65e5
p4315
sg11
Nsg12
I2050
sg13
I7
sg14
Nsg15
Nsg16
I18
sbag2
(g3
g4
NtRp4316
(dp4317
g7
Nsg8
Nsg9
V\u5c71\u306e\u65e5
p4318
sg11
Nsg12
I2050
sg13
I8
sg14
Nsg15
Nsg16
I11
sbag2
(g3
g4
NtRp4319
(dp4320
g7
Nsg8
Nsg9
V\u656c\u8001\u306e\u65e5
p4321
sg11
Nsg12
I2050
sg13
I9
sg14
Nsg15
Nsg16
I19
sbag2
(g3
g4
NtRp4322
(dp4323
g7
Nsg8
Nsg9
V\u79cb\u5206\u306e\u65e5
p4324
sg11
Nsg12
I2050
sg13
I9
sg14
Nsg15
Nsg16
I23
sbag2
(g3
g4
NtRp4325
(dp4326
g7
Nsg8
Nsg9
V\u4f53\u80b2\u306e\u65e5
p4327
sg11
Nsg12
I2050
sg13
I10
sg14
Nsg15
Nsg16
I10
sbag2
(g3
g4
NtRp4328
(dp4329
g7
Nsg8
Nsg9
V\u6587\u5316\u306e\u65e5
p4330
sg11
Nsg12
I2050
sg13
I11
sg14
Nsg15
Nsg16
I3
sbag2
(g3
g4
NtRp4331
(dp4332
g7
Nsg8
Nsg9
V\u52e4\u52b4\u611f\u8b1d\u306e\u65e5
p4333
sg11
Nsg12
I2050
sg13
I11
sg14
Nsg15
Nsg16
I23
sbag2
(g3
g4
NtRp4334
(dp4335
g7
Nsg8
Nsg9
V\u5929\u7687\u8a95\u751f\u65e5
p4336
sg11
Nsg12
I2050
sg13
I12
sg14
Nsg15
Nsg16
I23
sba.